
CH32V307RCT.elf:     file format elf32-littleriscv
CH32V307RCT.elf
architecture: riscv:rv32, flags 0x00000112:
EXEC_P, HAS_SYMS, D_PAGED
start address 0x00000000

Program Header:
    LOAD off    0x00001000 vaddr 0x00000000 paddr 0x00000000 align 2**12
         filesz 0x0000c754 memsz 0x0000c754 flags r-x
    LOAD off    0x0000e000 vaddr 0x20000000 paddr 0x0000c754 align 2**12
         filesz 0x000000dc memsz 0x000000dc flags rw-
    LOAD off    0x0000e0e0 vaddr 0x200000e0 paddr 0x0000c830 align 2**12
         filesz 0x00000000 memsz 0x00002140 flags rw-
    LOAD off    0x0000e800 vaddr 0x20007800 paddr 0x20007800 align 2**12
         filesz 0x00000000 memsz 0x00000800 flags rw-

Sections:
Idx Name          Size      VMA       LMA       File off  Algn
  0 .init         00000004  00000000  00000000  00001000  2**1
                  CONTENTS, ALLOC, LOAD, READONLY, CODE
  1 .vector       000001bc  00000004  00000004  00001004  2**1
                  CONTENTS, ALLOC, LOAD, READONLY, CODE
  2 .text         0000c594  000001c0  000001c0  000011c0  2**3
                  CONTENTS, ALLOC, LOAD, READONLY, CODE
  3 .fini         00000000  0000c754  0000c754  0000e0dc  2**0
                  CONTENTS, ALLOC, LOAD, CODE
  4 .dalign       00000000  20000000  20000000  0000e0dc  2**0
                  CONTENTS
  5 .dlalign      00000000  0000c754  0000c754  0000e0dc  2**0
                  CONTENTS
  6 .data         000000dc  20000000  0000c754  0000e000  2**2
                  CONTENTS, ALLOC, LOAD, DATA
  7 .bss          00002140  200000e0  0000c830  0000e0e0  2**4
                  ALLOC
  8 .stack        00000800  20007800  20007800  0000e800  2**0
                  ALLOC
  9 .debug_info   00027aad  00000000  00000000  0000e0dc  2**0
                  CONTENTS, READONLY, DEBUGGING
 10 .debug_abbrev 00005053  00000000  00000000  00035b89  2**0
                  CONTENTS, READONLY, DEBUGGING
 11 .debug_aranges 000010c8  00000000  00000000  0003abe0  2**3
                  CONTENTS, READONLY, DEBUGGING
 12 .debug_ranges 00003338  00000000  00000000  0003bca8  2**3
                  CONTENTS, READONLY, DEBUGGING
 13 .debug_line   0001f452  00000000  00000000  0003efe0  2**0
                  CONTENTS, READONLY, DEBUGGING
 14 .debug_str    00005110  00000000  00000000  0005e432  2**0
                  CONTENTS, READONLY, DEBUGGING
 15 .comment      00000033  00000000  00000000  00063542  2**0
                  CONTENTS, READONLY
 16 .debug_frame  00004210  00000000  00000000  00063578  2**2
                  CONTENTS, READONLY, DEBUGGING
 17 .debug_loc    0000f0e1  00000000  00000000  00067788  2**0
                  CONTENTS, READONLY, DEBUGGING
 18 .stab         000000b4  00000000  00000000  0007686c  2**2
                  CONTENTS, READONLY, DEBUGGING
 19 .stabstr      00000183  00000000  00000000  00076920  2**0
                  CONTENTS, READONLY, DEBUGGING
SYMBOL TABLE:
00000000 l    d  .init	00000000 .init
00000004 l    d  .vector	00000000 .vector
000001c0 l    d  .text	00000000 .text
0000c754 l    d  .fini	00000000 .fini
20000000 l    d  .dalign	00000000 .dalign
0000c754 l    d  .dlalign	00000000 .dlalign
20000000 l    d  .data	00000000 .data
200000e0 l    d  .bss	00000000 .bss
20007800 l    d  .stack	00000000 .stack
00000000 l    d  .debug_info	00000000 .debug_info
00000000 l    d  .debug_abbrev	00000000 .debug_abbrev
00000000 l    d  .debug_aranges	00000000 .debug_aranges
00000000 l    d  .debug_ranges	00000000 .debug_ranges
00000000 l    d  .debug_line	00000000 .debug_line
00000000 l    d  .debug_str	00000000 .debug_str
00000000 l    d  .comment	00000000 .comment
00000000 l    d  .debug_frame	00000000 .debug_frame
00000000 l    d  .debug_loc	00000000 .debug_loc
00000000 l    d  .stab	00000000 .stab
00000000 l    d  .stabstr	00000000 .stabstr
00000000 l    df *ABS*	00000000 ./Startup/startup_ch32v30x_D8C.o
00000004 l       .vector	00000000 _vector_base
00000000 l    df *ABS*	00000000 ch32v30x_it.c
00000000 l    df *ABS*	00000000 main.c
00000000 l    df *ABS*	00000000 system_ch32v30x.c
00000000 l    df *ABS*	00000000 ch32v30x_adc.c
00000000 l    df *ABS*	00000000 ch32v30x_gpio.c
00000000 l    df *ABS*	00000000 ch32v30x_misc.c
00000000 l    df *ABS*	00000000 ch32v30x_rcc.c
20000010 l     O .data	00000010 APBAHBPrescTable
200000c4 l     O .data	00000004 ADCPrescTable
00000000 l    df *ABS*	00000000 ch32v30x_spi.c
00000000 l    df *ABS*	00000000 ch32v30x_tim.c
00000000 l    df *ABS*	00000000 ch32v30x_usart.c
00000000 l    df *ABS*	00000000 hal_adc.c
200000f4 l     O .bss	00000001 adc_mutex
00000000 l    df *ABS*	00000000 hal_gpio.c
00000000 l    df *ABS*	00000000 hal_spi.c
00000000 l    df *ABS*	00000000 drv_oled.c
000013e0 l     F .text	000000a4 oled_write
20000020 l     O .data	00000010 dev_oled
0000a99c l     O .text	00000010 oled_ops
00000000 l    df *ABS*	00000000 drv_smarthome.c
000014dc l     F .text	0000001a led_write
000014f6 l     F .text	0000002a light_read
00001520 l     F .text	000000ba temp_read
20000030 l     O .data	00000010 dev_led
0000a9c0 l     O .text	00000010 led_ops
0000a9ac l     O .text	00000014 alarm_led_hw
20000040 l     O .data	00000010 dev_light
0000a9d0 l     O .text	00000010 light_ops
0000a9e0 l     O .text	0000000c light_sensor_hw
20000050 l     O .data	00000010 dev_temp
0000a9ec l     O .text	00000010 temp_ops
0000aa28 l     O .text	0000000c temp_sensor_hw
00000000 l    df *ABS*	00000000 drv_w25q80.c
00001620 l     F .text	00000014 SPI_FLASH_Write_Enable
00001634 l     F .text	00000020 SPI_Flash_Wait_Busy
00000000 l    df *ABS*	00000000 fs_port.c
00001796 l     F .text	00000004 lfs_w25qxx_sync
0000179a l     F .text	0000000e lfs_w25qxx_erase
000017a8 l     F .text	00000042 lfs_w25qxx_prog
000017ea l     F .text	0000001c lfs_w25qxx_read
00000000 l    df *ABS*	00000000 oled.c
00000000 l    df *ABS*	00000000 device.c
200000f8 l     O .bss	00000004 device_list_head
00000000 l    df *ABS*	00000000 mempool.c
200001f0 l     O .bss	00002000 stack_memory_pool
200000fc l     O .bss	00000004 free_list_head
00000000 l    df *ABS*	00000000 msgqueue.c
00000000 l    df *ABS*	00000000 mutex.c
00000000 l    df *ABS*	00000000 shadow.c
200021f0 l     O .bss	0000000c g_device_shadow
20000100 l     O .bss	00000001 shadow_mutex
00000000 l    df *ABS*	00000000 task.c
200021fc l     O .bss	00000020 task_list
20000104 l     O .bss	00000004 current_task
20000108 l     O .bss	00000001 current_task_idx
2000010c l     O .bss	00000004 main_sp
20000110 l     O .bss	00000001 task_count
00000000 l    df *ABS*	00000000 timer.c
20000118 l     O .bss	00000004 timer_list_head
00000000 l    df *ABS*	00000000 lfs.c
0000205a l     F .text	00000016 lfs_pair_isnull
00002070 l     F .text	00000024 lfs_pair_cmp
00002094 l     F .text	00000016 lfs_tag_dsize
000020aa l     F .text	0000001a lfs_gstate_xor
000020c4 l     F .text	00000016 lfs_gstate_iszero
000020da l     F .text	00000020 lfs_gstate_hasmovehere
000020fa l     F .text	00000010 lfs_mlist_isopen
0000210a l     F .text	0000002c lfs_alloc_lookahead
00002136 l     F .text	00000088 lfs_dir_traverse_filter
000021be l     F .text	00000018 lfs_dir_commit_size
000021d6 l     F .text	0000000a lfs_fs_size_count
000021e0 l     F .text	0000019e lfs_bd_read
0000237e l     F .text	00000180 lfs_dir_getslice
000024fe l     F .text	00000014 lfs_dir_get
00002512 l     F .text	00000034 lfs_dir_getgstate
00002546 l     F .text	0000003a lfs_fs_parent_match
00002580 l     F .text	00000030 lfs_deinit
000025b0 l     F .text	0000004a lfs_bd_erase
000025fa l     F .text	0000006c lfs_fs_preporphans.isra.25
00002666 l     F .text	0000001a lfs_cache_zero.isra.27
00002680 l     F .text	000003c2 lfs_init
00002a42 l     F .text	00000048 lfs_ctz_index.isra.29
00002a8a l     F .text	00000078 lfs_ctz_traverse.part.30
00002b02 l     F .text	00000096 lfs_ctz_find.constprop.41
00002b98 l     F .text	000000ac lfs_dir_getread.part.31.constprop.43
00002c44 l     F .text	000002ca lfs_dir_traverse.constprop.45
00002f0e l     F .text	00000068 lfs_bd_cmp.constprop.47
00002f76 l     F .text	00000038 lfs_dir_find_match
00002fae l     F .text	000000bc lfs_bd_flush
0000306a l     F .text	00000100 lfs_bd_prog
0000316a l     F .text	0000003a lfs_dir_commitprog
000031a4 l     F .text	000000a4 lfs_dir_commitattr
00003248 l     F .text	00000014 lfs_dir_commit_commit
0000325c l     F .text	0000003e lfs_bd_sync.constprop.46
0000329a l     F .text	0000005e lfs_bd_crc.constprop.48
000032f8 l     F .text	000001ba lfs_dir_commitcrc
000034b2 l     F .text	0000043c lfs_dir_fetchmatch
000038ee l     F .text	00000016 lfs_dir_fetch
00003904 l     F .text	00000176 lfs_dir_find
00003a7a l     F .text	0000002e lfs_path_islast
00003aa8 l     F .text	00000068 lfs_tortoise_detectcycles
00003b10 l     F .text	00000084 lfs_fs_parent
00003b94 l     F .text	00000060 lfs_fs_pred
00003bf4 l     F .text	000000f0 lfs_file_flushedread
00003ce4 l     F .text	0000014e lfs_fs_traverse_
00003e32 l     F .text	00000056 lfs_alloc_scan
00003e88 l     F .text	000000aa lfs_alloc
00003f32 l     F .text	0000007c lfs_dir_alloc.part.34
00003fae l     F .text	00000120 lfs_file_relocate
000040ce l     F .text	0000024e lfs_dir_compact
0000431c l     F .text	00000076 lfs_dir_split
00004392 l     F .text	00000022 lfs_fs_size_
000043b4 l     F .text	0000049c lfs_dir_relocatingcommit
00004850 l     F .text	0000027e lfs_file_flushedwrite
00004ace l     F .text	00000122 lfs_file_flush
00004bf0 l     F .text	000000a4 lfs_file_seek_
00004c94 l     F .text	000003aa lfs_dir_orphaningcommit
0000503e l     F .text	000001d0 lfs_fs_deorphan.part.36
0000520e l     F .text	00000026 lfs_dir_commit
00005234 l     F .text	00000148 lfs_fs_forceconsistency
0000537c l     F .text	000000ea lfs_file_sync_.part.40
00005466 l     F .text	0000005c lfs_file_close_
000054c2 l     F .text	00000260 lfs_file_opencfg_
00005722 l     F .text	000000bc lfs_file_write_
000058d4 l     F .text	0000000c lfs_unmount_
0000b4ec l     O .text	0000000c __func__.3667
0000b4f8 l     O .text	0000000d __func__.3713
0000b508 l     O .text	0000000c __func__.3724
0000b514 l     O .text	0000000c __func__.3736
0000b520 l     O .text	0000000d __func__.3746
0000b530 l     O .text	00000011 __func__.4023
0000b544 l     O .text	00000011 __func__.4107
0000b558 l     O .text	00000013 __func__.4156
0000b56c l     O .text	00000010 __func__.4339
0000b57c l     O .text	00000019 __func__.4379
0000b598 l     O .text	00000018 __func__.4436
0000b5b0 l     O .text	0000000f __func__.4684
0000b5c0 l     O .text	00000010 __func__.4712
0000b5d0 l     O .text	00000009 __func__.4846
0000b5dc l     O .text	0000000c __func__.4859
0000b5e8 l     O .text	00000013 __func__.4984
0000b5fc l     O .text	0000000e __func__.5001
0000b60c l     O .text	0000000e __func__.5132
0000b61c l     O .text	0000000f __func__.5147
0000b62c l     O .text	0000000e __func__.5161
0000b63c l     O .text	0000000f __func__.5170
0000b64c l     O .text	0000000c defaults.4608
00000000 l    df *ABS*	00000000 lfs_util.c
0000c364 l     O .text	00000040 rtable.3322
00000000 l    df *ABS*	00000000 debug.c
2000011c l     O .bss	00000002 p_ms
2000011e l     O .bss	00000001 p_us
200000c8 l     O .data	00000004 curbrk.5280
00000000 l    df *ABS*	00000000 w_log.c
00000000 l    df *ABS*	00000000 e_log.c
00000000 l    df *ABS*	00000000 s_matherr.c
00000000 l    df *ABS*	00000000 s_nan.c
00000000 l    df *ABS*	00000000 libgcc2.c
00000000 l    df *ABS*	00000000 libgcc2.c
00000000 l    df *ABS*	00000000 libgcc2.c
00000000 l    df *ABS*	00000000 libgcc2.c
00000000 l    df *ABS*	00000000 adddf3.c
00000000 l    df *ABS*	00000000 divdf3.c
00000000 l    df *ABS*	00000000 eqdf2.c
00000000 l    df *ABS*	00000000 gedf2.c
00000000 l    df *ABS*	00000000 muldf3.c
00000000 l    df *ABS*	00000000 subdf3.c
00000000 l    df *ABS*	00000000 unorddf2.c
00000000 l    df *ABS*	00000000 floatsidf.c
00000000 l    df *ABS*	00000000 divsf3.c
00000000 l    df *ABS*	00000000 eqsf2.c
00000000 l    df *ABS*	00000000 gesf2.c
00000000 l    df *ABS*	00000000 lesf2.c
00000000 l    df *ABS*	00000000 mulsf3.c
00000000 l    df *ABS*	00000000 subsf3.c
00000000 l    df *ABS*	00000000 fixsfsi.c
00000000 l    df *ABS*	00000000 floatsisf.c
00000000 l    df *ABS*	00000000 floatunsisf.c
00000000 l    df *ABS*	00000000 extendsfdf2.c
00000000 l    df *ABS*	00000000 truncdfsf2.c
00000000 l    df *ABS*	00000000 assert.c
00000000 l    df *ABS*	00000000 errno.c
00000000 l    df *ABS*	00000000 fprintf.c
00000000 l    df *ABS*	00000000 malloc.c
00000000 l    df *ABS*	00000000 memcmp.c
00000000 l    df *ABS*	00000000 memcpy.c
00000000 l    df *ABS*	00000000 nano-mallocr.c
00000000 l    df *ABS*	00000000 nano-mallocr.c
00000000 l    df *ABS*	00000000 nano-vfprintf.c
0000904e l     F .text	00000028 __sfputc_r
00000000 l    df *ABS*	00000000 nano-vfprintf_i.c
00000000 l    df *ABS*	00000000 printf.c
00000000 l    df *ABS*	00000000 puts.c
00000000 l    df *ABS*	00000000 sbrkr.c
00000000 l    df *ABS*	00000000 sprintf.c
00000000 l    df *ABS*	00000000 strcspn.c
00000000 l    df *ABS*	00000000 strspn.c
00000000 l    df *ABS*	00000000 wbuf.c
00000000 l    df *ABS*	00000000 wsetup.c
00000000 l    df *ABS*	00000000 abort.c
00000000 l    df *ABS*	00000000 fflush.c
00000000 l    df *ABS*	00000000 findfp.c
00009c2c l     F .text	00000066 std
00000000 l    df *ABS*	00000000 fwalk.c
00000000 l    df *ABS*	00000000 makebuf.c
00000000 l    df *ABS*	00000000 memchr.c
00000000 l    df *ABS*	00000000 memmove.c
00000000 l    df *ABS*	00000000 mlock.c
00000000 l    df *ABS*	00000000 nano-mallocr.c
00000000 l    df *ABS*	00000000 nano-vfprintf.c
00000000 l    df *ABS*	00000000 signal.c
00000000 l    df *ABS*	00000000 signalr.c
00000000 l    df *ABS*	00000000 stdio.c
00000000 l    df *ABS*	00000000 writer.c
00000000 l    df *ABS*	00000000 closer.c
00000000 l    df *ABS*	00000000 fstatr.c
00000000 l    df *ABS*	00000000 isattyr.c
00000000 l    df *ABS*	00000000 lseekr.c
00000000 l    df *ABS*	00000000 nano-mallocr.c
00000000 l    df *ABS*	00000000 readr.c
00000000 l    df *ABS*	00000000 close.c
00000000 l    df *ABS*	00000000 fstat.c
00000000 l    df *ABS*	00000000 getpid.c
00000000 l    df *ABS*	00000000 isatty.c
00000000 l    df *ABS*	00000000 kill.c
00000000 l    df *ABS*	00000000 lseek.c
00000000 l    df *ABS*	00000000 read.c
00000000 l    df *ABS*	00000000 _exit.c
00000000 l    df *ABS*	00000000 libgcc2.c
00000000 l    df *ABS*	00000000 impure.c
20000060 l     O .data	00000060 impure_data
00000000 l    df *ABS*	00000000 s_lib_ver.c
00000000 l    df *ABS*	00000000 reent.c
0000a594 g     F .text	00000014 _malloc_usable_size_r
00000986  w      .text	00000000 EXTI2_IRQHandler
00000986  w      .text	00000000 TIM8_TRG_COM_IRQHandler
00000986  w      .text	00000000 TIM8_CC_IRQHandler
0000a530 g     F .text	00000030 _isatty_r
20000154 g     O .bss	00000014 temp_queue_buffer
0000a5fc g     F .text	00000010 _getpid
00009736 g     F .text	000000d4 _puts_r
0000a560 g     F .text	00000034 _lseek_r
00005e50 g     F .text	00000112 log
00000986  w      .text	00000000 UART8_IRQHandler
0000716e g     F .text	0000006a .hidden __eqdf2
000057de g     F .text	000000f6 lfs_format
00001484 g     F .text	00000058 drv_oled_register
0000a3ba g     F .text	00000032 _kill_r
00001e2c g     F .text	00000022 os_shadow_update_led
000096f6 g     F .text	00000040 printf
200008c0 g       .data	00000000 __global_pointer$
0000020a g     F .text	00000028 .hidden __riscv_save_8
00000986  w      .text	00000000 TIM1_CC_IRQHandler
000016b0 g     F .text	00000050 drv_w25qxx_read
0000a462 g     F .text	00000030 __sseek
00009ce4 g     F .text	0000006c __sinit
00000f42 g     F .text	00000004 SPI_I2S_SendData
000098ca g     F .text	000000bc __swbuf_r
0000030c g     F .text	00000010 HardFault_Handler
00001670 g     F .text	00000040 drv_w25qxx_init
00009c9c g     F .text	00000048 __sfmoreglue
00001a2e g     F .text	00000024 OLED_Set_Pos
00009fa2 g     F .text	00000002 __malloc_unlock
00000256 g     F .text	0000000c .hidden __riscv_restore_3
00000986  w      .text	00000000 TIM6_IRQHandler
00007f2a g     F .text	000002b2 .hidden __divsf3
00000986  w      .text	00000000 SysTick_Handler
00000ace g     F .text	0000000a ADC_StartCalibration
00000cac g     F .text	0000005c NVIC_Init
00001754 g     F .text	00000042 drv_w25qxx_erase_sector
00000986  w      .text	00000000 PVD_IRQHandler
00000986  w      .text	00000000 SDIO_IRQHandler
000012ac g     F .text	00000034 os_hal_gpio_init
00009f5a g     F .text	00000046 memmove
00000986  w      .text	00000000 TIM9_BRK_IRQHandler
00000242 g     F .text	00000020 .hidden __riscv_restore_10
000058d4 g     F .text	0000000c lfs_unmount
00000f46 g     F .text	00000004 SPI_I2S_ReceiveData
00000986  w      .text	00000000 DMA2_Channel8_IRQHandler
0000030a g     F .text	00000002 NMI_Handler
00008968 g     F .text	00000062 .hidden __fixsfsi
00000986  w      .text	00000000 CAN2_RX1_IRQHandler
00000986  w      .text	00000000 EXTI3_IRQHandler
0000020a g     F .text	00000028 .hidden __riscv_save_11
00001ce2 g     F .text	0000001c os_device_write
000071d8 g     F .text	000000ae .hidden __gtdf2
00008db4 g     F .text	00000008 __errno
00000986  w      .text	00000000 USBHS_IRQHandler
0000114a g     F .text	0000000a USART_GetFlagStatus
00000986  w      .text	00000000 DMA2_Channel9_IRQHandler
0000a4fe g     F .text	00000032 _fstat_r
00000986  w      .text	00000000 TIM10_CC_IRQHandler
2000221c g     O .bss	00000004 errno
200000e0 g       .bss	00000000 _sbss
00000800 g       *ABS*	00000000 __stack_size
00000bb8 g     F .text	0000000a ADC_GetFlagStatus
00005d8e g     F .text	0000005a USART_Printf_Init
000085de g     F .text	0000038a .hidden __subsf3
00000986  w      .text	00000000 USBFS_IRQHandler
20000144 g     O .bss	00000010 temp_msg_queue
200000ec g     O .bss	00000004 task4
00000256 g     F .text	0000000c .hidden __riscv_restore_2
00006466 g     F .text	00000024 .hidden __bswapsi2
00001394 g     F .text	0000001c os_hal_spi_cs
00001932 g     F .text	00000032 IIC_Stop
0000128a g     F .text	00000022 os_hal_gpio_set
00008e1a g     F .text	000000b2 memcpy
00000aac g     F .text	00000010 ADC_Cmd
00001b56 g     F .text	000000dc OLED_Init
00009c92 g     F .text	0000000a _cleanup_r
0000198a g     F .text	0000005e Write_IIC_Byte
0000a0e0 g     F .text	0000026c _svfprintf_r
00007eb8 g     F .text	00000072 .hidden __floatsidf
00000986  w      .text	00000000 EXTI0_IRQHandler
00005c92 g     F .text	00000048 lfs_file_write
00000986  w      .text	00000000 I2C2_EV_IRQHandler
00000986  w      .text	00000000 TIM10_TRG_COM_IRQHandler
00005cda g     F .text	00000016 lfs_file_rewind
00001042 g     F .text	00000018 TIM_Cmd
0000980a g     F .text	0000000c puts
200000c0 g     O .data	00000004 SystemCoreClock
00001f90 g     F .text	0000001c os_timer_init
00008de2 g     F .text	0000000a malloc
0000a34c g     F .text	00000062 _raise_r
0000a5ec g     F .text	00000010 _fstat
00008d7a g     F .text	0000003a __assert_func
00000004 g       .init	00000000 _einit
00001084 g     F .text	0000000c TIM_ClearITPendingBit
00001eba g     F .text	00000038 task_yield
00001d9e g     F .text	00000024 os_mq_init
000082be g     F .text	0000008c .hidden __lesf2
00000e90 g     F .text	0000001e RCC_APB2PeriphClockCmd
00000202 g     F .text	00000030 .hidden __riscv_save_12
00000986  w      .text	00000000 CAN2_SCE_IRQHandler
00001654 g     F .text	0000001c drv_w25qxx_unprotect
00000986  w      .text	00000000 ADC1_2_IRQHandler
0000a3ec g     F .text	00000002 _getpid_r
00000bda g     F .text	000000c0 GPIO_Init
00000d08 g     F .text	00000012 RCC_ADCCLKConfig
00000986  w      .text	00000000 Break_Point_Handler
00000242 g     F .text	00000020 .hidden __riscv_restore_11
200000f0 g     O .bss	00000004 NVIC_Priority_Group
00000986  w      .text	00000000 SPI1_IRQHandler
00000abc g     F .text	0000000a ADC_ResetCalibration
0000112c g     F .text	00000016 USART_Cmd
00009816 g     F .text	00000032 _sbrk_r
00000986  w      .text	00000000 TAMPER_IRQHandler
00000232 g     F .text	0000000c .hidden __riscv_save_1
00000256 g     F .text	0000000c .hidden __riscv_restore_0
0000a5a8 g     F .text	00000034 _read_r
00000218 g     F .text	0000001a .hidden __riscv_save_7
00000986  w      .text	00000000 CAN2_RX0_IRQHandler
00008b62 g     F .text	000000ae .hidden __extendsfdf2
000012e0 g     F .text	000000b4 os_hal_spi_init
00000986  w      .text	00000000 TIM8_UP_IRQHandler
00000eae g     F .text	0000001e RCC_APB1PeriphClockCmd
0000648a g     F .text	00000730 .hidden __adddf3
000081dc g     F .text	0000005c .hidden __nesf2
00000986  w      .text	00000000 Ecall_M_Mode_Handler
20007800 g       .stack	00000000 _heap_end
0000a60c g     F .text	00000010 _isatty
200000cc g     O .data	00000004 __fdlib_version
00001dec g     F .text	00000022 os_shadow_init
200000d4 g     O .data	00000004 _global_impure_ptr
0000024c g     F .text	00000016 .hidden __riscv_restore_5
00001c32 g     F .text	00000058 os_device_register
00009fa4 g     F .text	00000058 _realloc_r
00000f4a g     F .text	0000000a SPI_I2S_GetFlagStatus
00000986  w      .text	00000000 DMA2_Channel2_IRQHandler
00000986  w      .text	00000000 DMA1_Channel4_IRQHandler
00000af8 g     F .text	000000b8 ADC_RegularChannelConfig
00009a84 g     F .text	00000010 abort
00005e26 g     F .text	0000002a _sbrk
00000bb0 g     F .text	00000008 ADC_GetConversionValue
0000aea8 g     O .text	000005f0 F8X16
00000986  w      .text	00000000 TIM9_UP_IRQHandler
0000024c g     F .text	00000016 .hidden __riscv_restore_6
00000986  w      .text	00000000 USART3_IRQHandler
00001fe0 g     F .text	0000000c os_timer_stop
00000986  w      .text	00000000 RTC_IRQHandler
00000ad8 g     F .text	00000008 ADC_GetCalibrationStatus
20002220 g       .bss	00000000 _ebss
00000986  w      .text	00000000 DMA1_Channel7_IRQHandler
000011fc g     F .text	00000028 os_hal_adc_channel_init
00000ae0 g     F .text	00000018 ADC_SoftwareStartConvCmd
00000ac6 g     F .text	00000008 ADC_GetResetCalibrationStatus
00001a84 g     F .text	00000092 OLED_ShowChar
00000986  w      .text	00000000 CAN1_RX1_IRQHandler
00001f1a g     F .text	00000076 os_tick_hardware_init
00005d2e g     F .text	0000002a Delay_Init
00000986  w      .text	00000000 DVP_IRQHandler
00000986  w      .text	00000000 UART5_IRQHandler
00008238 g     F .text	00000086 .hidden __gtsf2
00008dbc g     F .text	00000026 fprintf
00000c9a g     F .text	00000004 GPIO_SetBits
00000986  w      .text	00000000 TIM4_IRQHandler
00001b16 g     F .text	00000040 OLED_ShowString
20000168 g     O .bss	00000080 lfs
0000020a g     F .text	00000028 .hidden __riscv_save_9
00000ca2 g     F .text	0000000a GPIO_WriteBit
00001fec g     F .text	0000004a os_timer_ticks_update
00000986  w      .text	00000000 DMA2_Channel1_IRQHandler
00006424 g     F .text	00000042 .hidden __popcountsi2
00001224 g     F .text	00000066 os_hal_adc_read
0000c6f4 g     O .text	00000020 __sf_fake_stderr
00000218 g     F .text	0000001a .hidden __riscv_save_4
00000986  w      .text	00000000 I2C1_EV_IRQHandler
0000040c g     F .text	000000e6 task3_entry
00009ffc g     F .text	000000e4 __ssputs_r
0000106c g     F .text	00000018 TIM_GetITStatus
00000d1a g     F .text	00000176 RCC_GetClocksFreq
00000986  w      .text	00000000 DMA1_Channel6_IRQHandler
0000634c g     F .text	0000006e .hidden __clzsi2
00009076 g     F .text	00000042 __sfputs_r
00000986  w      .text	00000000 UART4_IRQHandler
00000986  w      .text	00000000 DMA2_Channel4_IRQHandler
00009f42 g     F .text	00000018 memchr
200000e0 g     O .bss	00000004 task1
00001090 g     F .text	0000009c USART_Init
00008ecc g     F .text	000000a8 _free_r
00000986  w      .text	00000000 TIM3_IRQHandler
00000986  w      .text	00000000 RCC_IRQHandler
00000232 g     F .text	0000000c .hidden __riscv_save_3
00000986  w      .text	00000000 TIM1_TRG_COM_IRQHandler
000015da g     F .text	00000046 drv_smarthome_init
00000986  w      .text	00000000 DMA1_Channel1_IRQHandler
00000000 g       .init	00000000 _start
200000e4 g     O .bss	00000004 task2
00000986  w      .text	00000000 DMA2_Channel7_IRQHandler
20000000 g     O .data	00000010 AHBPrescTable
000004f2 g     F .text	000000b4 task4_entry
000005a6 g     F .text	0000009e test_littlefs_boot_counter
0000a62c g     F .text	00000010 _lseek
00001dc8 g     F .text	0000001e mutex_lock
000089ca g     F .text	000000c8 .hidden __floatsisf
00000986  w      .text	00000000 EXTI15_10_IRQHandler
0000105a g     F .text	00000012 TIM_ITConfig
00001700 g     F .text	00000054 drv_w25qxx_write_page
000081dc g     F .text	0000005c .hidden __eqsf2
0000aa34 g     O .text	00000054 cfg
00000c9e g     F .text	00000004 GPIO_ResetBits
00000986  w      .text	00000000 TIM7_IRQHandler
0000a4ce g     F .text	00000030 _close_r
00000986  w      .text	00000000 CAN2_TX_IRQHandler
20000000 g       .dalign	00000000 _data_vma
00000986  w      .text	00000000 TIM5_IRQHandler
00008df6 g     F .text	00000024 memcmp
000018f4 g     F .text	0000003e IIC_Start
00009986 g     F .text	000000fe __swsetup_r
20000128 g     O .bss	0000001c led_auto_off_timer
00001dc2 g     F .text	00000006 mutex_init
00000986  w      .text	00000000 EXTI9_5_IRQHandler
00006bba g     F .text	000005b4 .hidden __divdf3
00009d50 g     F .text	000000a0 __sfp
00001cc6 g     F .text	0000001c os_device_read
00007286 g     F .text	000004b8 .hidden __muldf3
0000020a g     F .text	00000028 .hidden __riscv_save_10
0000a3ee g     F .text	0000002c __sread
00005bd4 g     F .text	0000003c lfs_file_close
00000986  w      .text	00000000 ETH_WKUP_IRQHandler
00009fa0 g     F .text	00000002 __malloc_lock
0000024c g     F .text	00000016 .hidden __riscv_restore_4
00000242 g     F .text	00000020 .hidden __riscv_restore_8
00009bc6 g     F .text	00000066 _fflush_r
00000218 g     F .text	0000001a .hidden __riscv_save_6
00001a52 g     F .text	00000032 OLED_Clear
00000986  w      .text	00000000 SPI2_IRQHandler
0000c714 g     O .text	00000020 __sf_fake_stdin
00000262 g     F .text	000000a8 memset
00000242 g     F .text	00000020 .hidden __riscv_restore_9
0000024c g     F .text	00000016 .hidden __riscv_restore_7
00000644 g     F .text	0000011a main
00000986  w      .text	00000000 TIM10_BRK_IRQHandler
000082be g     F .text	0000008c .hidden __ltsf2
00000986  w      .text	00000000 TIM9_CC_IRQHandler
0000a492 g     F .text	00000006 __sclose
0000633a g     F .text	00000004 matherr
00000986  w      .text	00000000 DMA2_Channel5_IRQHandler
00008c10 g     F .text	0000016a .hidden __truncdfsf2
00008f74 g     F .text	000000da _malloc_r
0000033e g     F .text	0000002c led_auto_off_callback
00000986  w      .text	00000000 DMA1_Channel5_IRQHandler
00000986  w      .text	00000000 EXTI4_IRQHandler
00005d58 g     F .text	00000036 Delay_Ms
00000986  w      .text	00000000 USB_LP_CAN1_RX0_IRQHandler
0000834a g     F .text	00000294 .hidden __mulsf3
00002036 g     F .text	00000024 os_delay
00000bc2 g     F .text	00000018 ADC_BufferCmd
00000f28 g     F .text	0000001a SPI_Cmd
0000075e g     F .text	000000fa SystemInit
00000986  w      .text	00000000 RNG_IRQHandler
000019e8 g     F .text	00000022 Write_IIC_Command
0000716e g     F .text	0000006a .hidden __nedf2
000096f6 g     F .text	00000040 iprintf
00001c8a g     F .text	0000003c os_device_open
00000986  w      .text	00000000 USB_HP_CAN1_TX_IRQHandler
00001cfe g     F .text	0000007c stack_pool_init
00009848 g     F .text	00000046 sprintf
0000c578 g     O .text	00000100 .hidden __clz_tab
00000000 g       .init	00000000 _sinit
0000036a g     F .text	00000076 task1_entry
00008238 g     F .text	00000086 .hidden __gesf2
0000988e g     F .text	0000001e strcspn
0000a498 g     F .text	00000036 _write_r
000013b0 g     F .text	00000030 os_hal_spi_rw_byte
000001c0 g       .text	00000000 cpu_switch
00000986  w      .text	00000000 DMA1_Channel3_IRQHandler
0000ac80 g     O .text	00000228 F6x8
00000986  w      .text	00000000 ETH_IRQHandler
00009346 g     F .text	0000010c _printf_common
200000d0 g     O .data	00000004 _impure_ptr
00000986  w      .text	00000000 TIM1_UP_IRQHandler
00009a94 g     F .text	00000132 __sflush_r
00001e98 g     F .text	00000022 task_register
00005f62 g     F .text	000003d8 __ieee754_log
00001de6 g     F .text	00000006 mutex_unlock
0000a0e0 g     F .text	0000026c _svfiprintf_r
00000986  w      .text	00000000 WWDG_IRQHandler
00000986  w      .text	00000000 USBHSWakeup_IRQHandler
00000986  w      .text	00000000 DMA2_Channel11_IRQHandler
00000986  w      .text	00000000 Ecall_U_Mode_Handler
00000986  w      .text	00000000 DMA2_Channel6_IRQHandler
0000031c g     F .text	00000022 TIM2_IRQHandler
00001ef2 g     F .text	00000028 os_start
20008000 g       .stack	00000000 _eusrstack
00001964 g     F .text	00000026 IIC_Wait_Ack
00000232 g     F .text	0000000c .hidden __riscv_save_2
00000986  w      .text	00000000 SW_Handler
0000633e g     F .text	0000000e nan
00000a16 g     F .text	00000040 ADC_DeInit
00005cf0 g     F .text	0000003e lfs_crc
00000986  w      .text	00000000 TIM1_BRK_IRQHandler
00009e5a g     F .text	00000056 __swhatbuf_r
00000a56 g     F .text	00000056 ADC_Init
00001142 g     F .text	00000008 USART_SendData
00000986  w      .text	00000000 DMA2_Channel10_IRQHandler
00000986  w      .text	00000000 EXTI1_IRQHandler
000063ba g     F .text	0000006a .hidden __ctzsi2
00000218 g     F .text	0000001a .hidden __riscv_save_5
00005de8 g     F .text	0000003e _write
200000dc g       .data	00000000 _edata
20002220 g       .bss	00000000 _end
00000f54 g     F .text	000000ee TIM_TimeBaseInit
00000986  w      .text	00000000 RTCAlarm_IRQHandler
00005b86 g     F .text	0000004e lfs_file_open
0000c754 g       .dlalign	00000000 _data_lma
00000986  w      .text	00000000 TIM10_UP_IRQHandler
00000986  w      .text	00000000 TIM9_TRG_COM_IRQHandler
00000986  w      .text	00000000 UART7_IRQHandler
00000986  w      .text	00000000 USART2_IRQHandler
00000986  w      .text	00000000 UART6_IRQHandler
0000a41a g     F .text	00000048 __swrite
00001d7a g     F .text	00000024 stack_pool_alloc
00008dbc g     F .text	00000026 fiprintf
000090b8 g     F .text	0000028e _vfiprintf_r
00009df0 g     F .text	0000006a _fwalk_reent
00000858 g     F .text	0000012e SystemCoreClockUpdate
00008a92 g     F .text	000000d0 .hidden __floatunsisf
00001a0a g     F .text	00000024 Write_IIC_Data
0000a61c g     F .text	00000010 _kill
00000986  w      .text	00000000 I2C2_ER_IRQHandler
00000986  w      .text	00000000 DMA1_Channel2_IRQHandler
0000c734 g     O .text	00000020 __sf_fake_stdout
00009848 g     F .text	00000046 siprintf
20000114 g     O .bss	00000004 g_os_tick
0000023e g     F .text	00000024 .hidden __riscv_restore_12
00000986  w      .text	00000000 TIM8_BRK_IRQHandler
0000a63c g     F .text	00000010 _read
00007e7c g     F .text	0000003c .hidden __unorddf2
00000988  w      .text	00000000 handle_reset
00000986  w      .text	00000000 CAN1_SCE_IRQHandler
00000986  w      .text	00000000 FLASH_IRQHandler
00000232 g     F .text	0000000c .hidden __riscv_save_0
00001fac g     F .text	00000034 os_timer_start
0000a64c g     F .text	00000002 _exit
000058e0 g     F .text	000002a6 lfs_mount
000098ac g     F .text	0000001e strspn
00000986  w      .text	00000000 USART1_IRQHandler
00009eb0 g     F .text	00000092 __smakebuf_r
00001e7c g     F .text	0000001c task_init
00009452 g     F .text	000002a4 _printf_i
00000986  w      .text	00000000 SPI3_IRQHandler
00001154 g     F .text	000000a8 os_hal_adc_core_init
000071d8 g     F .text	000000ae .hidden __gedf2
20000124 g     O .bss	00000004 __malloc_sbrk_start
00001806 g     F .text	000000ee drv_fs_init
00000ecc g     F .text	0000001e RCC_APB2PeriphResetCmd
00000986  w      .text	00000000 I2C1_ER_IRQHandler
00000eea g     F .text	0000003e SPI_Init
00005c10 g     F .text	00000082 lfs_file_read
00001e0e g     F .text	0000001e os_shadow_update_temp
20000120 g     O .bss	00000004 __malloc_free_list
200000e8 g     O .bss	00000004 task3
00001e4e g     F .text	0000002e os_shadow_get_snapshot
00000256 g     F .text	0000000c .hidden __riscv_restore_1
000003e0 g     F .text	0000002c task2_entry
0000773e g     F .text	0000073e .hidden __subdf3
000090b8 g     F .text	0000028e _vfprintf_r
00000986  w      .text	00000000 USBWakeUp_IRQHandler
0000a5dc g     F .text	00000010 _close
0000a3ae g     F .text	0000000c raise
00008dec g     F .text	0000000a free
00000986  w      .text	00000000 DMA2_Channel3_IRQHandler



Disassembly of section .init:

00000000 <_sinit>:
   0:	1890006f          	j	988 <handle_reset>

Disassembly of section .vector:

00000004 <_vector_base>:
	...
   c:	030a                	slli	t1,t1,0x2
   e:	0000                	unimp
  10:	030c                	addi	a1,sp,384
  12:	0000                	unimp
  14:	0000                	unimp
  16:	0000                	unimp
  18:	0986                	slli	s3,s3,0x1
	...
  22:	0000                	unimp
  24:	0986                	slli	s3,s3,0x1
  26:	0000                	unimp
  28:	0986                	slli	s3,s3,0x1
	...
  32:	0000                	unimp
  34:	0986                	slli	s3,s3,0x1
  36:	0000                	unimp
  38:	0000                	unimp
  3a:	0000                	unimp
  3c:	0986                	slli	s3,s3,0x1
  3e:	0000                	unimp
  40:	0000                	unimp
  42:	0000                	unimp
  44:	0986                	slli	s3,s3,0x1
  46:	0000                	unimp
  48:	0986                	slli	s3,s3,0x1
  4a:	0000                	unimp
  4c:	0986                	slli	s3,s3,0x1
  4e:	0000                	unimp
  50:	0986                	slli	s3,s3,0x1
  52:	0000                	unimp
  54:	0986                	slli	s3,s3,0x1
  56:	0000                	unimp
  58:	0986                	slli	s3,s3,0x1
  5a:	0000                	unimp
  5c:	0986                	slli	s3,s3,0x1
  5e:	0000                	unimp
  60:	0986                	slli	s3,s3,0x1
  62:	0000                	unimp
  64:	0986                	slli	s3,s3,0x1
  66:	0000                	unimp
  68:	0986                	slli	s3,s3,0x1
  6a:	0000                	unimp
  6c:	0986                	slli	s3,s3,0x1
  6e:	0000                	unimp
  70:	0986                	slli	s3,s3,0x1
  72:	0000                	unimp
  74:	0986                	slli	s3,s3,0x1
  76:	0000                	unimp
  78:	0986                	slli	s3,s3,0x1
  7a:	0000                	unimp
  7c:	0986                	slli	s3,s3,0x1
  7e:	0000                	unimp
  80:	0986                	slli	s3,s3,0x1
  82:	0000                	unimp
  84:	0986                	slli	s3,s3,0x1
  86:	0000                	unimp
  88:	0986                	slli	s3,s3,0x1
  8a:	0000                	unimp
  8c:	0986                	slli	s3,s3,0x1
  8e:	0000                	unimp
  90:	0986                	slli	s3,s3,0x1
  92:	0000                	unimp
  94:	0986                	slli	s3,s3,0x1
  96:	0000                	unimp
  98:	0986                	slli	s3,s3,0x1
  9a:	0000                	unimp
  9c:	0986                	slli	s3,s3,0x1
  9e:	0000                	unimp
  a0:	0986                	slli	s3,s3,0x1
  a2:	0000                	unimp
  a4:	0986                	slli	s3,s3,0x1
  a6:	0000                	unimp
  a8:	0986                	slli	s3,s3,0x1
  aa:	0000                	unimp
  ac:	0986                	slli	s3,s3,0x1
  ae:	0000                	unimp
  b0:	0986                	slli	s3,s3,0x1
  b2:	0000                	unimp
  b4:	031c                	addi	a5,sp,384
  b6:	0000                	unimp
  b8:	0986                	slli	s3,s3,0x1
  ba:	0000                	unimp
  bc:	0986                	slli	s3,s3,0x1
  be:	0000                	unimp
  c0:	0986                	slli	s3,s3,0x1
  c2:	0000                	unimp
  c4:	0986                	slli	s3,s3,0x1
  c6:	0000                	unimp
  c8:	0986                	slli	s3,s3,0x1
  ca:	0000                	unimp
  cc:	0986                	slli	s3,s3,0x1
  ce:	0000                	unimp
  d0:	0986                	slli	s3,s3,0x1
  d2:	0000                	unimp
  d4:	0986                	slli	s3,s3,0x1
  d6:	0000                	unimp
  d8:	0986                	slli	s3,s3,0x1
  da:	0000                	unimp
  dc:	0986                	slli	s3,s3,0x1
  de:	0000                	unimp
  e0:	0986                	slli	s3,s3,0x1
  e2:	0000                	unimp
  e4:	0986                	slli	s3,s3,0x1
  e6:	0000                	unimp
  e8:	0986                	slli	s3,s3,0x1
  ea:	0000                	unimp
  ec:	0986                	slli	s3,s3,0x1
  ee:	0000                	unimp
  f0:	0986                	slli	s3,s3,0x1
  f2:	0000                	unimp
  f4:	0986                	slli	s3,s3,0x1
  f6:	0000                	unimp
  f8:	0986                	slli	s3,s3,0x1
  fa:	0000                	unimp
  fc:	0986                	slli	s3,s3,0x1
  fe:	0000                	unimp
 100:	0986                	slli	s3,s3,0x1
 102:	0000                	unimp
 104:	0000                	unimp
 106:	0000                	unimp
 108:	0986                	slli	s3,s3,0x1
 10a:	0000                	unimp
 10c:	0986                	slli	s3,s3,0x1
 10e:	0000                	unimp
 110:	0986                	slli	s3,s3,0x1
 112:	0000                	unimp
 114:	0986                	slli	s3,s3,0x1
 116:	0000                	unimp
 118:	0986                	slli	s3,s3,0x1
 11a:	0000                	unimp
 11c:	0986                	slli	s3,s3,0x1
 11e:	0000                	unimp
 120:	0986                	slli	s3,s3,0x1
 122:	0000                	unimp
 124:	0986                	slli	s3,s3,0x1
 126:	0000                	unimp
 128:	0986                	slli	s3,s3,0x1
 12a:	0000                	unimp
 12c:	0986                	slli	s3,s3,0x1
 12e:	0000                	unimp
 130:	0986                	slli	s3,s3,0x1
 132:	0000                	unimp
 134:	0986                	slli	s3,s3,0x1
 136:	0000                	unimp
 138:	0986                	slli	s3,s3,0x1
 13a:	0000                	unimp
 13c:	0986                	slli	s3,s3,0x1
 13e:	0000                	unimp
 140:	0986                	slli	s3,s3,0x1
 142:	0000                	unimp
 144:	0986                	slli	s3,s3,0x1
 146:	0000                	unimp
 148:	0986                	slli	s3,s3,0x1
 14a:	0000                	unimp
 14c:	0986                	slli	s3,s3,0x1
 14e:	0000                	unimp
 150:	0986                	slli	s3,s3,0x1
 152:	0000                	unimp
 154:	0986                	slli	s3,s3,0x1
 156:	0000                	unimp
 158:	0986                	slli	s3,s3,0x1
 15a:	0000                	unimp
 15c:	0986                	slli	s3,s3,0x1
 15e:	0000                	unimp
 160:	0986                	slli	s3,s3,0x1
 162:	0000                	unimp
 164:	0986                	slli	s3,s3,0x1
 166:	0000                	unimp
 168:	0986                	slli	s3,s3,0x1
 16a:	0000                	unimp
 16c:	0986                	slli	s3,s3,0x1
 16e:	0000                	unimp
 170:	0986                	slli	s3,s3,0x1
 172:	0000                	unimp
 174:	0986                	slli	s3,s3,0x1
 176:	0000                	unimp
 178:	0986                	slli	s3,s3,0x1
 17a:	0000                	unimp
 17c:	0986                	slli	s3,s3,0x1
 17e:	0000                	unimp
 180:	0986                	slli	s3,s3,0x1
 182:	0000                	unimp
 184:	0986                	slli	s3,s3,0x1
 186:	0000                	unimp
 188:	0986                	slli	s3,s3,0x1
 18a:	0000                	unimp
 18c:	0986                	slli	s3,s3,0x1
 18e:	0000                	unimp
 190:	0986                	slli	s3,s3,0x1
 192:	0000                	unimp
 194:	0986                	slli	s3,s3,0x1
 196:	0000                	unimp
 198:	0986                	slli	s3,s3,0x1
 19a:	0000                	unimp
 19c:	0986                	slli	s3,s3,0x1
 19e:	0000                	unimp
 1a0:	0986                	slli	s3,s3,0x1
	...

Disassembly of section .text:

000001c0 <cpu_switch>:
     1c0:	7139                	addi	sp,sp,-64
     1c2:	c006                	sw	ra,0(sp)
     1c4:	c222                	sw	s0,4(sp)
     1c6:	c426                	sw	s1,8(sp)
     1c8:	c64a                	sw	s2,12(sp)
     1ca:	c84e                	sw	s3,16(sp)
     1cc:	ca52                	sw	s4,20(sp)
     1ce:	cc56                	sw	s5,24(sp)
     1d0:	ce5a                	sw	s6,28(sp)
     1d2:	d05e                	sw	s7,32(sp)
     1d4:	d262                	sw	s8,36(sp)
     1d6:	d466                	sw	s9,40(sp)
     1d8:	d66a                	sw	s10,44(sp)
     1da:	d86e                	sw	s11,48(sp)
     1dc:	00252023          	sw	sp,0(a0)
     1e0:	0005a103          	lw	sp,0(a1)
     1e4:	4082                	lw	ra,0(sp)
     1e6:	4412                	lw	s0,4(sp)
     1e8:	44a2                	lw	s1,8(sp)
     1ea:	4932                	lw	s2,12(sp)
     1ec:	49c2                	lw	s3,16(sp)
     1ee:	4a52                	lw	s4,20(sp)
     1f0:	4ae2                	lw	s5,24(sp)
     1f2:	4b72                	lw	s6,28(sp)
     1f4:	5b82                	lw	s7,32(sp)
     1f6:	5c12                	lw	s8,36(sp)
     1f8:	5ca2                	lw	s9,40(sp)
     1fa:	5d32                	lw	s10,44(sp)
     1fc:	5dc2                	lw	s11,48(sp)
     1fe:	6121                	addi	sp,sp,64
     200:	8082                	ret

00000202 <__riscv_save_12>:
     202:	7139                	addi	sp,sp,-64
     204:	4301                	li	t1,0
     206:	c66e                	sw	s11,12(sp)
     208:	a019                	j	20e <__riscv_save_10+0x4>

0000020a <__riscv_save_10>:
     20a:	7139                	addi	sp,sp,-64
     20c:	5341                	li	t1,-16
     20e:	c86a                	sw	s10,16(sp)
     210:	ca66                	sw	s9,20(sp)
     212:	cc62                	sw	s8,24(sp)
     214:	ce5e                	sw	s7,28(sp)
     216:	a019                	j	21c <__riscv_save_4+0x4>

00000218 <__riscv_save_4>:
     218:	7139                	addi	sp,sp,-64
     21a:	5301                	li	t1,-32
     21c:	d05a                	sw	s6,32(sp)
     21e:	d256                	sw	s5,36(sp)
     220:	d452                	sw	s4,40(sp)
     222:	d64e                	sw	s3,44(sp)
     224:	d84a                	sw	s2,48(sp)
     226:	da26                	sw	s1,52(sp)
     228:	dc22                	sw	s0,56(sp)
     22a:	de06                	sw	ra,60(sp)
     22c:	40610133          	sub	sp,sp,t1
     230:	8282                	jr	t0

00000232 <__riscv_save_0>:
     232:	1141                	addi	sp,sp,-16
     234:	c04a                	sw	s2,0(sp)
     236:	c226                	sw	s1,4(sp)
     238:	c422                	sw	s0,8(sp)
     23a:	c606                	sw	ra,12(sp)
     23c:	8282                	jr	t0

0000023e <__riscv_restore_12>:
     23e:	4db2                	lw	s11,12(sp)
     240:	0141                	addi	sp,sp,16

00000242 <__riscv_restore_10>:
     242:	4d02                	lw	s10,0(sp)
     244:	4c92                	lw	s9,4(sp)
     246:	4c22                	lw	s8,8(sp)
     248:	4bb2                	lw	s7,12(sp)
     24a:	0141                	addi	sp,sp,16

0000024c <__riscv_restore_4>:
     24c:	4b02                	lw	s6,0(sp)
     24e:	4a92                	lw	s5,4(sp)
     250:	4a22                	lw	s4,8(sp)
     252:	49b2                	lw	s3,12(sp)
     254:	0141                	addi	sp,sp,16

00000256 <__riscv_restore_0>:
     256:	4902                	lw	s2,0(sp)
     258:	4492                	lw	s1,4(sp)
     25a:	4422                	lw	s0,8(sp)
     25c:	40b2                	lw	ra,12(sp)
     25e:	0141                	addi	sp,sp,16
     260:	8082                	ret

00000262 <memset>:
     262:	433d                	li	t1,15
     264:	872a                	mv	a4,a0
     266:	02c37363          	bgeu	t1,a2,28c <memset+0x2a>
     26a:	00f77793          	andi	a5,a4,15
     26e:	efbd                	bnez	a5,2ec <memset+0x8a>
     270:	e5ad                	bnez	a1,2da <memset+0x78>
     272:	ff067693          	andi	a3,a2,-16
     276:	8a3d                	andi	a2,a2,15
     278:	96ba                	add	a3,a3,a4
     27a:	c30c                	sw	a1,0(a4)
     27c:	c34c                	sw	a1,4(a4)
     27e:	c70c                	sw	a1,8(a4)
     280:	c74c                	sw	a1,12(a4)
     282:	0741                	addi	a4,a4,16
     284:	fed76be3          	bltu	a4,a3,27a <memset+0x18>
     288:	e211                	bnez	a2,28c <memset+0x2a>
     28a:	8082                	ret
     28c:	40c306b3          	sub	a3,t1,a2
     290:	068a                	slli	a3,a3,0x2
     292:	00000297          	auipc	t0,0x0
     296:	9696                	add	a3,a3,t0
     298:	00a68067          	jr	10(a3)
     29c:	00b70723          	sb	a1,14(a4)
     2a0:	00b706a3          	sb	a1,13(a4)
     2a4:	00b70623          	sb	a1,12(a4)
     2a8:	00b705a3          	sb	a1,11(a4)
     2ac:	00b70523          	sb	a1,10(a4)
     2b0:	00b704a3          	sb	a1,9(a4)
     2b4:	00b70423          	sb	a1,8(a4)
     2b8:	00b703a3          	sb	a1,7(a4)
     2bc:	00b70323          	sb	a1,6(a4)
     2c0:	00b702a3          	sb	a1,5(a4)
     2c4:	00b70223          	sb	a1,4(a4)
     2c8:	00b701a3          	sb	a1,3(a4)
     2cc:	00b70123          	sb	a1,2(a4)
     2d0:	00b700a3          	sb	a1,1(a4)
     2d4:	00b70023          	sb	a1,0(a4)
     2d8:	8082                	ret
     2da:	0ff5f593          	andi	a1,a1,255
     2de:	00859693          	slli	a3,a1,0x8
     2e2:	8dd5                	or	a1,a1,a3
     2e4:	01059693          	slli	a3,a1,0x10
     2e8:	8dd5                	or	a1,a1,a3
     2ea:	b761                	j	272 <memset+0x10>
     2ec:	00279693          	slli	a3,a5,0x2
     2f0:	00000297          	auipc	t0,0x0
     2f4:	9696                	add	a3,a3,t0
     2f6:	8286                	mv	t0,ra
     2f8:	fa8680e7          	jalr	-88(a3)
     2fc:	8096                	mv	ra,t0
     2fe:	17c1                	addi	a5,a5,-16
     300:	8f1d                	sub	a4,a4,a5
     302:	963e                	add	a2,a2,a5
     304:	f8c374e3          	bgeu	t1,a2,28c <memset+0x2a>
     308:	b7a5                	j	270 <memset+0xe>

0000030a <NMI_Handler>:
     30a:	a001                	j	30a <NMI_Handler>

0000030c <HardFault_Handler>:
     30c:	beef07b7          	lui	a5,0xbeef0
     310:	e000e737          	lui	a4,0xe000e
     314:	08078793          	addi	a5,a5,128 # beef0080 <_eusrstack+0x9eee8080>
     318:	c73c                	sw	a5,72(a4)
     31a:	a001                	j	31a <HardFault_Handler+0xe>

0000031c <TIM2_IRQHandler>:
     31c:	4585                	li	a1,1
     31e:	40000537          	lui	a0,0x40000
     322:	54b000ef          	jal	ra,106c <TIM_GetITStatus>
     326:	4785                	li	a5,1
     328:	00f51463          	bne	a0,a5,330 <TIM2_IRQHandler+0x14>
     32c:	4c1010ef          	jal	ra,1fec <os_timer_ticks_update>
     330:	4585                	li	a1,1
     332:	40000537          	lui	a0,0x40000
     336:	54f000ef          	jal	ra,1084 <TIM_ClearITPendingBit>
     33a:	30200073          	mret

0000033e <led_auto_off_callback>:
     33e:	ef5ff2ef          	jal	t0,232 <__riscv_save_0>
     342:	1141                	addi	sp,sp,-16
     344:	000107a3          	sb	zero,15(sp)
     348:	cd19                	beqz	a0,366 <led_auto_off_callback+0x28>
     34a:	4605                	li	a2,1
     34c:	00f10593          	addi	a1,sp,15
     350:	193010ef          	jal	ra,1ce2 <os_device_write>
     354:	4501                	li	a0,0
     356:	2d7010ef          	jal	ra,1e2c <os_shadow_update_led>
     35a:	0000a537          	lui	a0,0xa
     35e:	66050513          	addi	a0,a0,1632 # a660 <_exit+0x14>
     362:	4a8090ef          	jal	ra,980a <puts>
     366:	0141                	addi	sp,sp,16
     368:	b5fd                	j	256 <__riscv_restore_0>

0000036a <task1_entry>:
     36a:	eafff2ef          	jal	t0,218 <__riscv_save_4>
     36e:	0000a537          	lui	a0,0xa
     372:	1141                	addi	sp,sp,-16
     374:	75050513          	addi	a0,a0,1872 # a750 <_exit+0x104>
     378:	113010ef          	jal	ra,1c8a <os_device_open>
     37c:	00000793          	li	a5,0
     380:	c63e                	sw	a5,12(sp)
     382:	0000a7b7          	lui	a5,0xa
     386:	74c7a903          	lw	s2,1868(a5) # a74c <_exit+0x100>
     38a:	842a                	mv	s0,a0
     38c:	0000a9b7          	lui	s3,0xa
     390:	c039                	beqz	s0,3d6 <task1_entry+0x6c>
     392:	4611                	li	a2,4
     394:	006c                	addi	a1,sp,12
     396:	8522                	mv	a0,s0
     398:	12f010ef          	jal	ra,1cc6 <os_device_read>
     39c:	4532                	lw	a0,12(sp)
     39e:	271010ef          	jal	ra,1e0e <os_shadow_update_temp>
     3a2:	44b2                	lw	s1,12(sp)
     3a4:	8526                	mv	a0,s1
     3a6:	5c2080ef          	jal	ra,8968 <__fixsfsi>
     3aa:	8a2a                	mv	s4,a0
     3ac:	61e080ef          	jal	ra,89ca <__floatsisf>
     3b0:	85aa                	mv	a1,a0
     3b2:	8526                	mv	a0,s1
     3b4:	22a080ef          	jal	ra,85de <__subsf3>
     3b8:	85ca                	mv	a1,s2
     3ba:	791070ef          	jal	ra,834a <__mulsf3>
     3be:	5aa080ef          	jal	ra,8968 <__fixsfsi>
     3c2:	41f55613          	srai	a2,a0,0x1f
     3c6:	8d31                	xor	a0,a0,a2
     3c8:	40c50633          	sub	a2,a0,a2
     3cc:	85d2                	mv	a1,s4
     3ce:	75c98513          	addi	a0,s3,1884 # a75c <_exit+0x110>
     3d2:	324090ef          	jal	ra,96f6 <iprintf>
     3d6:	1f400513          	li	a0,500
     3da:	45d010ef          	jal	ra,2036 <os_delay>
     3de:	bf4d                	j	390 <task1_entry+0x26>

000003e0 <task2_entry>:
     3e0:	e53ff2ef          	jal	t0,232 <__riscv_save_0>
     3e4:	0000a537          	lui	a0,0xa
     3e8:	1141                	addi	sp,sp,-16
     3ea:	78850513          	addi	a0,a0,1928 # a788 <_exit+0x13c>
     3ee:	09d010ef          	jal	ra,1c8a <os_device_open>
     3f2:	842a                	mv	s0,a0
     3f4:	c602                	sw	zero,12(sp)
     3f6:	c411                	beqz	s0,402 <task2_entry+0x22>
     3f8:	4611                	li	a2,4
     3fa:	006c                	addi	a1,sp,12
     3fc:	8522                	mv	a0,s0
     3fe:	0c9010ef          	jal	ra,1cc6 <os_device_read>
     402:	1f400513          	li	a0,500
     406:	431010ef          	jal	ra,2036 <os_delay>
     40a:	b7f5                	j	3f6 <task2_entry+0x16>

0000040c <task3_entry>:
     40c:	dffff2ef          	jal	t0,20a <__riscv_save_10>
     410:	0000a537          	lui	a0,0xa
     414:	1141                	addi	sp,sp,-16
     416:	79c50513          	addi	a0,a0,1948 # a79c <_exit+0x150>
     41a:	071010ef          	jal	ra,1c8a <os_device_open>
     41e:	6705                	lui	a4,0x1
     420:	00000637          	lui	a2,0x0
     424:	0000a5b7          	lui	a1,0xa
     428:	4781                	li	a5,0
     42a:	86aa                	mv	a3,a0
     42c:	842a                	mv	s0,a0
     42e:	bb870713          	addi	a4,a4,-1096 # bb8 <ADC_GetFlagStatus>
     432:	33e60613          	addi	a2,a2,830 # 33e <led_auto_off_callback>
     436:	7a858593          	addi	a1,a1,1960 # a7a8 <_exit+0x15c>
     43a:	86818513          	addi	a0,gp,-1944 # 20000128 <led_auto_off_timer>
     43e:	353010ef          	jal	ra,1f90 <os_timer_init>
     442:	0000a7b7          	lui	a5,0xa
     446:	7987a983          	lw	s3,1944(a5) # a798 <_exit+0x14c>
     44a:	4901                	li	s2,0
     44c:	4a85                	li	s5,1
     44e:	0000ab37          	lui	s6,0xa
     452:	4b85                	li	s7,1
     454:	0000ac37          	lui	s8,0xa
     458:	0048                	addi	a0,sp,4
     45a:	1f5010ef          	jal	ra,1e4e <os_shadow_get_snapshot>
     45e:	4a12                	lw	s4,4(sp)
     460:	85ce                	mv	a1,s3
     462:	8552                	mv	a0,s4
     464:	5d5070ef          	jal	ra,8238 <__gesf2>
     468:	02a05e63          	blez	a0,4a4 <task3_entry+0x98>
     46c:	06091d63          	bnez	s2,4e6 <task3_entry+0xda>
     470:	017101a3          	sb	s7,3(sp)
     474:	c419                	beqz	s0,482 <task3_entry+0x76>
     476:	4605                	li	a2,1
     478:	00310593          	addi	a1,sp,3
     47c:	8522                	mv	a0,s0
     47e:	065010ef          	jal	ra,1ce2 <os_device_write>
     482:	4505                	li	a0,1
     484:	1a9010ef          	jal	ra,1e2c <os_shadow_update_led>
     488:	7b8c0513          	addi	a0,s8,1976 # a7b8 <_exit+0x16c>
     48c:	37e090ef          	jal	ra,980a <puts>
     490:	86818513          	addi	a0,gp,-1944 # 20000128 <led_auto_off_timer>
     494:	319010ef          	jal	ra,1fac <os_timer_start>
     498:	4905                	li	s2,1
     49a:	0c800513          	li	a0,200
     49e:	399010ef          	jal	ra,2036 <os_delay>
     4a2:	bf5d                	j	458 <task3_entry+0x4c>
     4a4:	85ce                	mv	a1,s3
     4a6:	8552                	mv	a0,s4
     4a8:	617070ef          	jal	ra,82be <__lesf2>
     4ac:	fea047e3          	bgtz	a0,49a <task3_entry+0x8e>
     4b0:	ff5915e3          	bne	s2,s5,49a <task3_entry+0x8e>
     4b4:	861c                	lbu	a5,12(sp)
     4b6:	03579263          	bne	a5,s5,4da <task3_entry+0xce>
     4ba:	000101a3          	sb	zero,3(sp)
     4be:	c419                	beqz	s0,4cc <task3_entry+0xc0>
     4c0:	4605                	li	a2,1
     4c2:	00310593          	addi	a1,sp,3
     4c6:	8522                	mv	a0,s0
     4c8:	01b010ef          	jal	ra,1ce2 <os_device_write>
     4cc:	4501                	li	a0,0
     4ce:	15f010ef          	jal	ra,1e2c <os_shadow_update_led>
     4d2:	86818513          	addi	a0,gp,-1944 # 20000128 <led_auto_off_timer>
     4d6:	30b010ef          	jal	ra,1fe0 <os_timer_stop>
     4da:	7fcb0513          	addi	a0,s6,2044 # a7fc <_exit+0x1b0>
     4de:	32c090ef          	jal	ra,980a <puts>
     4e2:	4901                	li	s2,0
     4e4:	bf5d                	j	49a <task3_entry+0x8e>
     4e6:	85ce                	mv	a1,s3
     4e8:	8552                	mv	a0,s4
     4ea:	4f3070ef          	jal	ra,81dc <__eqsf2>
     4ee:	d179                	beqz	a0,4b4 <task3_entry+0xa8>
     4f0:	b76d                	j	49a <task3_entry+0x8e>

000004f2 <task4_entry>:
     4f2:	d19ff2ef          	jal	t0,20a <__riscv_save_10>
     4f6:	0000b537          	lui	a0,0xb
     4fa:	7135                	addi	sp,sp,-160
     4fc:	84c50513          	addi	a0,a0,-1972 # a84c <_exit+0x200>
     500:	78a010ef          	jal	ra,1c8a <os_device_open>
     504:	892a                	mv	s2,a0
     506:	0000a537          	lui	a0,0xa
     50a:	78850513          	addi	a0,a0,1928 # a788 <_exit+0x13c>
     50e:	77c010ef          	jal	ra,1c8a <os_device_open>
     512:	0000b7b7          	lui	a5,0xb
     516:	83c7aa83          	lw	s5,-1988(a5) # a83c <_exit+0x1f0>
     51a:	0000b437          	lui	s0,0xb
     51e:	0000b4b7          	lui	s1,0xb
     522:	89aa                	mv	s3,a0
     524:	0000bb37          	lui	s6,0xb
     528:	84040413          	addi	s0,s0,-1984 # a840 <_exit+0x1f4>
     52c:	84848493          	addi	s1,s1,-1976 # a848 <_exit+0x1fc>
     530:	06090663          	beqz	s2,59c <task4_entry+0xaa>
     534:	0848                	addi	a0,sp,20
     536:	119010ef          	jal	ra,1e4e <os_shadow_get_snapshot>
     53a:	4a52                	lw	s4,20(sp)
     53c:	8552                	mv	a0,s4
     53e:	42a080ef          	jal	ra,8968 <__fixsfsi>
     542:	8baa                	mv	s7,a0
     544:	486080ef          	jal	ra,89ca <__floatsisf>
     548:	85aa                	mv	a1,a0
     54a:	8552                	mv	a0,s4
     54c:	092080ef          	jal	ra,85de <__subsf3>
     550:	85d6                	mv	a1,s5
     552:	5f9070ef          	jal	ra,834a <__mulsf3>
     556:	412080ef          	jal	ra,8968 <__fixsfsi>
     55a:	41f55793          	srai	a5,a0,0x1f
     55e:	00a7c6b3          	xor	a3,a5,a0
     562:	c802                	sw	zero,16(sp)
     564:	8e9d                	sub	a3,a3,a5
     566:	00098963          	beqz	s3,578 <task4_entry+0x86>
     56a:	4611                	li	a2,4
     56c:	080c                	addi	a1,sp,16
     56e:	854e                	mv	a0,s3
     570:	c636                	sw	a3,12(sp)
     572:	754010ef          	jal	ra,1cc6 <os_device_read>
     576:	46b2                	lw	a3,12(sp)
     578:	01c14603          	lbu	a2,28(sp)
     57c:	4742                	lw	a4,16(sp)
     57e:	87a2                	mv	a5,s0
     580:	e211                	bnez	a2,584 <task4_entry+0x92>
     582:	87a6                	mv	a5,s1
     584:	865e                	mv	a2,s7
     586:	85cb0593          	addi	a1,s6,-1956 # a85c <_exit+0x210>
     58a:	1008                	addi	a0,sp,32
     58c:	2bc090ef          	jal	ra,9848 <siprintf>
     590:	08000613          	li	a2,128
     594:	100c                	addi	a1,sp,32
     596:	854a                	mv	a0,s2
     598:	74a010ef          	jal	ra,1ce2 <os_device_write>
     59c:	1f400513          	li	a0,500
     5a0:	297010ef          	jal	ra,2036 <os_delay>
     5a4:	b771                	j	530 <task4_entry+0x3e>

000005a6 <test_littlefs_boot_counter>:
     5a6:	c8dff2ef          	jal	t0,232 <__riscv_save_0>
     5aa:	0000b537          	lui	a0,0xb
     5ae:	711d                	addi	sp,sp,-96
     5b0:	89850513          	addi	a0,a0,-1896 # a898 <_exit+0x24c>
     5b4:	c402                	sw	zero,8(sp)
     5b6:	254090ef          	jal	ra,980a <puts>
     5ba:	0000b637          	lui	a2,0xb
     5be:	10300693          	li	a3,259
     5c2:	8bc60613          	addi	a2,a2,-1860 # a8bc <_exit+0x270>
     5c6:	006c                	addi	a1,sp,12
     5c8:	8a818513          	addi	a0,gp,-1880 # 20000168 <lfs>
     5cc:	5ba050ef          	jal	ra,5b86 <lfs_file_open>
     5d0:	00055b63          	bgez	a0,5e6 <test_littlefs_boot_counter+0x40>
     5d4:	85aa                	mv	a1,a0
     5d6:	0000b537          	lui	a0,0xb
     5da:	8cc50513          	addi	a0,a0,-1844 # a8cc <_exit+0x280>
     5de:	118090ef          	jal	ra,96f6 <iprintf>
     5e2:	6125                	addi	sp,sp,96
     5e4:	b98d                	j	256 <__riscv_restore_0>
     5e6:	0030                	addi	a2,sp,8
     5e8:	4691                	li	a3,4
     5ea:	006c                	addi	a1,sp,12
     5ec:	8a818513          	addi	a0,gp,-1880 # 20000168 <lfs>
     5f0:	620050ef          	jal	ra,5c10 <lfs_file_read>
     5f4:	47a2                	lw	a5,8(sp)
     5f6:	006c                	addi	a1,sp,12
     5f8:	8a818513          	addi	a0,gp,-1880 # 20000168 <lfs>
     5fc:	0785                	addi	a5,a5,1
     5fe:	c43e                	sw	a5,8(sp)
     600:	6da050ef          	jal	ra,5cda <lfs_file_rewind>
     604:	4691                	li	a3,4
     606:	0030                	addi	a2,sp,8
     608:	006c                	addi	a1,sp,12
     60a:	8a818513          	addi	a0,gp,-1880 # 20000168 <lfs>
     60e:	684050ef          	jal	ra,5c92 <lfs_file_write>
     612:	006c                	addi	a1,sp,12
     614:	8a818513          	addi	a0,gp,-1880 # 20000168 <lfs>
     618:	5bc050ef          	jal	ra,5bd4 <lfs_file_close>
     61c:	0000b537          	lui	a0,0xb
     620:	8f450513          	addi	a0,a0,-1804 # a8f4 <_exit+0x2a8>
     624:	1e6090ef          	jal	ra,980a <puts>
     628:	45a2                	lw	a1,8(sp)
     62a:	0000b537          	lui	a0,0xb
     62e:	91850513          	addi	a0,a0,-1768 # a918 <_exit+0x2cc>
     632:	0c4090ef          	jal	ra,96f6 <iprintf>
     636:	0000b537          	lui	a0,0xb
     63a:	94050513          	addi	a0,a0,-1728 # a940 <_exit+0x2f4>
     63e:	1cc090ef          	jal	ra,980a <puts>
     642:	b745                	j	5e2 <test_littlefs_boot_counter+0x3c>

00000644 <main>:
     644:	bd5ff2ef          	jal	t0,218 <__riscv_save_4>
     648:	2c01                	jal	858 <SystemCoreClockUpdate>
     64a:	6e4050ef          	jal	ra,5d2e <Delay_Init>
     64e:	6571                	lui	a0,0x1c
     650:	20050513          	addi	a0,a0,512 # 1c200 <_data_lma+0xfaac>
     654:	73a050ef          	jal	ra,5d8e <USART_Printf_Init>
     658:	0000a537          	lui	a0,0xa
     65c:	69c50513          	addi	a0,a0,1692 # a69c <_exit+0x50>
     660:	1aa090ef          	jal	ra,980a <puts>
     664:	0000a537          	lui	a0,0xa
     668:	6c050513          	addi	a0,a0,1728 # a6c0 <_exit+0x74>
     66c:	19e090ef          	jal	ra,980a <puts>
     670:	0000b537          	lui	a0,0xb
     674:	8f450513          	addi	a0,a0,-1804 # a8f4 <_exit+0x2a8>
     678:	192090ef          	jal	ra,980a <puts>
     67c:	7f5000ef          	jal	ra,1670 <drv_w25qxx_init>
     680:	85aa                	mv	a1,a0
     682:	0000a537          	lui	a0,0xa
     686:	6e450513          	addi	a0,a0,1764 # a6e4 <_exit+0x98>
     68a:	06c090ef          	jal	ra,96f6 <iprintf>
     68e:	75e010ef          	jal	ra,1dec <os_shadow_init>
     692:	749000ef          	jal	ra,15da <drv_smarthome_init>
     696:	5ef000ef          	jal	ra,1484 <drv_oled_register>
     69a:	0000a537          	lui	a0,0xa
     69e:	70450513          	addi	a0,a0,1796 # a704 <_exit+0xb8>
     6a2:	168090ef          	jal	ra,980a <puts>
     6a6:	160010ef          	jal	ra,1806 <drv_fs_init>
     6aa:	3df5                	jal	5a6 <test_littlefs_boot_counter>
     6ac:	06f010ef          	jal	ra,1f1a <os_tick_hardware_init>
     6b0:	64e010ef          	jal	ra,1cfe <stack_pool_init>
     6b4:	4695                	li	a3,5
     6b6:	4611                	li	a2,4
     6b8:	89418593          	addi	a1,gp,-1900 # 20000154 <temp_queue_buffer>
     6bc:	88418513          	addi	a0,gp,-1916 # 20000144 <temp_msg_queue>
     6c0:	6de010ef          	jal	ra,1d9e <os_mq_init>
     6c4:	6b6010ef          	jal	ra,1d7a <stack_pool_alloc>
     6c8:	000005b7          	lui	a1,0x0
     6cc:	862a                	mv	a2,a0
     6ce:	10000693          	li	a3,256
     6d2:	36a58593          	addi	a1,a1,874 # 36a <task1_entry>
     6d6:	82018513          	addi	a0,gp,-2016 # 200000e0 <task1>
     6da:	7a2010ef          	jal	ra,1e7c <task_init>
     6de:	69c010ef          	jal	ra,1d7a <stack_pool_alloc>
     6e2:	000005b7          	lui	a1,0x0
     6e6:	862a                	mv	a2,a0
     6e8:	10000693          	li	a3,256
     6ec:	3e058593          	addi	a1,a1,992 # 3e0 <task2_entry>
     6f0:	82418513          	addi	a0,gp,-2012 # 200000e4 <task2>
     6f4:	788010ef          	jal	ra,1e7c <task_init>
     6f8:	682010ef          	jal	ra,1d7a <stack_pool_alloc>
     6fc:	000005b7          	lui	a1,0x0
     700:	862a                	mv	a2,a0
     702:	10000693          	li	a3,256
     706:	40c58593          	addi	a1,a1,1036 # 40c <task3_entry>
     70a:	82818513          	addi	a0,gp,-2008 # 200000e8 <task3>
     70e:	76e010ef          	jal	ra,1e7c <task_init>
     712:	668010ef          	jal	ra,1d7a <stack_pool_alloc>
     716:	000005b7          	lui	a1,0x0
     71a:	862a                	mv	a2,a0
     71c:	10000693          	li	a3,256
     720:	4f258593          	addi	a1,a1,1266 # 4f2 <task4_entry>
     724:	82c18513          	addi	a0,gp,-2004 # 200000ec <task4>
     728:	754010ef          	jal	ra,1e7c <task_init>
     72c:	82018513          	addi	a0,gp,-2016 # 200000e0 <task1>
     730:	768010ef          	jal	ra,1e98 <task_register>
     734:	82418513          	addi	a0,gp,-2012 # 200000e4 <task2>
     738:	760010ef          	jal	ra,1e98 <task_register>
     73c:	82818513          	addi	a0,gp,-2008 # 200000e8 <task3>
     740:	758010ef          	jal	ra,1e98 <task_register>
     744:	82c18513          	addi	a0,gp,-2004 # 200000ec <task4>
     748:	750010ef          	jal	ra,1e98 <task_register>
     74c:	0000a537          	lui	a0,0xa
     750:	72450513          	addi	a0,a0,1828 # a724 <_exit+0xd8>
     754:	0b6090ef          	jal	ra,980a <puts>
     758:	79a010ef          	jal	ra,1ef2 <os_start>
     75c:	a001                	j	75c <main+0x118>

0000075e <SystemInit>:
     75e:	400217b7          	lui	a5,0x40021
     762:	4398                	lw	a4,0(a5)
     764:	f0ff06b7          	lui	a3,0xf0ff0
     768:	1141                	addi	sp,sp,-16
     76a:	00176713          	ori	a4,a4,1
     76e:	c398                	sw	a4,0(a5)
     770:	43d8                	lw	a4,4(a5)
     772:	00020637          	lui	a2,0x20
     776:	8f75                	and	a4,a4,a3
     778:	c3d8                	sw	a4,4(a5)
     77a:	4398                	lw	a4,0(a5)
     77c:	fef706b7          	lui	a3,0xfef70
     780:	16fd                	addi	a3,a3,-1
     782:	8f75                	and	a4,a4,a3
     784:	c398                	sw	a4,0(a5)
     786:	4398                	lw	a4,0(a5)
     788:	fffc06b7          	lui	a3,0xfffc0
     78c:	16fd                	addi	a3,a3,-1
     78e:	8f75                	and	a4,a4,a3
     790:	c398                	sw	a4,0(a5)
     792:	43d8                	lw	a4,4(a5)
     794:	ff0106b7          	lui	a3,0xff010
     798:	16fd                	addi	a3,a3,-1
     79a:	8f75                	and	a4,a4,a3
     79c:	c3d8                	sw	a4,4(a5)
     79e:	4398                	lw	a4,0(a5)
     7a0:	ec0006b7          	lui	a3,0xec000
     7a4:	16fd                	addi	a3,a3,-1
     7a6:	8f75                	and	a4,a4,a3
     7a8:	c398                	sw	a4,0(a5)
     7aa:	00ff0737          	lui	a4,0xff0
     7ae:	c798                	sw	a4,8(a5)
     7b0:	0207a623          	sw	zero,44(a5) # 4002102c <_eusrstack+0x2001902c>
     7b4:	c402                	sw	zero,8(sp)
     7b6:	c602                	sw	zero,12(sp)
     7b8:	4398                	lw	a4,0(a5)
     7ba:	66c1                	lui	a3,0x10
     7bc:	8f55                	or	a4,a4,a3
     7be:	c398                	sw	a4,0(a5)
     7c0:	400216b7          	lui	a3,0x40021
     7c4:	6705                	lui	a4,0x1
     7c6:	429c                	lw	a5,0(a3)
     7c8:	8ff1                	and	a5,a5,a2
     7ca:	c63e                	sw	a5,12(sp)
     7cc:	47a2                	lw	a5,8(sp)
     7ce:	0785                	addi	a5,a5,1
     7d0:	c43e                	sw	a5,8(sp)
     7d2:	47b2                	lw	a5,12(sp)
     7d4:	e781                	bnez	a5,7dc <SystemInit+0x7e>
     7d6:	47a2                	lw	a5,8(sp)
     7d8:	fee797e3          	bne	a5,a4,7c6 <SystemInit+0x68>
     7dc:	400217b7          	lui	a5,0x40021
     7e0:	439c                	lw	a5,0(a5)
     7e2:	00e79713          	slli	a4,a5,0xe
     7e6:	06075763          	bgez	a4,854 <__stack_size+0x54>
     7ea:	4785                	li	a5,1
     7ec:	c63e                	sw	a5,12(sp)
     7ee:	4732                	lw	a4,12(sp)
     7f0:	4785                	li	a5,1
     7f2:	04f71f63          	bne	a4,a5,850 <__stack_size+0x50>
     7f6:	400217b7          	lui	a5,0x40021
     7fa:	43d8                	lw	a4,4(a5)
     7fc:	ffc106b7          	lui	a3,0xffc10
     800:	16fd                	addi	a3,a3,-1
     802:	c3d8                	sw	a4,4(a5)
     804:	43d8                	lw	a4,4(a5)
     806:	c3d8                	sw	a4,4(a5)
     808:	43d8                	lw	a4,4(a5)
     80a:	40076713          	ori	a4,a4,1024
     80e:	c3d8                	sw	a4,4(a5)
     810:	43d8                	lw	a4,4(a5)
     812:	8f75                	and	a4,a4,a3
     814:	c3d8                	sw	a4,4(a5)
     816:	43d8                	lw	a4,4(a5)
     818:	002906b7          	lui	a3,0x290
     81c:	8f55                	or	a4,a4,a3
     81e:	c3d8                	sw	a4,4(a5)
     820:	4398                	lw	a4,0(a5)
     822:	010006b7          	lui	a3,0x1000
     826:	8f55                	or	a4,a4,a3
     828:	c398                	sw	a4,0(a5)
     82a:	4398                	lw	a4,0(a5)
     82c:	00671693          	slli	a3,a4,0x6
     830:	fe06dde3          	bgez	a3,82a <__stack_size+0x2a>
     834:	43d8                	lw	a4,4(a5)
     836:	400216b7          	lui	a3,0x40021
     83a:	9b71                	andi	a4,a4,-4
     83c:	c3d8                	sw	a4,4(a5)
     83e:	43d8                	lw	a4,4(a5)
     840:	00276713          	ori	a4,a4,2
     844:	c3d8                	sw	a4,4(a5)
     846:	4721                	li	a4,8
     848:	42dc                	lw	a5,4(a3)
     84a:	8bb1                	andi	a5,a5,12
     84c:	fee79ee3          	bne	a5,a4,848 <__stack_size+0x48>
     850:	0141                	addi	sp,sp,16
     852:	8082                	ret
     854:	c602                	sw	zero,12(sp)
     856:	bf61                	j	7ee <SystemInit+0x90>

00000858 <SystemCoreClockUpdate>:
     858:	400216b7          	lui	a3,0x40021
     85c:	42d8                	lw	a4,4(a3)
     85e:	200007b7          	lui	a5,0x20000
     862:	4611                	li	a2,4
     864:	8b31                	andi	a4,a4,12
     866:	0c078793          	addi	a5,a5,192 # 200000c0 <SystemCoreClock>
     86a:	00c70563          	beq	a4,a2,874 <SystemCoreClockUpdate+0x1c>
     86e:	4621                	li	a2,8
     870:	02c70863          	beq	a4,a2,8a0 <SystemCoreClockUpdate+0x48>
     874:	007a1737          	lui	a4,0x7a1
     878:	20070713          	addi	a4,a4,512 # 7a1200 <_data_lma+0x794aac>
     87c:	c398                	sw	a4,0(a5)
     87e:	40021737          	lui	a4,0x40021
     882:	4358                	lw	a4,4(a4)
     884:	8311                	srli	a4,a4,0x4
     886:	00f77693          	andi	a3,a4,15
     88a:	20000737          	lui	a4,0x20000
     88e:	00070713          	mv	a4,a4
     892:	9736                	add	a4,a4,a3
     894:	2314                	lbu	a3,0(a4)
     896:	4398                	lw	a4,0(a5)
     898:	00d75733          	srl	a4,a4,a3
     89c:	c398                	sw	a4,0(a5)
     89e:	8082                	ret
     8a0:	42d8                	lw	a4,4(a3)
     8a2:	42d4                	lw	a3,4(a3)
     8a4:	6641                	lui	a2,0x10
     8a6:	8349                	srli	a4,a4,0x12
     8a8:	8b3d                	andi	a4,a4,15
     8aa:	8ef1                	and	a3,a3,a2
     8ac:	00270613          	addi	a2,a4,2 # 20000002 <_data_vma+0x2>
     8b0:	cf15                	beqz	a4,8ec <SystemCoreClockUpdate+0x94>
     8b2:	473d                	li	a4,15
     8b4:	02e60f63          	beq	a2,a4,8f2 <SystemCoreClockUpdate+0x9a>
     8b8:	4741                	li	a4,16
     8ba:	02e60f63          	beq	a2,a4,8f8 <SystemCoreClockUpdate+0xa0>
     8be:	4745                	li	a4,17
     8c0:	4581                	li	a1,0
     8c2:	00e61363          	bne	a2,a4,8c8 <SystemCoreClockUpdate+0x70>
     8c6:	4641                	li	a2,16
     8c8:	e2a1                	bnez	a3,908 <SystemCoreClockUpdate+0xb0>
     8ca:	40024737          	lui	a4,0x40024
     8ce:	80072703          	lw	a4,-2048(a4) # 40023800 <_eusrstack+0x2001b800>
     8d2:	8b41                	andi	a4,a4,16
     8d4:	c70d                	beqz	a4,8fe <SystemCoreClockUpdate+0xa6>
     8d6:	007a1737          	lui	a4,0x7a1
     8da:	20070713          	addi	a4,a4,512 # 7a1200 <_data_lma+0x794aac>
     8de:	02c70633          	mul	a2,a4,a2
     8e2:	c390                	sw	a2,0(a5)
     8e4:	ddc9                	beqz	a1,87e <SystemCoreClockUpdate+0x26>
     8e6:	4398                	lw	a4,0(a5)
     8e8:	8305                	srli	a4,a4,0x1
     8ea:	bf49                	j	87c <SystemCoreClockUpdate+0x24>
     8ec:	4581                	li	a1,0
     8ee:	4649                	li	a2,18
     8f0:	bfe1                	j	8c8 <SystemCoreClockUpdate+0x70>
     8f2:	4585                	li	a1,1
     8f4:	4635                	li	a2,13
     8f6:	bfc9                	j	8c8 <SystemCoreClockUpdate+0x70>
     8f8:	4581                	li	a1,0
     8fa:	463d                	li	a2,15
     8fc:	b7f1                	j	8c8 <SystemCoreClockUpdate+0x70>
     8fe:	003d1737          	lui	a4,0x3d1
     902:	90070713          	addi	a4,a4,-1792 # 3d0900 <_data_lma+0x3c41ac>
     906:	bfe1                	j	8de <SystemCoreClockUpdate+0x86>
     908:	40021537          	lui	a0,0x40021
     90c:	5558                	lw	a4,44(a0)
     90e:	00f71693          	slli	a3,a4,0xf
     912:	5558                	lw	a4,44(a0)
     914:	0406df63          	bgez	a3,972 <SystemCoreClockUpdate+0x11a>
     918:	8311                	srli	a4,a4,0x4
     91a:	8b3d                	andi	a4,a4,15
     91c:	00170693          	addi	a3,a4,1
     920:	007a1737          	lui	a4,0x7a1
     924:	20070713          	addi	a4,a4,512 # 7a1200 <_data_lma+0x794aac>
     928:	02d75733          	divu	a4,a4,a3
     92c:	c398                	sw	a4,0(a5)
     92e:	5554                	lw	a3,44(a0)
     930:	82a1                	srli	a3,a3,0x8
     932:	8abd                	andi	a3,a3,15
     934:	e28d                	bnez	a3,956 <SystemCoreClockUpdate+0xfe>
     936:	4695                	li	a3,5
     938:	02d70733          	mul	a4,a4,a3
     93c:	8305                	srli	a4,a4,0x1
     93e:	c398                	sw	a4,0(a5)
     940:	40021737          	lui	a4,0x40021
     944:	5758                	lw	a4,44(a4)
     946:	4394                	lw	a3,0(a5)
     948:	8b3d                	andi	a4,a4,15
     94a:	0705                	addi	a4,a4,1
     94c:	02e6d733          	divu	a4,a3,a4
     950:	c398                	sw	a4,0(a5)
     952:	4398                	lw	a4,0(a5)
     954:	b769                	j	8de <SystemCoreClockUpdate+0x86>
     956:	4505                	li	a0,1
     958:	00a69463          	bne	a3,a0,960 <SystemCoreClockUpdate+0x108>
     95c:	46e5                	li	a3,25
     95e:	bfe9                	j	938 <SystemCoreClockUpdate+0xe0>
     960:	453d                	li	a0,15
     962:	00a69663          	bne	a3,a0,96e <SystemCoreClockUpdate+0x116>
     966:	46d1                	li	a3,20
     968:	02e68733          	mul	a4,a3,a4
     96c:	bfc9                	j	93e <SystemCoreClockUpdate+0xe6>
     96e:	0689                	addi	a3,a3,2
     970:	bfe5                	j	968 <SystemCoreClockUpdate+0x110>
     972:	8b3d                	andi	a4,a4,15
     974:	00170693          	addi	a3,a4,1 # 40021001 <_eusrstack+0x20019001>
     978:	007a1737          	lui	a4,0x7a1
     97c:	20070713          	addi	a4,a4,512 # 7a1200 <_data_lma+0x794aac>
     980:	02d75733          	divu	a4,a4,a3
     984:	b7f1                	j	950 <SystemCoreClockUpdate+0xf8>

00000986 <ADC1_2_IRQHandler>:
     986:	a001                	j	986 <ADC1_2_IRQHandler>

00000988 <handle_reset>:
     988:	20000197          	auipc	gp,0x20000
     98c:	f3818193          	addi	gp,gp,-200 # 200008c0 <__global_pointer$>
     990:	20007117          	auipc	sp,0x20007
     994:	67010113          	addi	sp,sp,1648 # 20008000 <_eusrstack>
     998:	0000c517          	auipc	a0,0xc
     99c:	dbc50513          	addi	a0,a0,-580 # c754 <_data_lma>
     9a0:	1ffff597          	auipc	a1,0x1ffff
     9a4:	66058593          	addi	a1,a1,1632 # 20000000 <_data_vma>
     9a8:	81c18613          	addi	a2,gp,-2020 # 200000dc <_edata>
     9ac:	00c5fa63          	bgeu	a1,a2,9c0 <handle_reset+0x38>
     9b0:	00052283          	lw	t0,0(a0)
     9b4:	0055a023          	sw	t0,0(a1)
     9b8:	0511                	addi	a0,a0,4
     9ba:	0591                	addi	a1,a1,4
     9bc:	fec5eae3          	bltu	a1,a2,9b0 <handle_reset+0x28>
     9c0:	82018513          	addi	a0,gp,-2016 # 200000e0 <task1>
     9c4:	20002597          	auipc	a1,0x20002
     9c8:	85c58593          	addi	a1,a1,-1956 # 20002220 <_ebss>
     9cc:	00b57763          	bgeu	a0,a1,9da <handle_reset+0x52>
     9d0:	00052023          	sw	zero,0(a0)
     9d4:	0511                	addi	a0,a0,4
     9d6:	feb56de3          	bltu	a0,a1,9d0 <handle_reset+0x48>
     9da:	42fd                	li	t0,31
     9dc:	bc029073          	csrw	0xbc0,t0
     9e0:	42ad                	li	t0,11
     9e2:	80429073          	csrw	0x804,t0
     9e6:	000062b7          	lui	t0,0x6
     9ea:	08828293          	addi	t0,t0,136 # 6088 <__ieee754_log+0x126>
     9ee:	30029073          	csrw	mstatus,t0
     9f2:	fffff297          	auipc	t0,0xfffff
     9f6:	61228293          	addi	t0,t0,1554 # 4 <_einit>
     9fa:	0032e293          	ori	t0,t0,3
     9fe:	30529073          	csrw	mtvec,t0
     a02:	d5dff0ef          	jal	ra,75e <SystemInit>
     a06:	00000297          	auipc	t0,0x0
     a0a:	c3e28293          	addi	t0,t0,-962 # 644 <main>
     a0e:	34129073          	csrw	mepc,t0
     a12:	30200073          	mret

00000a16 <ADC_DeInit>:
     a16:	81dff2ef          	jal	t0,232 <__riscv_save_0>
     a1a:	400127b7          	lui	a5,0x40012
     a1e:	40078793          	addi	a5,a5,1024 # 40012400 <_eusrstack+0x2000a400>
     a22:	00f51c63          	bne	a0,a5,a3a <ADC_DeInit+0x24>
     a26:	4585                	li	a1,1
     a28:	20000513          	li	a0,512
     a2c:	2145                	jal	ecc <RCC_APB2PeriphResetCmd>
     a2e:	4581                	li	a1,0
     a30:	20000513          	li	a0,512
     a34:	2961                	jal	ecc <RCC_APB2PeriphResetCmd>
     a36:	821ff06f          	j	256 <__riscv_restore_0>
     a3a:	400137b7          	lui	a5,0x40013
     a3e:	80078793          	addi	a5,a5,-2048 # 40012800 <_eusrstack+0x2000a800>
     a42:	fef51ae3          	bne	a0,a5,a36 <ADC_DeInit+0x20>
     a46:	4585                	li	a1,1
     a48:	40000513          	li	a0,1024
     a4c:	2141                	jal	ecc <RCC_APB2PeriphResetCmd>
     a4e:	4581                	li	a1,0
     a50:	40000513          	li	a0,1024
     a54:	b7c5                	j	a34 <ADC_DeInit+0x1e>

00000a56 <ADC_Init>:
     a56:	415c                	lw	a5,4(a0)
     a58:	e0f10737          	lui	a4,0xe0f10
     a5c:	eff70713          	addi	a4,a4,-257 # e0f0feff <_eusrstack+0xc0f07eff>
     a60:	4d94                	lw	a3,24(a1)
     a62:	8f7d                	and	a4,a4,a5
     a64:	419c                	lw	a5,0(a1)
     a66:	8fd5                	or	a5,a5,a3
     a68:	4dd4                	lw	a3,28(a1)
     a6a:	8fd5                	or	a5,a5,a3
     a6c:	41d4                	lw	a3,4(a1)
     a6e:	06a2                	slli	a3,a3,0x8
     a70:	8fd5                	or	a5,a5,a3
     a72:	8fd9                	or	a5,a5,a4
     a74:	c15c                	sw	a5,4(a0)
     a76:	451c                	lw	a5,8(a0)
     a78:	fff1f737          	lui	a4,0xfff1f
     a7c:	7fd70713          	addi	a4,a4,2045 # fff1f7fd <_eusrstack+0xdff177fd>
     a80:	45d4                	lw	a3,12(a1)
     a82:	8f7d                	and	a4,a4,a5
     a84:	499c                	lw	a5,16(a1)
     a86:	8fd5                	or	a5,a5,a3
     a88:	4594                	lw	a3,8(a1)
     a8a:	0686                	slli	a3,a3,0x1
     a8c:	8fd5                	or	a5,a5,a3
     a8e:	8fd9                	or	a5,a5,a4
     a90:	c51c                	sw	a5,8(a0)
     a92:	555c                	lw	a5,44(a0)
     a94:	ff100737          	lui	a4,0xff100
     a98:	177d                	addi	a4,a4,-1
     a9a:	8f7d                	and	a4,a4,a5
     a9c:	29dc                	lbu	a5,20(a1)
     a9e:	17fd                	addi	a5,a5,-1
     aa0:	0ff7f793          	andi	a5,a5,255
     aa4:	07d2                	slli	a5,a5,0x14
     aa6:	8fd9                	or	a5,a5,a4
     aa8:	d55c                	sw	a5,44(a0)
     aaa:	8082                	ret

00000aac <ADC_Cmd>:
     aac:	451c                	lw	a5,8(a0)
     aae:	c589                	beqz	a1,ab8 <ADC_Cmd+0xc>
     ab0:	0017e793          	ori	a5,a5,1
     ab4:	c51c                	sw	a5,8(a0)
     ab6:	8082                	ret
     ab8:	9bf9                	andi	a5,a5,-2
     aba:	bfed                	j	ab4 <ADC_Cmd+0x8>

00000abc <ADC_ResetCalibration>:
     abc:	451c                	lw	a5,8(a0)
     abe:	0087e793          	ori	a5,a5,8
     ac2:	c51c                	sw	a5,8(a0)
     ac4:	8082                	ret

00000ac6 <ADC_GetResetCalibrationStatus>:
     ac6:	4508                	lw	a0,8(a0)
     ac8:	810d                	srli	a0,a0,0x3
     aca:	8905                	andi	a0,a0,1
     acc:	8082                	ret

00000ace <ADC_StartCalibration>:
     ace:	451c                	lw	a5,8(a0)
     ad0:	0047e793          	ori	a5,a5,4
     ad4:	c51c                	sw	a5,8(a0)
     ad6:	8082                	ret

00000ad8 <ADC_GetCalibrationStatus>:
     ad8:	4508                	lw	a0,8(a0)
     ada:	8109                	srli	a0,a0,0x2
     adc:	8905                	andi	a0,a0,1
     ade:	8082                	ret

00000ae0 <ADC_SoftwareStartConvCmd>:
     ae0:	451c                	lw	a5,8(a0)
     ae2:	c591                	beqz	a1,aee <ADC_SoftwareStartConvCmd+0xe>
     ae4:	00500737          	lui	a4,0x500
     ae8:	8fd9                	or	a5,a5,a4
     aea:	c51c                	sw	a5,8(a0)
     aec:	8082                	ret
     aee:	ffb00737          	lui	a4,0xffb00
     af2:	177d                	addi	a4,a4,-1
     af4:	8ff9                	and	a5,a5,a4
     af6:	bfd5                	j	aea <ADC_SoftwareStartConvCmd+0xa>

00000af8 <ADC_RegularChannelConfig>:
     af8:	47a5                	li	a5,9
     afa:	04b7f763          	bgeu	a5,a1,b48 <ADC_RegularChannelConfig+0x50>
     afe:	478d                	li	a5,3
     b00:	ff658713          	addi	a4,a1,-10
     b04:	02f70733          	mul	a4,a4,a5
     b08:	00c52803          	lw	a6,12(a0)
     b0c:	479d                	li	a5,7
     b0e:	00e797b3          	sll	a5,a5,a4
     b12:	fff7c793          	not	a5,a5
     b16:	0107f7b3          	and	a5,a5,a6
     b1a:	00e696b3          	sll	a3,a3,a4
     b1e:	8edd                	or	a3,a3,a5
     b20:	c554                	sw	a3,12(a0)
     b22:	4799                	li	a5,6
     b24:	04c7e363          	bltu	a5,a2,b6a <ADC_RegularChannelConfig+0x72>
     b28:	4795                	li	a5,5
     b2a:	167d                	addi	a2,a2,-1
     b2c:	02f60633          	mul	a2,a2,a5
     b30:	5958                	lw	a4,52(a0)
     b32:	47fd                	li	a5,31
     b34:	00c797b3          	sll	a5,a5,a2
     b38:	fff7c793          	not	a5,a5
     b3c:	8ff9                	and	a5,a5,a4
     b3e:	00c59633          	sll	a2,a1,a2
     b42:	8e5d                	or	a2,a2,a5
     b44:	d950                	sw	a2,52(a0)
     b46:	8082                	ret
     b48:	470d                	li	a4,3
     b4a:	02e58733          	mul	a4,a1,a4
     b4e:	01052803          	lw	a6,16(a0)
     b52:	479d                	li	a5,7
     b54:	00e797b3          	sll	a5,a5,a4
     b58:	fff7c793          	not	a5,a5
     b5c:	0107f7b3          	and	a5,a5,a6
     b60:	00e696b3          	sll	a3,a3,a4
     b64:	8edd                	or	a3,a3,a5
     b66:	c914                	sw	a3,16(a0)
     b68:	bf6d                	j	b22 <ADC_RegularChannelConfig+0x2a>
     b6a:	47b1                	li	a5,12
     b6c:	02c7e263          	bltu	a5,a2,b90 <ADC_RegularChannelConfig+0x98>
     b70:	4795                	li	a5,5
     b72:	1665                	addi	a2,a2,-7
     b74:	02f60633          	mul	a2,a2,a5
     b78:	5918                	lw	a4,48(a0)
     b7a:	47fd                	li	a5,31
     b7c:	00c797b3          	sll	a5,a5,a2
     b80:	fff7c793          	not	a5,a5
     b84:	8ff9                	and	a5,a5,a4
     b86:	00c59633          	sll	a2,a1,a2
     b8a:	8e5d                	or	a2,a2,a5
     b8c:	d910                	sw	a2,48(a0)
     b8e:	8082                	ret
     b90:	4795                	li	a5,5
     b92:	164d                	addi	a2,a2,-13
     b94:	02f60633          	mul	a2,a2,a5
     b98:	5558                	lw	a4,44(a0)
     b9a:	47fd                	li	a5,31
     b9c:	00c797b3          	sll	a5,a5,a2
     ba0:	fff7c793          	not	a5,a5
     ba4:	8ff9                	and	a5,a5,a4
     ba6:	00c595b3          	sll	a1,a1,a2
     baa:	8ddd                	or	a1,a1,a5
     bac:	d54c                	sw	a1,44(a0)
     bae:	8082                	ret

00000bb0 <ADC_GetConversionValue>:
     bb0:	4568                	lw	a0,76(a0)
     bb2:	0542                	slli	a0,a0,0x10
     bb4:	8141                	srli	a0,a0,0x10
     bb6:	8082                	ret

00000bb8 <ADC_GetFlagStatus>:
     bb8:	4108                	lw	a0,0(a0)
     bba:	8d6d                	and	a0,a0,a1
     bbc:	00a03533          	snez	a0,a0
     bc0:	8082                	ret

00000bc2 <ADC_BufferCmd>:
     bc2:	415c                	lw	a5,4(a0)
     bc4:	c591                	beqz	a1,bd0 <ADC_BufferCmd+0xe>
     bc6:	04000737          	lui	a4,0x4000
     bca:	8fd9                	or	a5,a5,a4
     bcc:	c15c                	sw	a5,4(a0)
     bce:	8082                	ret
     bd0:	fc000737          	lui	a4,0xfc000
     bd4:	177d                	addi	a4,a4,-1
     bd6:	8ff9                	and	a5,a5,a4
     bd8:	bfd5                	j	bcc <ADC_BufferCmd+0xa>

00000bda <GPIO_Init>:
     bda:	459c                	lw	a5,8(a1)
     bdc:	0107f713          	andi	a4,a5,16
     be0:	00f7f813          	andi	a6,a5,15
     be4:	c701                	beqz	a4,bec <GPIO_Init+0x12>
     be6:	41d8                	lw	a4,4(a1)
     be8:	00e86833          	or	a6,a6,a4
     bec:	218e                	lhu	a1,0(a1)
     bee:	0ff5f713          	andi	a4,a1,255
     bf2:	c339                	beqz	a4,c38 <GPIO_Init+0x5e>
     bf4:	4118                	lw	a4,0(a0)
     bf6:	4681                	li	a3,0
     bf8:	4e85                	li	t4,1
     bfa:	4f3d                	li	t5,15
     bfc:	02800f93          	li	t6,40
     c00:	04800293          	li	t0,72
     c04:	4e21                	li	t3,8
     c06:	00de9633          	sll	a2,t4,a3
     c0a:	00c5f8b3          	and	a7,a1,a2
     c0e:	03161163          	bne	a2,a7,c30 <GPIO_Init+0x56>
     c12:	00269893          	slli	a7,a3,0x2
     c16:	011f1333          	sll	t1,t5,a7
     c1a:	fff34313          	not	t1,t1
     c1e:	00e37733          	and	a4,t1,a4
     c22:	011818b3          	sll	a7,a6,a7
     c26:	00e8e733          	or	a4,a7,a4
     c2a:	05f79f63          	bne	a5,t6,c88 <GPIO_Init+0xae>
     c2e:	c950                	sw	a2,20(a0)
     c30:	0685                	addi	a3,a3,1
     c32:	fdc69ae3          	bne	a3,t3,c06 <GPIO_Init+0x2c>
     c36:	c118                	sw	a4,0(a0)
     c38:	0ff00713          	li	a4,255
     c3c:	04b77563          	bgeu	a4,a1,c86 <GPIO_Init+0xac>
     c40:	4154                	lw	a3,4(a0)
     c42:	4621                	li	a2,8
     c44:	4e85                	li	t4,1
     c46:	4f3d                	li	t5,15
     c48:	02800f93          	li	t6,40
     c4c:	04800293          	li	t0,72
     c50:	4e41                	li	t3,16
     c52:	00ce98b3          	sll	a7,t4,a2
     c56:	0115f733          	and	a4,a1,a7
     c5a:	02e89263          	bne	a7,a4,c7e <GPIO_Init+0xa4>
     c5e:	00261713          	slli	a4,a2,0x2
     c62:	1701                	addi	a4,a4,-32
     c64:	00ef1333          	sll	t1,t5,a4
     c68:	fff34313          	not	t1,t1
     c6c:	00d376b3          	and	a3,t1,a3
     c70:	00e81733          	sll	a4,a6,a4
     c74:	8ed9                	or	a3,a3,a4
     c76:	01f79d63          	bne	a5,t6,c90 <GPIO_Init+0xb6>
     c7a:	01152a23          	sw	a7,20(a0)
     c7e:	0605                	addi	a2,a2,1
     c80:	fdc619e3          	bne	a2,t3,c52 <GPIO_Init+0x78>
     c84:	c154                	sw	a3,4(a0)
     c86:	8082                	ret
     c88:	fa5794e3          	bne	a5,t0,c30 <GPIO_Init+0x56>
     c8c:	c910                	sw	a2,16(a0)
     c8e:	b74d                	j	c30 <GPIO_Init+0x56>
     c90:	fe5797e3          	bne	a5,t0,c7e <GPIO_Init+0xa4>
     c94:	01152823          	sw	a7,16(a0)
     c98:	b7dd                	j	c7e <GPIO_Init+0xa4>

00000c9a <GPIO_SetBits>:
     c9a:	c90c                	sw	a1,16(a0)
     c9c:	8082                	ret

00000c9e <GPIO_ResetBits>:
     c9e:	c94c                	sw	a1,20(a0)
     ca0:	8082                	ret

00000ca2 <GPIO_WriteBit>:
     ca2:	c219                	beqz	a2,ca8 <GPIO_WriteBit+0x6>
     ca4:	c90c                	sw	a1,16(a0)
     ca6:	8082                	ret
     ca8:	c94c                	sw	a1,20(a0)
     caa:	8082                	ret

00000cac <NVIC_Init>:
     cac:	8301a703          	lw	a4,-2000(gp) # 200000f0 <NVIC_Priority_Group>
     cb0:	4789                	li	a5,2
     cb2:	2110                	lbu	a2,0(a0)
     cb4:	02f71163          	bne	a4,a5,cd6 <NVIC_Init+0x2a>
     cb8:	3114                	lbu	a3,1(a0)
     cba:	478d                	li	a5,3
     cbc:	00d7ed63          	bltu	a5,a3,cd6 <NVIC_Init+0x2a>
     cc0:	213c                	lbu	a5,2(a0)
     cc2:	069a                	slli	a3,a3,0x6
     cc4:	e000e737          	lui	a4,0xe000e
     cc8:	0796                	slli	a5,a5,0x5
     cca:	8fd5                	or	a5,a5,a3
     ccc:	0ff7f793          	andi	a5,a5,255
     cd0:	9732                	add	a4,a4,a2
     cd2:	40f70023          	sb	a5,1024(a4) # e000e400 <_eusrstack+0xc0006400>
     cd6:	4154                	lw	a3,4(a0)
     cd8:	4705                	li	a4,1
     cda:	00565793          	srli	a5,a2,0x5
     cde:	00c71733          	sll	a4,a4,a2
     ce2:	ca89                	beqz	a3,cf4 <NVIC_Init+0x48>
     ce4:	04078793          	addi	a5,a5,64
     ce8:	078a                	slli	a5,a5,0x2
     cea:	e000e6b7          	lui	a3,0xe000e
     cee:	97b6                	add	a5,a5,a3
     cf0:	c398                	sw	a4,0(a5)
     cf2:	8082                	ret
     cf4:	06078793          	addi	a5,a5,96
     cf8:	e000e6b7          	lui	a3,0xe000e
     cfc:	078a                	slli	a5,a5,0x2
     cfe:	97b6                	add	a5,a5,a3
     d00:	c398                	sw	a4,0(a5)
     d02:	0000100f          	fence.i
     d06:	8082                	ret

00000d08 <RCC_ADCCLKConfig>:
     d08:	400216b7          	lui	a3,0x40021
     d0c:	42dc                	lw	a5,4(a3)
     d0e:	7751                	lui	a4,0xffff4
     d10:	177d                	addi	a4,a4,-1
     d12:	8ff9                	and	a5,a5,a4
     d14:	8d5d                	or	a0,a0,a5
     d16:	c2c8                	sw	a0,4(a3)
     d18:	8082                	ret

00000d1a <RCC_GetClocksFreq>:
     d1a:	40021737          	lui	a4,0x40021
     d1e:	435c                	lw	a5,4(a4)
     d20:	4691                	li	a3,4
     d22:	8bb1                	andi	a5,a5,12
     d24:	00d78563          	beq	a5,a3,d2e <RCC_GetClocksFreq+0x14>
     d28:	46a1                	li	a3,8
     d2a:	06d78263          	beq	a5,a3,d8e <RCC_GetClocksFreq+0x74>
     d2e:	007a17b7          	lui	a5,0x7a1
     d32:	20078793          	addi	a5,a5,512 # 7a1200 <_data_lma+0x794aac>
     d36:	c11c                	sw	a5,0(a0)
     d38:	40021637          	lui	a2,0x40021
     d3c:	425c                	lw	a5,4(a2)
     d3e:	20000737          	lui	a4,0x20000
     d42:	01070713          	addi	a4,a4,16 # 20000010 <APBAHBPrescTable>
     d46:	8391                	srli	a5,a5,0x4
     d48:	8bbd                	andi	a5,a5,15
     d4a:	97ba                	add	a5,a5,a4
     d4c:	2394                	lbu	a3,0(a5)
     d4e:	411c                	lw	a5,0(a0)
     d50:	00d7d7b3          	srl	a5,a5,a3
     d54:	c15c                	sw	a5,4(a0)
     d56:	4254                	lw	a3,4(a2)
     d58:	82a1                	srli	a3,a3,0x8
     d5a:	8a9d                	andi	a3,a3,7
     d5c:	96ba                	add	a3,a3,a4
     d5e:	2294                	lbu	a3,0(a3)
     d60:	00d7d6b3          	srl	a3,a5,a3
     d64:	c514                	sw	a3,8(a0)
     d66:	4254                	lw	a3,4(a2)
     d68:	82ad                	srli	a3,a3,0xb
     d6a:	8a9d                	andi	a3,a3,7
     d6c:	9736                	add	a4,a4,a3
     d6e:	2318                	lbu	a4,0(a4)
     d70:	00e7d7b3          	srl	a5,a5,a4
     d74:	c55c                	sw	a5,12(a0)
     d76:	4258                	lw	a4,4(a2)
     d78:	8339                	srli	a4,a4,0xe
     d7a:	00377693          	andi	a3,a4,3
     d7e:	80418713          	addi	a4,gp,-2044 # 200000c4 <ADCPrescTable>
     d82:	9736                	add	a4,a4,a3
     d84:	2318                	lbu	a4,0(a4)
     d86:	02e7d7b3          	divu	a5,a5,a4
     d8a:	c91c                	sw	a5,16(a0)
     d8c:	8082                	ret
     d8e:	435c                	lw	a5,4(a4)
     d90:	4358                	lw	a4,4(a4)
     d92:	66c1                	lui	a3,0x10
     d94:	83c9                	srli	a5,a5,0x12
     d96:	8f75                	and	a4,a4,a3
     d98:	1ffff6b7          	lui	a3,0x1ffff
     d9c:	70c6a683          	lw	a3,1804(a3) # 1ffff70c <_data_lma+0x1fff2fb8>
     da0:	8bbd                	andi	a5,a5,15
     da2:	0789                	addi	a5,a5,2
     da4:	01169613          	slli	a2,a3,0x11
     da8:	00064863          	bltz	a2,db8 <RCC_GetClocksFreq+0x9e>
     dac:	46c5                	li	a3,17
     dae:	4601                	li	a2,0
     db0:	02d79263          	bne	a5,a3,dd4 <RCC_GetClocksFreq+0xba>
     db4:	47c9                	li	a5,18
     db6:	a839                	j	dd4 <RCC_GetClocksFreq+0xba>
     db8:	4689                	li	a3,2
     dba:	02d78f63          	beq	a5,a3,df8 <RCC_GetClocksFreq+0xde>
     dbe:	46bd                	li	a3,15
     dc0:	02d78e63          	beq	a5,a3,dfc <RCC_GetClocksFreq+0xe2>
     dc4:	46c1                	li	a3,16
     dc6:	02d78e63          	beq	a5,a3,e02 <RCC_GetClocksFreq+0xe8>
     dca:	46c5                	li	a3,17
     dcc:	4601                	li	a2,0
     dce:	00d79363          	bne	a5,a3,dd4 <RCC_GetClocksFreq+0xba>
     dd2:	47c1                	li	a5,16
     dd4:	ef1d                	bnez	a4,e12 <RCC_GetClocksFreq+0xf8>
     dd6:	40024737          	lui	a4,0x40024
     dda:	80072703          	lw	a4,-2048(a4) # 40023800 <_eusrstack+0x2001b800>
     dde:	8b41                	andi	a4,a4,16
     de0:	c705                	beqz	a4,e08 <RCC_GetClocksFreq+0xee>
     de2:	007a1737          	lui	a4,0x7a1
     de6:	20070713          	addi	a4,a4,512 # 7a1200 <_data_lma+0x794aac>
     dea:	02f707b3          	mul	a5,a4,a5
     dee:	c11c                	sw	a5,0(a0)
     df0:	d621                	beqz	a2,d38 <RCC_GetClocksFreq+0x1e>
     df2:	411c                	lw	a5,0(a0)
     df4:	8385                	srli	a5,a5,0x1
     df6:	b781                	j	d36 <RCC_GetClocksFreq+0x1c>
     df8:	4601                	li	a2,0
     dfa:	bf6d                	j	db4 <RCC_GetClocksFreq+0x9a>
     dfc:	4605                	li	a2,1
     dfe:	47b5                	li	a5,13
     e00:	bfd1                	j	dd4 <RCC_GetClocksFreq+0xba>
     e02:	4601                	li	a2,0
     e04:	47bd                	li	a5,15
     e06:	b7f9                	j	dd4 <RCC_GetClocksFreq+0xba>
     e08:	003d1737          	lui	a4,0x3d1
     e0c:	90070713          	addi	a4,a4,-1792 # 3d0900 <_data_lma+0x3c41ac>
     e10:	bfe9                	j	dea <RCC_GetClocksFreq+0xd0>
     e12:	400215b7          	lui	a1,0x40021
     e16:	55d8                	lw	a4,44(a1)
     e18:	00f71693          	slli	a3,a4,0xf
     e1c:	55d8                	lw	a4,44(a1)
     e1e:	0406df63          	bgez	a3,e7c <RCC_GetClocksFreq+0x162>
     e22:	8311                	srli	a4,a4,0x4
     e24:	8b3d                	andi	a4,a4,15
     e26:	00170693          	addi	a3,a4,1
     e2a:	007a1737          	lui	a4,0x7a1
     e2e:	20070713          	addi	a4,a4,512 # 7a1200 <_data_lma+0x794aac>
     e32:	02d75733          	divu	a4,a4,a3
     e36:	c118                	sw	a4,0(a0)
     e38:	55d4                	lw	a3,44(a1)
     e3a:	82a1                	srli	a3,a3,0x8
     e3c:	8abd                	andi	a3,a3,15
     e3e:	e28d                	bnez	a3,e60 <RCC_GetClocksFreq+0x146>
     e40:	4695                	li	a3,5
     e42:	02d70733          	mul	a4,a4,a3
     e46:	8305                	srli	a4,a4,0x1
     e48:	c118                	sw	a4,0(a0)
     e4a:	40021737          	lui	a4,0x40021
     e4e:	5758                	lw	a4,44(a4)
     e50:	4114                	lw	a3,0(a0)
     e52:	8b3d                	andi	a4,a4,15
     e54:	0705                	addi	a4,a4,1
     e56:	02e6d733          	divu	a4,a3,a4
     e5a:	c118                	sw	a4,0(a0)
     e5c:	4118                	lw	a4,0(a0)
     e5e:	b771                	j	dea <RCC_GetClocksFreq+0xd0>
     e60:	4585                	li	a1,1
     e62:	00b69463          	bne	a3,a1,e6a <RCC_GetClocksFreq+0x150>
     e66:	46e5                	li	a3,25
     e68:	bfe9                	j	e42 <RCC_GetClocksFreq+0x128>
     e6a:	45bd                	li	a1,15
     e6c:	00b69663          	bne	a3,a1,e78 <RCC_GetClocksFreq+0x15e>
     e70:	46d1                	li	a3,20
     e72:	02e68733          	mul	a4,a3,a4
     e76:	bfc9                	j	e48 <RCC_GetClocksFreq+0x12e>
     e78:	0689                	addi	a3,a3,2
     e7a:	bfe5                	j	e72 <RCC_GetClocksFreq+0x158>
     e7c:	8b3d                	andi	a4,a4,15
     e7e:	00170693          	addi	a3,a4,1 # 40021001 <_eusrstack+0x20019001>
     e82:	007a1737          	lui	a4,0x7a1
     e86:	20070713          	addi	a4,a4,512 # 7a1200 <_data_lma+0x794aac>
     e8a:	02d75733          	divu	a4,a4,a3
     e8e:	b7f1                	j	e5a <RCC_GetClocksFreq+0x140>

00000e90 <RCC_APB2PeriphClockCmd>:
     e90:	c599                	beqz	a1,e9e <RCC_APB2PeriphClockCmd+0xe>
     e92:	40021737          	lui	a4,0x40021
     e96:	4f1c                	lw	a5,24(a4)
     e98:	8d5d                	or	a0,a0,a5
     e9a:	cf08                	sw	a0,24(a4)
     e9c:	8082                	ret
     e9e:	400217b7          	lui	a5,0x40021
     ea2:	4f98                	lw	a4,24(a5)
     ea4:	fff54513          	not	a0,a0
     ea8:	8d79                	and	a0,a0,a4
     eaa:	cf88                	sw	a0,24(a5)
     eac:	8082                	ret

00000eae <RCC_APB1PeriphClockCmd>:
     eae:	c599                	beqz	a1,ebc <RCC_APB1PeriphClockCmd+0xe>
     eb0:	40021737          	lui	a4,0x40021
     eb4:	4f5c                	lw	a5,28(a4)
     eb6:	8d5d                	or	a0,a0,a5
     eb8:	cf48                	sw	a0,28(a4)
     eba:	8082                	ret
     ebc:	400217b7          	lui	a5,0x40021
     ec0:	4fd8                	lw	a4,28(a5)
     ec2:	fff54513          	not	a0,a0
     ec6:	8d79                	and	a0,a0,a4
     ec8:	cfc8                	sw	a0,28(a5)
     eca:	8082                	ret

00000ecc <RCC_APB2PeriphResetCmd>:
     ecc:	c599                	beqz	a1,eda <RCC_APB2PeriphResetCmd+0xe>
     ece:	40021737          	lui	a4,0x40021
     ed2:	475c                	lw	a5,12(a4)
     ed4:	8d5d                	or	a0,a0,a5
     ed6:	c748                	sw	a0,12(a4)
     ed8:	8082                	ret
     eda:	400217b7          	lui	a5,0x40021
     ede:	47d8                	lw	a4,12(a5)
     ee0:	fff54513          	not	a0,a0
     ee4:	8d79                	and	a0,a0,a4
     ee6:	c7c8                	sw	a0,12(a5)
     ee8:	8082                	ret

00000eea <SPI_Init>:
     eea:	211a                	lhu	a4,0(a0)
     eec:	678d                	lui	a5,0x3
     eee:	04078793          	addi	a5,a5,64 # 3040 <lfs_bd_flush+0x92>
     ef2:	21b6                	lhu	a3,2(a1)
     ef4:	8f7d                	and	a4,a4,a5
     ef6:	219e                	lhu	a5,0(a1)
     ef8:	8fd5                	or	a5,a5,a3
     efa:	21d6                	lhu	a3,4(a1)
     efc:	8fd5                	or	a5,a5,a3
     efe:	21f6                	lhu	a3,6(a1)
     f00:	8fd5                	or	a5,a5,a3
     f02:	2596                	lhu	a3,8(a1)
     f04:	8fd5                	or	a5,a5,a3
     f06:	25b6                	lhu	a3,10(a1)
     f08:	8fd5                	or	a5,a5,a3
     f0a:	25d6                	lhu	a3,12(a1)
     f0c:	8fd5                	or	a5,a5,a3
     f0e:	25f6                	lhu	a3,14(a1)
     f10:	8fd5                	or	a5,a5,a3
     f12:	8fd9                	or	a5,a5,a4
     f14:	a11e                	sh	a5,0(a0)
     f16:	2d5a                	lhu	a4,28(a0)
     f18:	77fd                	lui	a5,0xfffff
     f1a:	7ff78793          	addi	a5,a5,2047 # fffff7ff <_eusrstack+0xdfff77ff>
     f1e:	8ff9                	and	a5,a5,a4
     f20:	ad5e                	sh	a5,28(a0)
     f22:	299e                	lhu	a5,16(a1)
     f24:	a91e                	sh	a5,16(a0)
     f26:	8082                	ret

00000f28 <SPI_Cmd>:
     f28:	211e                	lhu	a5,0(a0)
     f2a:	c589                	beqz	a1,f34 <SPI_Cmd+0xc>
     f2c:	0407e793          	ori	a5,a5,64
     f30:	a11e                	sh	a5,0(a0)
     f32:	8082                	ret
     f34:	07c2                	slli	a5,a5,0x10
     f36:	83c1                	srli	a5,a5,0x10
     f38:	fbf7f793          	andi	a5,a5,-65
     f3c:	07c2                	slli	a5,a5,0x10
     f3e:	83c1                	srli	a5,a5,0x10
     f40:	bfc5                	j	f30 <SPI_Cmd+0x8>

00000f42 <SPI_I2S_SendData>:
     f42:	a54e                	sh	a1,12(a0)
     f44:	8082                	ret

00000f46 <SPI_I2S_ReceiveData>:
     f46:	254a                	lhu	a0,12(a0)
     f48:	8082                	ret

00000f4a <SPI_I2S_GetFlagStatus>:
     f4a:	250a                	lhu	a0,8(a0)
     f4c:	8d6d                	and	a0,a0,a1
     f4e:	00a03533          	snez	a0,a0
     f52:	8082                	ret

00000f54 <TIM_TimeBaseInit>:
     f54:	1ffff737          	lui	a4,0x1ffff
     f58:	70472703          	lw	a4,1796(a4) # 1ffff704 <_data_lma+0x1fff2fb0>
     f5c:	211e                	lhu	a5,0(a0)
     f5e:	4691                	li	a3,4
     f60:	8311                	srli	a4,a4,0x4
     f62:	8b3d                	andi	a4,a4,15
     f64:	07c2                	slli	a5,a5,0x10
     f66:	1771                	addi	a4,a4,-4
     f68:	83c1                	srli	a5,a5,0x10
     f6a:	02e6e663          	bltu	a3,a4,f96 <TIM_TimeBaseInit+0x42>
     f6e:	40013737          	lui	a4,0x40013
     f72:	c0070693          	addi	a3,a4,-1024 # 40012c00 <_eusrstack+0x2000ac00>
     f76:	00d50e63          	beq	a0,a3,f92 <TIM_TimeBaseInit+0x3e>
     f7a:	40070713          	addi	a4,a4,1024
     f7e:	00e50a63          	beq	a0,a4,f92 <TIM_TimeBaseInit+0x3e>
     f82:	40015737          	lui	a4,0x40015
     f86:	c0070693          	addi	a3,a4,-1024 # 40014c00 <_eusrstack+0x2000cc00>
     f8a:	00d50463          	beq	a0,a3,f92 <TIM_TimeBaseInit+0x3e>
     f8e:	00e51a63          	bne	a0,a4,fa2 <TIM_TimeBaseInit+0x4e>
     f92:	6709                	lui	a4,0x2
     f94:	8fd9                	or	a5,a5,a4
     f96:	40013737          	lui	a4,0x40013
     f9a:	c0070713          	addi	a4,a4,-1024 # 40012c00 <_eusrstack+0x2000ac00>
     f9e:	04e50263          	beq	a0,a4,fe2 <TIM_TimeBaseInit+0x8e>
     fa2:	40000737          	lui	a4,0x40000
     fa6:	02e50e63          	beq	a0,a4,fe2 <TIM_TimeBaseInit+0x8e>
     faa:	40070713          	addi	a4,a4,1024 # 40000400 <_eusrstack+0x1fff8400>
     fae:	02e50a63          	beq	a0,a4,fe2 <TIM_TimeBaseInit+0x8e>
     fb2:	40001737          	lui	a4,0x40001
     fb6:	80070693          	addi	a3,a4,-2048 # 40000800 <_eusrstack+0x1fff8800>
     fba:	02d50463          	beq	a0,a3,fe2 <TIM_TimeBaseInit+0x8e>
     fbe:	c0070713          	addi	a4,a4,-1024
     fc2:	02e50063          	beq	a0,a4,fe2 <TIM_TimeBaseInit+0x8e>
     fc6:	40013737          	lui	a4,0x40013
     fca:	40070713          	addi	a4,a4,1024 # 40013400 <_eusrstack+0x2000b400>
     fce:	00e50a63          	beq	a0,a4,fe2 <TIM_TimeBaseInit+0x8e>
     fd2:	40015737          	lui	a4,0x40015
     fd6:	c0070693          	addi	a3,a4,-1024 # 40014c00 <_eusrstack+0x2000cc00>
     fda:	00d50463          	beq	a0,a3,fe2 <TIM_TimeBaseInit+0x8e>
     fde:	00e51863          	bne	a0,a4,fee <TIM_TimeBaseInit+0x9a>
     fe2:	f8f7f793          	andi	a5,a5,-113
     fe6:	21ba                	lhu	a4,2(a1)
     fe8:	07c2                	slli	a5,a5,0x10
     fea:	83c1                	srli	a5,a5,0x10
     fec:	8fd9                	or	a5,a5,a4
     fee:	40001737          	lui	a4,0x40001
     ff2:	00e50c63          	beq	a0,a4,100a <TIM_TimeBaseInit+0xb6>
     ff6:	40070713          	addi	a4,a4,1024 # 40001400 <_eusrstack+0x1fff9400>
     ffa:	00e50863          	beq	a0,a4,100a <TIM_TimeBaseInit+0xb6>
     ffe:	cff7f793          	andi	a5,a5,-769
    1002:	21fa                	lhu	a4,6(a1)
    1004:	07c2                	slli	a5,a5,0x10
    1006:	83c1                	srli	a5,a5,0x10
    1008:	8fd9                	or	a5,a5,a4
    100a:	a11e                	sh	a5,0(a0)
    100c:	21de                	lhu	a5,4(a1)
    100e:	b55e                	sh	a5,44(a0)
    1010:	219e                	lhu	a5,0(a1)
    1012:	b51e                	sh	a5,40(a0)
    1014:	400137b7          	lui	a5,0x40013
    1018:	c0078713          	addi	a4,a5,-1024 # 40012c00 <_eusrstack+0x2000ac00>
    101c:	00e50e63          	beq	a0,a4,1038 <TIM_TimeBaseInit+0xe4>
    1020:	40078793          	addi	a5,a5,1024
    1024:	00f50a63          	beq	a0,a5,1038 <TIM_TimeBaseInit+0xe4>
    1028:	400157b7          	lui	a5,0x40015
    102c:	c0078713          	addi	a4,a5,-1024 # 40014c00 <_eusrstack+0x2000cc00>
    1030:	00e50463          	beq	a0,a4,1038 <TIM_TimeBaseInit+0xe4>
    1034:	00f51463          	bne	a0,a5,103c <TIM_TimeBaseInit+0xe8>
    1038:	259c                	lbu	a5,8(a1)
    103a:	b91e                	sh	a5,48(a0)
    103c:	4785                	li	a5,1
    103e:	a95e                	sh	a5,20(a0)
    1040:	8082                	ret

00001042 <TIM_Cmd>:
    1042:	211e                	lhu	a5,0(a0)
    1044:	c589                	beqz	a1,104e <TIM_Cmd+0xc>
    1046:	0017e793          	ori	a5,a5,1
    104a:	a11e                	sh	a5,0(a0)
    104c:	8082                	ret
    104e:	07c2                	slli	a5,a5,0x10
    1050:	83c1                	srli	a5,a5,0x10
    1052:	9bf9                	andi	a5,a5,-2
    1054:	07c2                	slli	a5,a5,0x10
    1056:	83c1                	srli	a5,a5,0x10
    1058:	bfcd                	j	104a <TIM_Cmd+0x8>

0000105a <TIM_ITConfig>:
    105a:	255e                	lhu	a5,12(a0)
    105c:	c601                	beqz	a2,1064 <TIM_ITConfig+0xa>
    105e:	8ddd                	or	a1,a1,a5
    1060:	a54e                	sh	a1,12(a0)
    1062:	8082                	ret
    1064:	fff5c593          	not	a1,a1
    1068:	8dfd                	and	a1,a1,a5
    106a:	bfdd                	j	1060 <TIM_ITConfig+0x6>

0000106c <TIM_GetITStatus>:
    106c:	291e                	lhu	a5,16(a0)
    106e:	254a                	lhu	a0,12(a0)
    1070:	8fed                	and	a5,a5,a1
    1072:	0542                	slli	a0,a0,0x10
    1074:	8141                	srli	a0,a0,0x10
    1076:	c789                	beqz	a5,1080 <TIM_GetITStatus+0x14>
    1078:	8d6d                	and	a0,a0,a1
    107a:	00a03533          	snez	a0,a0
    107e:	8082                	ret
    1080:	4501                	li	a0,0
    1082:	8082                	ret

00001084 <TIM_ClearITPendingBit>:
    1084:	fff5c593          	not	a1,a1
    1088:	05c2                	slli	a1,a1,0x10
    108a:	81c1                	srli	a1,a1,0x10
    108c:	a90e                	sh	a1,16(a0)
    108e:	8082                	ret

00001090 <USART_Init>:
    1090:	9a2ff2ef          	jal	t0,232 <__riscv_save_0>
    1094:	291a                	lhu	a4,16(a0)
    1096:	77f5                	lui	a5,0xffffd
    1098:	17fd                	addi	a5,a5,-1
    109a:	8ff9                	and	a5,a5,a4
    109c:	21fa                	lhu	a4,6(a1)
    109e:	7179                	addi	sp,sp,-48
    10a0:	842a                	mv	s0,a0
    10a2:	8fd9                	or	a5,a5,a4
    10a4:	a91e                	sh	a5,16(a0)
    10a6:	259a                	lhu	a4,8(a1)
    10a8:	21de                	lhu	a5,4(a1)
    10aa:	2556                	lhu	a3,12(a0)
    10ac:	c62e                	sw	a1,12(sp)
    10ae:	8fd9                	or	a5,a5,a4
    10b0:	25ba                	lhu	a4,10(a1)
    10b2:	8fd9                	or	a5,a5,a4
    10b4:	777d                	lui	a4,0xfffff
    10b6:	9f370713          	addi	a4,a4,-1549 # ffffe9f3 <_eusrstack+0xdfff69f3>
    10ba:	8f75                	and	a4,a4,a3
    10bc:	8fd9                	or	a5,a5,a4
    10be:	a55e                	sh	a5,12(a0)
    10c0:	295e                	lhu	a5,20(a0)
    10c2:	25da                	lhu	a4,12(a1)
    10c4:	07c2                	slli	a5,a5,0x10
    10c6:	83c1                	srli	a5,a5,0x10
    10c8:	cff7f793          	andi	a5,a5,-769
    10cc:	8fd9                	or	a5,a5,a4
    10ce:	a95e                	sh	a5,20(a0)
    10d0:	0868                	addi	a0,sp,28
    10d2:	31a1                	jal	d1a <RCC_GetClocksFreq>
    10d4:	400147b7          	lui	a5,0x40014
    10d8:	80078793          	addi	a5,a5,-2048 # 40013800 <_eusrstack+0x2000b800>
    10dc:	45b2                	lw	a1,12(sp)
    10de:	04f41163          	bne	s0,a5,1120 <USART_Init+0x90>
    10e2:	57a2                	lw	a5,40(sp)
    10e4:	4765                	li	a4,25
    10e6:	02e787b3          	mul	a5,a5,a4
    10ea:	4198                	lw	a4,0(a1)
    10ec:	06400613          	li	a2,100
    10f0:	070a                	slli	a4,a4,0x2
    10f2:	02e7d7b3          	divu	a5,a5,a4
    10f6:	02c7d6b3          	divu	a3,a5,a2
    10fa:	02c7f7b3          	remu	a5,a5,a2
    10fe:	0692                	slli	a3,a3,0x4
    1100:	00479713          	slli	a4,a5,0x4
    1104:	03270793          	addi	a5,a4,50
    1108:	63f00713          	li	a4,1599
    110c:	00f77c63          	bgeu	a4,a5,1124 <USART_Init+0x94>
    1110:	01068793          	addi	a5,a3,16
    1114:	07c2                	slli	a5,a5,0x10
    1116:	83c1                	srli	a5,a5,0x10
    1118:	a41e                	sh	a5,8(s0)
    111a:	6145                	addi	sp,sp,48
    111c:	93aff06f          	j	256 <__riscv_restore_0>
    1120:	5792                	lw	a5,36(sp)
    1122:	b7c9                	j	10e4 <USART_Init+0x54>
    1124:	02c7d7b3          	divu	a5,a5,a2
    1128:	8fd5                	or	a5,a5,a3
    112a:	b7ed                	j	1114 <USART_Init+0x84>

0000112c <USART_Cmd>:
    112c:	c591                	beqz	a1,1138 <USART_Cmd+0xc>
    112e:	255e                	lhu	a5,12(a0)
    1130:	6709                	lui	a4,0x2
    1132:	8fd9                	or	a5,a5,a4
    1134:	a55e                	sh	a5,12(a0)
    1136:	8082                	ret
    1138:	255a                	lhu	a4,12(a0)
    113a:	77f9                	lui	a5,0xffffe
    113c:	17fd                	addi	a5,a5,-1
    113e:	8ff9                	and	a5,a5,a4
    1140:	bfd5                	j	1134 <USART_Cmd+0x8>

00001142 <USART_SendData>:
    1142:	1ff5f593          	andi	a1,a1,511
    1146:	a14e                	sh	a1,4(a0)
    1148:	8082                	ret

0000114a <USART_GetFlagStatus>:
    114a:	210a                	lhu	a0,0(a0)
    114c:	8d6d                	and	a0,a0,a1
    114e:	00a03533          	snez	a0,a0
    1152:	8082                	ret

00001154 <os_hal_adc_core_init>:
    1154:	8deff2ef          	jal	t0,232 <__riscv_save_0>
    1158:	1101                	addi	sp,sp,-32
    115a:	02000613          	li	a2,32
    115e:	4581                	li	a1,0
    1160:	850a                	mv	a0,sp
    1162:	900ff0ef          	jal	ra,262 <memset>
    1166:	83418513          	addi	a0,gp,-1996 # 200000f4 <adc_mutex>
    116a:	459000ef          	jal	ra,1dc2 <mutex_init>
    116e:	4585                	li	a1,1
    1170:	20000513          	li	a0,512
    1174:	3b31                	jal	e90 <RCC_APB2PeriphClockCmd>
    1176:	6531                	lui	a0,0xc
    1178:	40012437          	lui	s0,0x40012
    117c:	3671                	jal	d08 <RCC_ADCCLKConfig>
    117e:	40040513          	addi	a0,s0,1024 # 40012400 <_eusrstack+0x2000a400>
    1182:	895ff0ef          	jal	ra,a16 <ADC_DeInit>
    1186:	000e07b7          	lui	a5,0xe0
    118a:	c63e                	sw	a5,12(sp)
    118c:	858a                	mv	a1,sp
    118e:	4785                	li	a5,1
    1190:	40040513          	addi	a0,s0,1024
    1194:	00f10a23          	sb	a5,20(sp)
    1198:	c002                	sw	zero,0(sp)
    119a:	c202                	sw	zero,4(sp)
    119c:	c402                	sw	zero,8(sp)
    119e:	c802                	sw	zero,16(sp)
    11a0:	8b7ff0ef          	jal	ra,a56 <ADC_Init>
    11a4:	4585                	li	a1,1
    11a6:	40040513          	addi	a0,s0,1024
    11aa:	903ff0ef          	jal	ra,aac <ADC_Cmd>
    11ae:	4581                	li	a1,0
    11b0:	40040513          	addi	a0,s0,1024
    11b4:	3439                	jal	bc2 <ADC_BufferCmd>
    11b6:	40040513          	addi	a0,s0,1024
    11ba:	903ff0ef          	jal	ra,abc <ADC_ResetCalibration>
    11be:	40040493          	addi	s1,s0,1024
    11c2:	8526                	mv	a0,s1
    11c4:	903ff0ef          	jal	ra,ac6 <ADC_GetResetCalibrationStatus>
    11c8:	fd6d                	bnez	a0,11c2 <os_hal_adc_core_init+0x6e>
    11ca:	40040513          	addi	a0,s0,1024
    11ce:	40012437          	lui	s0,0x40012
    11d2:	8fdff0ef          	jal	ra,ace <ADC_StartCalibration>
    11d6:	40040493          	addi	s1,s0,1024 # 40012400 <_eusrstack+0x2000a400>
    11da:	8526                	mv	a0,s1
    11dc:	8fdff0ef          	jal	ra,ad8 <ADC_GetCalibrationStatus>
    11e0:	fd6d                	bnez	a0,11da <os_hal_adc_core_init+0x86>
    11e2:	4585                	li	a1,1
    11e4:	40040513          	addi	a0,s0,1024
    11e8:	3ae9                	jal	bc2 <ADC_BufferCmd>
    11ea:	0000b537          	lui	a0,0xb
    11ee:	96450513          	addi	a0,a0,-1692 # a964 <_exit+0x318>
    11f2:	618080ef          	jal	ra,980a <puts>
    11f6:	6105                	addi	sp,sp,32
    11f8:	85eff06f          	j	256 <__riscv_restore_0>

000011fc <os_hal_adc_channel_init>:
    11fc:	836ff2ef          	jal	t0,232 <__riscv_save_0>
    1200:	842a                	mv	s0,a0
    1202:	4108                	lw	a0,0(a0)
    1204:	1141                	addi	sp,sp,-16
    1206:	4585                	li	a1,1
    1208:	c202                	sw	zero,4(sp)
    120a:	c402                	sw	zero,8(sp)
    120c:	c602                	sw	zero,12(sp)
    120e:	3149                	jal	e90 <RCC_APB2PeriphClockCmd>
    1210:	241e                	lhu	a5,8(s0)
    1212:	4048                	lw	a0,4(s0)
    1214:	004c                	addi	a1,sp,4
    1216:	827c                	sh	a5,4(sp)
    1218:	c602                	sw	zero,12(sp)
    121a:	9c1ff0ef          	jal	ra,bda <GPIO_Init>
    121e:	0141                	addi	sp,sp,16
    1220:	836ff06f          	j	256 <__riscv_restore_0>

00001224 <os_hal_adc_read>:
    1224:	ff5fe2ef          	jal	t0,218 <__riscv_save_4>
    1228:	8a2a                	mv	s4,a0
    122a:	40012437          	lui	s0,0x40012
    122e:	83418513          	addi	a0,gp,-1996 # 200000f4 <adc_mutex>
    1232:	397000ef          	jal	ra,1dc8 <mutex_lock>
    1236:	4929                	li	s2,10
    1238:	4481                	li	s1,0
    123a:	40040413          	addi	s0,s0,1024 # 40012400 <_eusrstack+0x2000a400>
    123e:	85d2                	mv	a1,s4
    1240:	8522                	mv	a0,s0
    1242:	469d                	li	a3,7
    1244:	4605                	li	a2,1
    1246:	8b3ff0ef          	jal	ra,af8 <ADC_RegularChannelConfig>
    124a:	4585                	li	a1,1
    124c:	8522                	mv	a0,s0
    124e:	893ff0ef          	jal	ra,ae0 <ADC_SoftwareStartConvCmd>
    1252:	4589                	li	a1,2
    1254:	8522                	mv	a0,s0
    1256:	963ff0ef          	jal	ra,bb8 <ADC_GetFlagStatus>
    125a:	dd65                	beqz	a0,1252 <os_hal_adc_read+0x2e>
    125c:	8522                	mv	a0,s0
    125e:	953ff0ef          	jal	ra,bb0 <ADC_GetConversionValue>
    1262:	197d                	addi	s2,s2,-1
    1264:	94aa                	add	s1,s1,a0
    1266:	0ff97913          	andi	s2,s2,255
    126a:	4515                	li	a0,5
    126c:	2ed040ef          	jal	ra,5d58 <Delay_Ms>
    1270:	fc0917e3          	bnez	s2,123e <os_hal_adc_read+0x1a>
    1274:	83418513          	addi	a0,gp,-1996 # 200000f4 <adc_mutex>
    1278:	36f000ef          	jal	ra,1de6 <mutex_unlock>
    127c:	4529                	li	a0,10
    127e:	02a4d533          	divu	a0,s1,a0
    1282:	0542                	slli	a0,a0,0x10
    1284:	8141                	srli	a0,a0,0x10
    1286:	fc7fe06f          	j	24c <__riscv_restore_4>

0000128a <os_hal_gpio_set>:
    128a:	fa9fe2ef          	jal	t0,232 <__riscv_save_0>
    128e:	87aa                	mv	a5,a0
    1290:	279a                	lhu	a4,8(a5)
    1292:	2b9c                	lbu	a5,16(a5)
    1294:	4148                	lw	a0,4(a0)
    1296:	00b79763          	bne	a5,a1,12a4 <os_hal_gpio_set+0x1a>
    129a:	85ba                	mv	a1,a4
    129c:	9ffff0ef          	jal	ra,c9a <GPIO_SetBits>
    12a0:	fb7fe06f          	j	256 <__riscv_restore_0>
    12a4:	85ba                	mv	a1,a4
    12a6:	9f9ff0ef          	jal	ra,c9e <GPIO_ResetBits>
    12aa:	bfdd                	j	12a0 <os_hal_gpio_set+0x16>

000012ac <os_hal_gpio_init>:
    12ac:	f87fe2ef          	jal	t0,232 <__riscv_save_0>
    12b0:	842a                	mv	s0,a0
    12b2:	4108                	lw	a0,0(a0)
    12b4:	1141                	addi	sp,sp,-16
    12b6:	4585                	li	a1,1
    12b8:	c202                	sw	zero,4(sp)
    12ba:	c402                	sw	zero,8(sp)
    12bc:	c602                	sw	zero,12(sp)
    12be:	3ec9                	jal	e90 <RCC_APB2PeriphClockCmd>
    12c0:	241e                	lhu	a5,8(s0)
    12c2:	4048                	lw	a0,4(s0)
    12c4:	004c                	addi	a1,sp,4
    12c6:	827c                	sh	a5,4(sp)
    12c8:	445c                	lw	a5,12(s0)
    12ca:	c63e                	sw	a5,12(sp)
    12cc:	478d                	li	a5,3
    12ce:	c43e                	sw	a5,8(sp)
    12d0:	90bff0ef          	jal	ra,bda <GPIO_Init>
    12d4:	4581                	li	a1,0
    12d6:	8522                	mv	a0,s0
    12d8:	3f4d                	jal	128a <os_hal_gpio_set>
    12da:	0141                	addi	sp,sp,16
    12dc:	f7bfe06f          	j	256 <__riscv_restore_0>

000012e0 <os_hal_spi_init>:
    12e0:	f53fe2ef          	jal	t0,232 <__riscv_save_0>
    12e4:	6505                	lui	a0,0x1
    12e6:	1101                	addi	sp,sp,-32
    12e8:	4585                	li	a1,1
    12ea:	0511                	addi	a0,a0,4
    12ec:	c002                	sw	zero,0(sp)
    12ee:	c202                	sw	zero,4(sp)
    12f0:	c402                	sw	zero,8(sp)
    12f2:	c602                	sw	zero,12(sp)
    12f4:	c802                	sw	zero,16(sp)
    12f6:	ca02                	sw	zero,20(sp)
    12f8:	cc02                	sw	zero,24(sp)
    12fa:	00011e23          	sh	zero,28(sp)
    12fe:	3e49                	jal	e90 <RCC_APB2PeriphClockCmd>
    1300:	40011437          	lui	s0,0x40011
    1304:	4791                	li	a5,4
    1306:	448d                	li	s1,3
    1308:	807c                	sh	a5,0(sp)
    130a:	858a                	mv	a1,sp
    130c:	47c1                	li	a5,16
    130e:	80040513          	addi	a0,s0,-2048 # 40010800 <_eusrstack+0x20008800>
    1312:	c43e                	sw	a5,8(sp)
    1314:	c226                	sw	s1,4(sp)
    1316:	8c5ff0ef          	jal	ra,bda <GPIO_Init>
    131a:	80040513          	addi	a0,s0,-2048
    131e:	4591                	li	a1,4
    1320:	97bff0ef          	jal	ra,c9a <GPIO_SetBits>
    1324:	02000793          	li	a5,32
    1328:	4961                	li	s2,24
    132a:	858a                	mv	a1,sp
    132c:	80040513          	addi	a0,s0,-2048
    1330:	807c                	sh	a5,0(sp)
    1332:	c44a                	sw	s2,8(sp)
    1334:	c226                	sw	s1,4(sp)
    1336:	8a5ff0ef          	jal	ra,bda <GPIO_Init>
    133a:	04000793          	li	a5,64
    133e:	807c                	sh	a5,0(sp)
    1340:	858a                	mv	a1,sp
    1342:	4791                	li	a5,4
    1344:	80040513          	addi	a0,s0,-2048
    1348:	c43e                	sw	a5,8(sp)
    134a:	891ff0ef          	jal	ra,bda <GPIO_Init>
    134e:	08000793          	li	a5,128
    1352:	858a                	mv	a1,sp
    1354:	80040513          	addi	a0,s0,-2048
    1358:	807c                	sh	a5,0(sp)
    135a:	c44a                	sw	s2,8(sp)
    135c:	c226                	sw	s1,4(sp)
    135e:	87dff0ef          	jal	ra,bda <GPIO_Init>
    1362:	010407b7          	lui	a5,0x1040
    1366:	c63e                	sw	a5,12(sp)
    1368:	000207b7          	lui	a5,0x20
    136c:	c83e                	sw	a5,16(sp)
    136e:	020007b7          	lui	a5,0x2000
    1372:	0785                	addi	a5,a5,1
    1374:	ca3e                	sw	a5,20(sp)
    1376:	47a1                	li	a5,8
    1378:	cc3e                	sw	a5,24(sp)
    137a:	006c                	addi	a1,sp,12
    137c:	479d                	li	a5,7
    137e:	40013537          	lui	a0,0x40013
    1382:	86fc                	sh	a5,28(sp)
    1384:	369d                	jal	eea <SPI_Init>
    1386:	4585                	li	a1,1
    1388:	40013537          	lui	a0,0x40013
    138c:	3e71                	jal	f28 <SPI_Cmd>
    138e:	6105                	addi	sp,sp,32
    1390:	ec7fe06f          	j	256 <__riscv_restore_0>

00001394 <os_hal_spi_cs>:
    1394:	e9ffe2ef          	jal	t0,232 <__riscv_save_0>
    1398:	4601                	li	a2,0
    139a:	c111                	beqz	a0,139e <os_hal_spi_cs+0xa>
    139c:	4605                	li	a2,1
    139e:	40011537          	lui	a0,0x40011
    13a2:	4591                	li	a1,4
    13a4:	80050513          	addi	a0,a0,-2048 # 40010800 <_eusrstack+0x20008800>
    13a8:	8fbff0ef          	jal	ra,ca2 <GPIO_WriteBit>
    13ac:	eabfe06f          	j	256 <__riscv_restore_0>

000013b0 <os_hal_spi_rw_byte>:
    13b0:	e83fe2ef          	jal	t0,232 <__riscv_save_0>
    13b4:	842a                	mv	s0,a0
    13b6:	4589                	li	a1,2
    13b8:	40013537          	lui	a0,0x40013
    13bc:	3679                	jal	f4a <SPI_I2S_GetFlagStatus>
    13be:	dd65                	beqz	a0,13b6 <os_hal_spi_rw_byte+0x6>
    13c0:	85a2                	mv	a1,s0
    13c2:	40013537          	lui	a0,0x40013
    13c6:	3eb5                	jal	f42 <SPI_I2S_SendData>
    13c8:	4585                	li	a1,1
    13ca:	40013537          	lui	a0,0x40013
    13ce:	3eb5                	jal	f4a <SPI_I2S_GetFlagStatus>
    13d0:	dd65                	beqz	a0,13c8 <os_hal_spi_rw_byte+0x18>
    13d2:	40013537          	lui	a0,0x40013
    13d6:	3e85                	jal	f46 <SPI_I2S_ReceiveData>
    13d8:	0ff57513          	andi	a0,a0,255
    13dc:	e7bfe06f          	j	256 <__riscv_restore_0>

000013e0 <oled_write>:
    13e0:	c1c5                	beqz	a1,1480 <oled_write+0xa0>
    13e2:	e37fe2ef          	jal	t0,218 <__riscv_save_4>
    13e6:	1101                	addi	sp,sp,-32
    13e8:	84ae                	mv	s1,a1
    13ea:	4781                	li	a5,0
    13ec:	4401                	li	s0,0
    13ee:	499d                	li	s3,7
    13f0:	4a29                	li	s4,10
    13f2:	493d                	li	s2,15
    13f4:	02000a93          	li	s5,32
    13f8:	00048703          	lb	a4,0(s1)
    13fc:	eb21                	bnez	a4,144c <oled_write+0x6c>
    13fe:	449d                	li	s1,7
    1400:	493d                	li	s2,15
    1402:	02000993          	li	s3,32
    1406:	0484fe63          	bgeu	s1,s0,1462 <oled_write+0x82>
    140a:	a099                	j	1450 <oled_write+0x70>
    140c:	03471863          	bne	a4,s4,143c <oled_write+0x5c>
    1410:	02f95063          	bge	s2,a5,1430 <oled_write+0x50>
    1414:	85a2                	mv	a1,s0
    1416:	46c1                	li	a3,16
    1418:	0070                	addi	a2,sp,12
    141a:	4501                	li	a0,0
    141c:	00010e23          	sb	zero,28(sp)
    1420:	0409                	addi	s0,s0,2
    1422:	6f4000ef          	jal	ra,1b16 <OLED_ShowString>
    1426:	0ff47413          	andi	s0,s0,255
    142a:	4781                	li	a5,0
    142c:	0485                	addi	s1,s1,1
    142e:	b7e9                	j	13f8 <oled_write+0x18>
    1430:	0078                	addi	a4,sp,12
    1432:	973e                	add	a4,a4,a5
    1434:	01570023          	sb	s5,0(a4) # 2000 <os_timer_ticks_update+0x14>
    1438:	0785                	addi	a5,a5,1
    143a:	bfd9                	j	1410 <oled_write+0x30>
    143c:	fef948e3          	blt	s2,a5,142c <oled_write+0x4c>
    1440:	1014                	addi	a3,sp,32
    1442:	96be                	add	a3,a3,a5
    1444:	fee68623          	sb	a4,-20(a3)
    1448:	0785                	addi	a5,a5,1
    144a:	b7cd                	j	142c <oled_write+0x4c>
    144c:	fc89f0e3          	bgeu	s3,s0,140c <oled_write+0x2c>
    1450:	4501                	li	a0,0
    1452:	6105                	addi	sp,sp,32
    1454:	df9fe06f          	j	24c <__riscv_restore_4>
    1458:	0078                	addi	a4,sp,12
    145a:	973e                	add	a4,a4,a5
    145c:	01370023          	sb	s3,0(a4)
    1460:	0785                	addi	a5,a5,1
    1462:	fef95be3          	bge	s2,a5,1458 <oled_write+0x78>
    1466:	85a2                	mv	a1,s0
    1468:	46c1                	li	a3,16
    146a:	0070                	addi	a2,sp,12
    146c:	4501                	li	a0,0
    146e:	00010e23          	sb	zero,28(sp)
    1472:	0409                	addi	s0,s0,2
    1474:	6a2000ef          	jal	ra,1b16 <OLED_ShowString>
    1478:	0ff47413          	andi	s0,s0,255
    147c:	4781                	li	a5,0
    147e:	b761                	j	1406 <oled_write+0x26>
    1480:	557d                	li	a0,-1
    1482:	8082                	ret

00001484 <drv_oled_register>:
    1484:	daffe2ef          	jal	t0,232 <__riscv_save_0>
    1488:	1141                	addi	sp,sp,-16
    148a:	4585                	li	a1,1
    148c:	4521                	li	a0,8
    148e:	a03ff0ef          	jal	ra,e90 <RCC_APB2PeriphClockCmd>
    1492:	6785                	lui	a5,0x1
    1494:	c0078793          	addi	a5,a5,-1024 # c00 <GPIO_Init+0x26>
    1498:	827c                	sh	a5,4(sp)
    149a:	40011537          	lui	a0,0x40011
    149e:	478d                	li	a5,3
    14a0:	004c                	addi	a1,sp,4
    14a2:	c0050513          	addi	a0,a0,-1024 # 40010c00 <_eusrstack+0x20008c00>
    14a6:	c43e                	sw	a5,8(sp)
    14a8:	47c1                	li	a5,16
    14aa:	c63e                	sw	a5,12(sp)
    14ac:	f2eff0ef          	jal	ra,bda <GPIO_Init>
    14b0:	6a6000ef          	jal	ra,1b56 <OLED_Init>
    14b4:	59e000ef          	jal	ra,1a52 <OLED_Clear>
    14b8:	0000b637          	lui	a2,0xb
    14bc:	46c1                	li	a3,16
    14be:	98c60613          	addi	a2,a2,-1652 # a98c <_exit+0x340>
    14c2:	4581                	li	a1,0
    14c4:	4501                	li	a0,0
    14c6:	650000ef          	jal	ra,1b16 <OLED_ShowString>
    14ca:	20000537          	lui	a0,0x20000
    14ce:	02050513          	addi	a0,a0,32 # 20000020 <dev_oled>
    14d2:	760000ef          	jal	ra,1c32 <os_device_register>
    14d6:	0141                	addi	sp,sp,16
    14d8:	d7ffe06f          	j	256 <__riscv_restore_0>

000014dc <led_write>:
    14dc:	4785                	li	a5,1
    14de:	00f61a63          	bne	a2,a5,14f2 <led_write+0x16>
    14e2:	d51fe2ef          	jal	t0,232 <__riscv_save_0>
    14e6:	218c                	lbu	a1,0(a1)
    14e8:	4508                	lw	a0,8(a0)
    14ea:	3345                	jal	128a <os_hal_gpio_set>
    14ec:	4501                	li	a0,0
    14ee:	d69fe06f          	j	256 <__riscv_restore_0>
    14f2:	557d                	li	a0,-1
    14f4:	8082                	ret

000014f6 <light_read>:
    14f6:	4791                	li	a5,4
    14f8:	02f61263          	bne	a2,a5,151c <light_read+0x26>
    14fc:	d37fe2ef          	jal	t0,232 <__riscv_save_0>
    1500:	451c                	lw	a5,8(a0)
    1502:	842e                	mv	s0,a1
    1504:	27a8                	lbu	a0,10(a5)
    1506:	3b39                	jal	1224 <os_hal_adc_read>
    1508:	6785                	lui	a5,0x1
    150a:	ce478793          	addi	a5,a5,-796 # ce4 <NVIC_Init+0x38>
    150e:	02f50533          	mul	a0,a0,a5
    1512:	8531                	srai	a0,a0,0xc
    1514:	c008                	sw	a0,0(s0)
    1516:	4501                	li	a0,0
    1518:	d3ffe06f          	j	256 <__riscv_restore_0>
    151c:	557d                	li	a0,-1
    151e:	8082                	ret

00001520 <temp_read>:
    1520:	4791                	li	a5,4
    1522:	0af61a63          	bne	a2,a5,15d6 <temp_read+0xb6>
    1526:	d0dfe2ef          	jal	t0,232 <__riscv_save_0>
    152a:	451c                	lw	a5,8(a0)
    152c:	842e                	mv	s0,a1
    152e:	27a8                	lbu	a0,10(a5)
    1530:	39d5                	jal	1224 <os_hal_adc_read>
    1532:	e909                	bnez	a0,1544 <temp_read+0x24>
    1534:	0000b7b7          	lui	a5,0xb
    1538:	9fc7a783          	lw	a5,-1540(a5) # a9fc <temp_ops+0x10>
    153c:	c01c                	sw	a5,0(s0)
    153e:	4501                	li	a0,0
    1540:	d17fe06f          	j	256 <__riscv_restore_0>
    1544:	6785                	lui	a5,0x1
    1546:	17fd                	addi	a5,a5,-1
    1548:	00f51763          	bne	a0,a5,1556 <temp_read+0x36>
    154c:	0000b7b7          	lui	a5,0xb
    1550:	a007a783          	lw	a5,-1536(a5) # aa00 <temp_ops+0x14>
    1554:	b7e5                	j	153c <temp_read+0x1c>
    1556:	53c070ef          	jal	ra,8a92 <__floatunsisf>
    155a:	0000b7b7          	lui	a5,0xb
    155e:	84aa                	mv	s1,a0
    1560:	85aa                	mv	a1,a0
    1562:	a047a503          	lw	a0,-1532(a5) # aa04 <temp_ops+0x18>
    1566:	078070ef          	jal	ra,85de <__subsf3>
    156a:	85aa                	mv	a1,a0
    156c:	8526                	mv	a0,s1
    156e:	1bd060ef          	jal	ra,7f2a <__divsf3>
    1572:	0000b4b7          	lui	s1,0xb
    1576:	a084a583          	lw	a1,-1528(s1) # aa08 <temp_ops+0x1c>
    157a:	5d1060ef          	jal	ra,834a <__mulsf3>
    157e:	a084a583          	lw	a1,-1528(s1)
    1582:	1a9060ef          	jal	ra,7f2a <__divsf3>
    1586:	5dc070ef          	jal	ra,8b62 <__extendsfdf2>
    158a:	0c7040ef          	jal	ra,5e50 <log>
    158e:	0000b7b7          	lui	a5,0xb
    1592:	a107a603          	lw	a2,-1520(a5) # aa10 <temp_ops+0x24>
    1596:	a147a683          	lw	a3,-1516(a5)
    159a:	4ed050ef          	jal	ra,7286 <__muldf3>
    159e:	0000b7b7          	lui	a5,0xb
    15a2:	a187a603          	lw	a2,-1512(a5) # aa18 <temp_ops+0x2c>
    15a6:	a1c7a683          	lw	a3,-1508(a5)
    15aa:	6e1040ef          	jal	ra,648a <__adddf3>
    15ae:	0000b7b7          	lui	a5,0xb
    15b2:	862a                	mv	a2,a0
    15b4:	86ae                	mv	a3,a1
    15b6:	a207a503          	lw	a0,-1504(a5) # aa20 <temp_ops+0x34>
    15ba:	a247a583          	lw	a1,-1500(a5)
    15be:	5fc050ef          	jal	ra,6bba <__divdf3>
    15c2:	64e070ef          	jal	ra,8c10 <__truncdfsf2>
    15c6:	0000b7b7          	lui	a5,0xb
    15ca:	a0c7a583          	lw	a1,-1524(a5) # aa0c <temp_ops+0x20>
    15ce:	010070ef          	jal	ra,85de <__subsf3>
    15d2:	c008                	sw	a0,0(s0)
    15d4:	b7ad                	j	153e <temp_read+0x1e>
    15d6:	557d                	li	a0,-1
    15d8:	8082                	ret

000015da <drv_smarthome_init>:
    15da:	c59fe2ef          	jal	t0,232 <__riscv_save_0>
    15de:	3e9d                	jal	1154 <os_hal_adc_core_init>
    15e0:	652d                	lui	a0,0xb
    15e2:	a2850513          	addi	a0,a0,-1496 # aa28 <temp_sensor_hw>
    15e6:	3919                	jal	11fc <os_hal_adc_channel_init>
    15e8:	652d                	lui	a0,0xb
    15ea:	9e050513          	addi	a0,a0,-1568 # a9e0 <light_sensor_hw>
    15ee:	3139                	jal	11fc <os_hal_adc_channel_init>
    15f0:	652d                	lui	a0,0xb
    15f2:	9ac50513          	addi	a0,a0,-1620 # a9ac <alarm_led_hw>
    15f6:	395d                	jal	12ac <os_hal_gpio_init>
    15f8:	20000537          	lui	a0,0x20000
    15fc:	05050513          	addi	a0,a0,80 # 20000050 <dev_temp>
    1600:	632000ef          	jal	ra,1c32 <os_device_register>
    1604:	20000537          	lui	a0,0x20000
    1608:	04050513          	addi	a0,a0,64 # 20000040 <dev_light>
    160c:	626000ef          	jal	ra,1c32 <os_device_register>
    1610:	20000537          	lui	a0,0x20000
    1614:	03050513          	addi	a0,a0,48 # 20000030 <dev_led>
    1618:	61a000ef          	jal	ra,1c32 <os_device_register>
    161c:	c3bfe06f          	j	256 <__riscv_restore_0>

00001620 <SPI_FLASH_Write_Enable>:
    1620:	c13fe2ef          	jal	t0,232 <__riscv_save_0>
    1624:	4501                	li	a0,0
    1626:	33bd                	jal	1394 <os_hal_spi_cs>
    1628:	4519                	li	a0,6
    162a:	3359                	jal	13b0 <os_hal_spi_rw_byte>
    162c:	4505                	li	a0,1
    162e:	339d                	jal	1394 <os_hal_spi_cs>
    1630:	c27fe06f          	j	256 <__riscv_restore_0>

00001634 <SPI_Flash_Wait_Busy>:
    1634:	bfffe2ef          	jal	t0,232 <__riscv_save_0>
    1638:	4501                	li	a0,0
    163a:	3ba9                	jal	1394 <os_hal_spi_cs>
    163c:	4515                	li	a0,5
    163e:	3b8d                	jal	13b0 <os_hal_spi_rw_byte>
    1640:	0ff00513          	li	a0,255
    1644:	33b5                	jal	13b0 <os_hal_spi_rw_byte>
    1646:	842a                	mv	s0,a0
    1648:	8805                	andi	s0,s0,1
    164a:	4505                	li	a0,1
    164c:	33a1                	jal	1394 <os_hal_spi_cs>
    164e:	f46d                	bnez	s0,1638 <SPI_Flash_Wait_Busy+0x4>
    1650:	c07fe06f          	j	256 <__riscv_restore_0>

00001654 <drv_w25qxx_unprotect>:
    1654:	bdffe2ef          	jal	t0,232 <__riscv_save_0>
    1658:	37e1                	jal	1620 <SPI_FLASH_Write_Enable>
    165a:	4501                	li	a0,0
    165c:	3b25                	jal	1394 <os_hal_spi_cs>
    165e:	4505                	li	a0,1
    1660:	3b81                	jal	13b0 <os_hal_spi_rw_byte>
    1662:	4501                	li	a0,0
    1664:	33b1                	jal	13b0 <os_hal_spi_rw_byte>
    1666:	4505                	li	a0,1
    1668:	3335                	jal	1394 <os_hal_spi_cs>
    166a:	37e9                	jal	1634 <SPI_Flash_Wait_Busy>
    166c:	bebfe06f          	j	256 <__riscv_restore_0>

00001670 <drv_w25qxx_init>:
    1670:	bc3fe2ef          	jal	t0,232 <__riscv_save_0>
    1674:	31b5                	jal	12e0 <os_hal_spi_init>
    1676:	4501                	li	a0,0
    1678:	3b31                	jal	1394 <os_hal_spi_cs>
    167a:	09000513          	li	a0,144
    167e:	3b0d                	jal	13b0 <os_hal_spi_rw_byte>
    1680:	4501                	li	a0,0
    1682:	333d                	jal	13b0 <os_hal_spi_rw_byte>
    1684:	4501                	li	a0,0
    1686:	332d                	jal	13b0 <os_hal_spi_rw_byte>
    1688:	4501                	li	a0,0
    168a:	331d                	jal	13b0 <os_hal_spi_rw_byte>
    168c:	0ff00513          	li	a0,255
    1690:	3305                	jal	13b0 <os_hal_spi_rw_byte>
    1692:	0522                	slli	a0,a0,0x8
    1694:	01051413          	slli	s0,a0,0x10
    1698:	0ff00513          	li	a0,255
    169c:	3b11                	jal	13b0 <os_hal_spi_rw_byte>
    169e:	8041                	srli	s0,s0,0x10
    16a0:	8c49                	or	s0,s0,a0
    16a2:	0442                	slli	s0,s0,0x10
    16a4:	4505                	li	a0,1
    16a6:	8041                	srli	s0,s0,0x10
    16a8:	31f5                	jal	1394 <os_hal_spi_cs>
    16aa:	8522                	mv	a0,s0
    16ac:	babfe06f          	j	256 <__riscv_restore_0>

000016b0 <drv_w25qxx_read>:
    16b0:	b83fe2ef          	jal	t0,232 <__riscv_save_0>
    16b4:	892a                	mv	s2,a0
    16b6:	4501                	li	a0,0
    16b8:	842e                	mv	s0,a1
    16ba:	84b2                	mv	s1,a2
    16bc:	39e1                	jal	1394 <os_hal_spi_cs>
    16be:	450d                	li	a0,3
    16c0:	39c5                	jal	13b0 <os_hal_spi_rw_byte>
    16c2:	01045513          	srli	a0,s0,0x10
    16c6:	0ff57513          	andi	a0,a0,255
    16ca:	31dd                	jal	13b0 <os_hal_spi_rw_byte>
    16cc:	00845513          	srli	a0,s0,0x8
    16d0:	0ff57513          	andi	a0,a0,255
    16d4:	39f1                	jal	13b0 <os_hal_spi_rw_byte>
    16d6:	0ff47513          	andi	a0,s0,255
    16da:	39d9                	jal	13b0 <os_hal_spi_rw_byte>
    16dc:	4401                	li	s0,0
    16de:	01041793          	slli	a5,s0,0x10
    16e2:	83c1                	srli	a5,a5,0x10
    16e4:	0097e663          	bltu	a5,s1,16f0 <drv_w25qxx_read+0x40>
    16e8:	4505                	li	a0,1
    16ea:	316d                	jal	1394 <os_hal_spi_cs>
    16ec:	b6bfe06f          	j	256 <__riscv_restore_0>
    16f0:	0ff00513          	li	a0,255
    16f4:	3975                	jal	13b0 <os_hal_spi_rw_byte>
    16f6:	008907b3          	add	a5,s2,s0
    16fa:	a388                	sb	a0,0(a5)
    16fc:	0405                	addi	s0,s0,1
    16fe:	b7c5                	j	16de <drv_w25qxx_read+0x2e>

00001700 <drv_w25qxx_write_page>:
    1700:	b33fe2ef          	jal	t0,232 <__riscv_save_0>
    1704:	842e                	mv	s0,a1
    1706:	84b2                	mv	s1,a2
    1708:	892a                	mv	s2,a0
    170a:	3f19                	jal	1620 <SPI_FLASH_Write_Enable>
    170c:	4501                	li	a0,0
    170e:	3159                	jal	1394 <os_hal_spi_cs>
    1710:	4509                	li	a0,2
    1712:	3979                	jal	13b0 <os_hal_spi_rw_byte>
    1714:	01045513          	srli	a0,s0,0x10
    1718:	0ff57513          	andi	a0,a0,255
    171c:	3951                	jal	13b0 <os_hal_spi_rw_byte>
    171e:	00845513          	srli	a0,s0,0x8
    1722:	0ff57513          	andi	a0,a0,255
    1726:	3169                	jal	13b0 <os_hal_spi_rw_byte>
    1728:	0ff47513          	andi	a0,s0,255
    172c:	3151                	jal	13b0 <os_hal_spi_rw_byte>
    172e:	4401                	li	s0,0
    1730:	01041793          	slli	a5,s0,0x10
    1734:	83c1                	srli	a5,a5,0x10
    1736:	0097e863          	bltu	a5,s1,1746 <drv_w25qxx_write_page+0x46>
    173a:	4505                	li	a0,1
    173c:	c59ff0ef          	jal	ra,1394 <os_hal_spi_cs>
    1740:	3dd5                	jal	1634 <SPI_Flash_Wait_Busy>
    1742:	b15fe06f          	j	256 <__riscv_restore_0>
    1746:	008907b3          	add	a5,s2,s0
    174a:	2388                	lbu	a0,0(a5)
    174c:	0405                	addi	s0,s0,1
    174e:	c63ff0ef          	jal	ra,13b0 <os_hal_spi_rw_byte>
    1752:	bff9                	j	1730 <drv_w25qxx_write_page+0x30>

00001754 <drv_w25qxx_erase_sector>:
    1754:	adffe2ef          	jal	t0,232 <__riscv_save_0>
    1758:	00c51413          	slli	s0,a0,0xc
    175c:	35d1                	jal	1620 <SPI_FLASH_Write_Enable>
    175e:	4501                	li	a0,0
    1760:	c35ff0ef          	jal	ra,1394 <os_hal_spi_cs>
    1764:	02000513          	li	a0,32
    1768:	c49ff0ef          	jal	ra,13b0 <os_hal_spi_rw_byte>
    176c:	01045513          	srli	a0,s0,0x10
    1770:	0ff57513          	andi	a0,a0,255
    1774:	c3dff0ef          	jal	ra,13b0 <os_hal_spi_rw_byte>
    1778:	00845513          	srli	a0,s0,0x8
    177c:	0f057513          	andi	a0,a0,240
    1780:	c31ff0ef          	jal	ra,13b0 <os_hal_spi_rw_byte>
    1784:	4501                	li	a0,0
    1786:	c2bff0ef          	jal	ra,13b0 <os_hal_spi_rw_byte>
    178a:	4505                	li	a0,1
    178c:	c09ff0ef          	jal	ra,1394 <os_hal_spi_cs>
    1790:	3555                	jal	1634 <SPI_Flash_Wait_Busy>
    1792:	ac5fe06f          	j	256 <__riscv_restore_0>

00001796 <lfs_w25qxx_sync>:
    1796:	4501                	li	a0,0
    1798:	8082                	ret

0000179a <lfs_w25qxx_erase>:
    179a:	a99fe2ef          	jal	t0,232 <__riscv_save_0>
    179e:	852e                	mv	a0,a1
    17a0:	3f55                	jal	1754 <drv_w25qxx_erase_sector>
    17a2:	4501                	li	a0,0
    17a4:	ab3fe06f          	j	256 <__riscv_restore_0>

000017a8 <lfs_w25qxx_prog>:
    17a8:	a8bfe2ef          	jal	t0,232 <__riscv_save_0>
    17ac:	4d40                	lw	s0,28(a0)
    17ae:	1141                	addi	sp,sp,-16
    17b0:	10000913          	li	s2,256
    17b4:	02858433          	mul	s0,a1,s0
    17b8:	9432                	add	s0,s0,a2
    17ba:	e709                	bnez	a4,17c4 <lfs_w25qxx_prog+0x1c>
    17bc:	4501                	li	a0,0
    17be:	0141                	addi	sp,sp,16
    17c0:	a97fe06f          	j	256 <__riscv_restore_0>
    17c4:	84ba                	mv	s1,a4
    17c6:	00e97463          	bgeu	s2,a4,17ce <lfs_w25qxx_prog+0x26>
    17ca:	10000493          	li	s1,256
    17ce:	01049613          	slli	a2,s1,0x10
    17d2:	85a2                	mv	a1,s0
    17d4:	8536                	mv	a0,a3
    17d6:	8241                	srli	a2,a2,0x10
    17d8:	c63a                	sw	a4,12(sp)
    17da:	c436                	sw	a3,8(sp)
    17dc:	3715                	jal	1700 <drv_w25qxx_write_page>
    17de:	46a2                	lw	a3,8(sp)
    17e0:	4732                	lw	a4,12(sp)
    17e2:	9426                	add	s0,s0,s1
    17e4:	96a6                	add	a3,a3,s1
    17e6:	8f05                	sub	a4,a4,s1
    17e8:	bfc9                	j	17ba <lfs_w25qxx_prog+0x12>

000017ea <lfs_w25qxx_read>:
    17ea:	a49fe2ef          	jal	t0,232 <__riscv_save_0>
    17ee:	4d5c                	lw	a5,28(a0)
    17f0:	8536                	mv	a0,a3
    17f2:	02f585b3          	mul	a1,a1,a5
    17f6:	95b2                	add	a1,a1,a2
    17f8:	01071613          	slli	a2,a4,0x10
    17fc:	8241                	srli	a2,a2,0x10
    17fe:	3d4d                	jal	16b0 <drv_w25qxx_read>
    1800:	4501                	li	a0,0
    1802:	a55fe06f          	j	256 <__riscv_restore_0>

00001806 <drv_fs_init>:
    1806:	a2dfe2ef          	jal	t0,232 <__riscv_save_0>
    180a:	1141                	addi	sp,sp,-16
    180c:	3595                	jal	1670 <drv_w25qxx_init>
    180e:	85aa                	mv	a1,a0
    1810:	0000b537          	lui	a0,0xb
    1814:	a8850513          	addi	a0,a0,-1400 # aa88 <cfg+0x54>
    1818:	6df070ef          	jal	ra,96f6 <iprintf>
    181c:	3d25                	jal	1654 <drv_w25qxx_unprotect>
    181e:	0000b537          	lui	a0,0xb
    1822:	aac50513          	addi	a0,a0,-1364 # aaac <cfg+0x78>
    1826:	7e5070ef          	jal	ra,980a <puts>
    182a:	8181a783          	lw	a5,-2024(gp) # 200000d8 <_global_impure_ptr+0x4>
    182e:	4501                	li	a0,0
    1830:	c602                	sw	zero,12(sp)
    1832:	c43e                	sw	a5,8(sp)
    1834:	3705                	jal	1754 <drv_w25qxx_erase_sector>
    1836:	4611                	li	a2,4
    1838:	4581                	li	a1,0
    183a:	0028                	addi	a0,sp,8
    183c:	35d1                	jal	1700 <drv_w25qxx_write_page>
    183e:	4581                	li	a1,0
    1840:	4611                	li	a2,4
    1842:	0068                	addi	a0,sp,12
    1844:	35b5                	jal	16b0 <drv_w25qxx_read>
    1846:	860c                	lbu	a1,12(sp)
    1848:	47c9                	li	a5,18
    184a:	8798                	lbu	a4,15(sp)
    184c:	00f59663          	bne	a1,a5,1858 <drv_fs_init+0x52>
    1850:	07800793          	li	a5,120
    1854:	02f70963          	beq	a4,a5,1886 <drv_fs_init+0x80>
    1858:	8714                	lbu	a3,14(sp)
    185a:	8690                	lbu	a2,13(sp)
    185c:	0000b537          	lui	a0,0xb
    1860:	ad450513          	addi	a0,a0,-1324 # aad4 <cfg+0xa0>
    1864:	693070ef          	jal	ra,96f6 <iprintf>
    1868:	0000b537          	lui	a0,0xb
    186c:	b1450513          	addi	a0,a0,-1260 # ab14 <cfg+0xe0>
    1870:	79b070ef          	jal	ra,980a <puts>
    1874:	0000b537          	lui	a0,0xb
    1878:	b3050513          	addi	a0,a0,-1232 # ab30 <cfg+0xfc>
    187c:	78f070ef          	jal	ra,980a <puts>
    1880:	0141                	addi	sp,sp,16
    1882:	9d5fe06f          	j	256 <__riscv_restore_0>
    1886:	0000b537          	lui	a0,0xb
    188a:	b8450513          	addi	a0,a0,-1148 # ab84 <cfg+0x150>
    188e:	77d070ef          	jal	ra,980a <puts>
    1892:	0000b537          	lui	a0,0xb
    1896:	bb850513          	addi	a0,a0,-1096 # abb8 <cfg+0x184>
    189a:	771070ef          	jal	ra,980a <puts>
    189e:	64ad                	lui	s1,0xb
    18a0:	a3448593          	addi	a1,s1,-1484 # aa34 <cfg>
    18a4:	8a818513          	addi	a0,gp,-1880 # 20000168 <lfs>
    18a8:	038040ef          	jal	ra,58e0 <lfs_mount>
    18ac:	cd1d                	beqz	a0,18ea <drv_fs_init+0xe4>
    18ae:	0000b537          	lui	a0,0xb
    18b2:	bdc50513          	addi	a0,a0,-1060 # abdc <cfg+0x1a8>
    18b6:	755070ef          	jal	ra,980a <puts>
    18ba:	a3448593          	addi	a1,s1,-1484
    18be:	8a818513          	addi	a0,gp,-1880 # 20000168 <lfs>
    18c2:	71d030ef          	jal	ra,57de <lfs_format>
    18c6:	c511                	beqz	a0,18d2 <drv_fs_init+0xcc>
    18c8:	0000b537          	lui	a0,0xb
    18cc:	c0850513          	addi	a0,a0,-1016 # ac08 <cfg+0x1d4>
    18d0:	b775                	j	187c <drv_fs_init+0x76>
    18d2:	a3448593          	addi	a1,s1,-1484
    18d6:	8a818513          	addi	a0,gp,-1880 # 20000168 <lfs>
    18da:	006040ef          	jal	ra,58e0 <lfs_mount>
    18de:	c511                	beqz	a0,18ea <drv_fs_init+0xe4>
    18e0:	0000b537          	lui	a0,0xb
    18e4:	c2850513          	addi	a0,a0,-984 # ac28 <cfg+0x1f4>
    18e8:	bf51                	j	187c <drv_fs_init+0x76>
    18ea:	0000b537          	lui	a0,0xb
    18ee:	c4c50513          	addi	a0,a0,-948 # ac4c <cfg+0x218>
    18f2:	b769                	j	187c <drv_fs_init+0x76>

000018f4 <IIC_Start>:
    18f4:	93ffe2ef          	jal	t0,232 <__riscv_save_0>
    18f8:	40011437          	lui	s0,0x40011
    18fc:	6485                	lui	s1,0x1
    18fe:	80048593          	addi	a1,s1,-2048 # 800 <__stack_size>
    1902:	c0040513          	addi	a0,s0,-1024 # 40010c00 <_eusrstack+0x20008c00>
    1906:	b94ff0ef          	jal	ra,c9a <GPIO_SetBits>
    190a:	c0040513          	addi	a0,s0,-1024
    190e:	40000593          	li	a1,1024
    1912:	b88ff0ef          	jal	ra,c9a <GPIO_SetBits>
    1916:	c0040513          	addi	a0,s0,-1024
    191a:	40000593          	li	a1,1024
    191e:	b80ff0ef          	jal	ra,c9e <GPIO_ResetBits>
    1922:	80048593          	addi	a1,s1,-2048
    1926:	c0040513          	addi	a0,s0,-1024
    192a:	b74ff0ef          	jal	ra,c9e <GPIO_ResetBits>
    192e:	929fe06f          	j	256 <__riscv_restore_0>

00001932 <IIC_Stop>:
    1932:	901fe2ef          	jal	t0,232 <__riscv_save_0>
    1936:	40011437          	lui	s0,0x40011
    193a:	6585                	lui	a1,0x1
    193c:	c0040513          	addi	a0,s0,-1024 # 40010c00 <_eusrstack+0x20008c00>
    1940:	80058593          	addi	a1,a1,-2048 # 800 <__stack_size>
    1944:	b56ff0ef          	jal	ra,c9a <GPIO_SetBits>
    1948:	c0040513          	addi	a0,s0,-1024
    194c:	40000593          	li	a1,1024
    1950:	b4eff0ef          	jal	ra,c9e <GPIO_ResetBits>
    1954:	40000593          	li	a1,1024
    1958:	c0040513          	addi	a0,s0,-1024
    195c:	b3eff0ef          	jal	ra,c9a <GPIO_SetBits>
    1960:	8f7fe06f          	j	256 <__riscv_restore_0>

00001964 <IIC_Wait_Ack>:
    1964:	8cffe2ef          	jal	t0,232 <__riscv_save_0>
    1968:	40011437          	lui	s0,0x40011
    196c:	6485                	lui	s1,0x1
    196e:	80048593          	addi	a1,s1,-2048 # 800 <__stack_size>
    1972:	c0040513          	addi	a0,s0,-1024 # 40010c00 <_eusrstack+0x20008c00>
    1976:	b24ff0ef          	jal	ra,c9a <GPIO_SetBits>
    197a:	80048593          	addi	a1,s1,-2048
    197e:	c0040513          	addi	a0,s0,-1024
    1982:	b1cff0ef          	jal	ra,c9e <GPIO_ResetBits>
    1986:	8d1fe06f          	j	256 <__riscv_restore_0>

0000198a <Write_IIC_Byte>:
    198a:	88ffe2ef          	jal	t0,218 <__riscv_save_4>
    198e:	6905                	lui	s2,0x1
    1990:	40011437          	lui	s0,0x40011
    1994:	80090593          	addi	a1,s2,-2048 # 800 <__stack_size>
    1998:	89aa                	mv	s3,a0
    199a:	c0040513          	addi	a0,s0,-1024 # 40010c00 <_eusrstack+0x20008c00>
    199e:	b00ff0ef          	jal	ra,c9e <GPIO_ResetBits>
    19a2:	44a1                	li	s1,8
    19a4:	c0040413          	addi	s0,s0,-1024
    19a8:	80090913          	addi	s2,s2,-2048
    19ac:	01899793          	slli	a5,s3,0x18
    19b0:	87e1                	srai	a5,a5,0x18
    19b2:	40000593          	li	a1,1024
    19b6:	8522                	mv	a0,s0
    19b8:	0207d563          	bgez	a5,19e2 <Write_IIC_Byte+0x58>
    19bc:	adeff0ef          	jal	ra,c9a <GPIO_SetBits>
    19c0:	85ca                	mv	a1,s2
    19c2:	8522                	mv	a0,s0
    19c4:	ad6ff0ef          	jal	ra,c9a <GPIO_SetBits>
    19c8:	14fd                	addi	s1,s1,-1
    19ca:	0986                	slli	s3,s3,0x1
    19cc:	85ca                	mv	a1,s2
    19ce:	8522                	mv	a0,s0
    19d0:	0ff4f493          	andi	s1,s1,255
    19d4:	0ff9f993          	andi	s3,s3,255
    19d8:	ac6ff0ef          	jal	ra,c9e <GPIO_ResetBits>
    19dc:	f8e1                	bnez	s1,19ac <Write_IIC_Byte+0x22>
    19de:	86ffe06f          	j	24c <__riscv_restore_4>
    19e2:	abcff0ef          	jal	ra,c9e <GPIO_ResetBits>
    19e6:	bfe9                	j	19c0 <Write_IIC_Byte+0x36>

000019e8 <Write_IIC_Command>:
    19e8:	84bfe2ef          	jal	t0,232 <__riscv_save_0>
    19ec:	842a                	mv	s0,a0
    19ee:	3719                	jal	18f4 <IIC_Start>
    19f0:	07800513          	li	a0,120
    19f4:	3f59                	jal	198a <Write_IIC_Byte>
    19f6:	37bd                	jal	1964 <IIC_Wait_Ack>
    19f8:	4501                	li	a0,0
    19fa:	3f41                	jal	198a <Write_IIC_Byte>
    19fc:	37a5                	jal	1964 <IIC_Wait_Ack>
    19fe:	8522                	mv	a0,s0
    1a00:	3769                	jal	198a <Write_IIC_Byte>
    1a02:	378d                	jal	1964 <IIC_Wait_Ack>
    1a04:	373d                	jal	1932 <IIC_Stop>
    1a06:	851fe06f          	j	256 <__riscv_restore_0>

00001a0a <Write_IIC_Data>:
    1a0a:	829fe2ef          	jal	t0,232 <__riscv_save_0>
    1a0e:	842a                	mv	s0,a0
    1a10:	35d5                	jal	18f4 <IIC_Start>
    1a12:	07800513          	li	a0,120
    1a16:	3f95                	jal	198a <Write_IIC_Byte>
    1a18:	37b1                	jal	1964 <IIC_Wait_Ack>
    1a1a:	04000513          	li	a0,64
    1a1e:	37b5                	jal	198a <Write_IIC_Byte>
    1a20:	3791                	jal	1964 <IIC_Wait_Ack>
    1a22:	8522                	mv	a0,s0
    1a24:	379d                	jal	198a <Write_IIC_Byte>
    1a26:	3f3d                	jal	1964 <IIC_Wait_Ack>
    1a28:	3729                	jal	1932 <IIC_Stop>
    1a2a:	82dfe06f          	j	256 <__riscv_restore_0>

00001a2e <OLED_Set_Pos>:
    1a2e:	805fe2ef          	jal	t0,232 <__riscv_save_0>
    1a32:	fb058593          	addi	a1,a1,-80
    1a36:	842a                	mv	s0,a0
    1a38:	0ff5f513          	andi	a0,a1,255
    1a3c:	3775                	jal	19e8 <Write_IIC_Command>
    1a3e:	00445513          	srli	a0,s0,0x4
    1a42:	01056513          	ori	a0,a0,16
    1a46:	374d                	jal	19e8 <Write_IIC_Command>
    1a48:	00f47513          	andi	a0,s0,15
    1a4c:	3f71                	jal	19e8 <Write_IIC_Command>
    1a4e:	809fe06f          	j	256 <__riscv_restore_0>

00001a52 <OLED_Clear>:
    1a52:	fe0fe2ef          	jal	t0,232 <__riscv_save_0>
    1a56:	0b000413          	li	s0,176
    1a5a:	0b800913          	li	s2,184
    1a5e:	8522                	mv	a0,s0
    1a60:	3761                	jal	19e8 <Write_IIC_Command>
    1a62:	4501                	li	a0,0
    1a64:	3751                	jal	19e8 <Write_IIC_Command>
    1a66:	4541                	li	a0,16
    1a68:	3741                	jal	19e8 <Write_IIC_Command>
    1a6a:	08000493          	li	s1,128
    1a6e:	4501                	li	a0,0
    1a70:	14fd                	addi	s1,s1,-1
    1a72:	3f61                	jal	1a0a <Write_IIC_Data>
    1a74:	fced                	bnez	s1,1a6e <OLED_Clear+0x1c>
    1a76:	0405                	addi	s0,s0,1
    1a78:	0ff47413          	andi	s0,s0,255
    1a7c:	ff2411e3          	bne	s0,s2,1a5e <OLED_Clear+0xc>
    1a80:	fd6fe06f          	j	256 <__riscv_restore_0>

00001a84 <OLED_ShowChar>:
    1a84:	f94fe2ef          	jal	t0,218 <__riscv_save_4>
    1a88:	01851793          	slli	a5,a0,0x18
    1a8c:	fe060413          	addi	s0,a2,-32
    1a90:	87e1                	srai	a5,a5,0x18
    1a92:	84ae                	mv	s1,a1
    1a94:	0ff47413          	andi	s0,s0,255
    1a98:	892a                	mv	s2,a0
    1a9a:	0007d763          	bgez	a5,1aa8 <OLED_ShowChar+0x24>
    1a9e:	00258493          	addi	s1,a1,2
    1aa2:	0ff4f493          	andi	s1,s1,255
    1aa6:	4901                	li	s2,0
    1aa8:	47c1                	li	a5,16
    1aaa:	85a6                	mv	a1,s1
    1aac:	854a                	mv	a0,s2
    1aae:	04f69263          	bne	a3,a5,1af2 <OLED_ShowChar+0x6e>
    1ab2:	3fb5                	jal	1a2e <OLED_Set_Pos>
    1ab4:	00441613          	slli	a2,s0,0x4
    1ab8:	642d                	lui	s0,0xb
    1aba:	ea840413          	addi	s0,s0,-344 # aea8 <F8X16>
    1abe:	4981                	li	s3,0
    1ac0:	9432                	add	s0,s0,a2
    1ac2:	4a21                	li	s4,8
    1ac4:	013407b3          	add	a5,s0,s3
    1ac8:	2388                	lbu	a0,0(a5)
    1aca:	0985                	addi	s3,s3,1
    1acc:	3f3d                	jal	1a0a <Write_IIC_Data>
    1ace:	ff499be3          	bne	s3,s4,1ac4 <OLED_ShowChar+0x40>
    1ad2:	00148593          	addi	a1,s1,1
    1ad6:	0ff5f593          	andi	a1,a1,255
    1ada:	854a                	mv	a0,s2
    1adc:	3f89                	jal	1a2e <OLED_Set_Pos>
    1ade:	44a1                	li	s1,8
    1ae0:	2408                	lbu	a0,8(s0)
    1ae2:	14fd                	addi	s1,s1,-1
    1ae4:	0ff4f493          	andi	s1,s1,255
    1ae8:	370d                	jal	1a0a <Write_IIC_Data>
    1aea:	0405                	addi	s0,s0,1
    1aec:	f8f5                	bnez	s1,1ae0 <OLED_ShowChar+0x5c>
    1aee:	f5efe06f          	j	24c <__riscv_restore_4>
    1af2:	3f35                	jal	1a2e <OLED_Set_Pos>
    1af4:	4619                	li	a2,6
    1af6:	02c40433          	mul	s0,s0,a2
    1afa:	692d                	lui	s2,0xb
    1afc:	4481                	li	s1,0
    1afe:	c8090913          	addi	s2,s2,-896 # ac80 <F6x8>
    1b02:	4999                	li	s3,6
    1b04:	008487b3          	add	a5,s1,s0
    1b08:	97ca                	add	a5,a5,s2
    1b0a:	2388                	lbu	a0,0(a5)
    1b0c:	0485                	addi	s1,s1,1
    1b0e:	3df5                	jal	1a0a <Write_IIC_Data>
    1b10:	ff349ae3          	bne	s1,s3,1b04 <OLED_ShowChar+0x80>
    1b14:	bfe9                	j	1aee <OLED_ShowChar+0x6a>

00001b16 <OLED_ShowString>:
    1b16:	f02fe2ef          	jal	t0,218 <__riscv_save_4>
    1b1a:	842a                	mv	s0,a0
    1b1c:	892e                	mv	s2,a1
    1b1e:	89b2                	mv	s3,a2
    1b20:	8a36                	mv	s4,a3
    1b22:	4481                	li	s1,0
    1b24:	07800a93          	li	s5,120
    1b28:	009987b3          	add	a5,s3,s1
    1b2c:	2390                	lbu	a2,0(a5)
    1b2e:	e219                	bnez	a2,1b34 <OLED_ShowString+0x1e>
    1b30:	f1cfe06f          	j	24c <__riscv_restore_4>
    1b34:	8522                	mv	a0,s0
    1b36:	0421                	addi	s0,s0,8
    1b38:	86d2                	mv	a3,s4
    1b3a:	85ca                	mv	a1,s2
    1b3c:	0ff47413          	andi	s0,s0,255
    1b40:	3791                	jal	1a84 <OLED_ShowChar>
    1b42:	008af663          	bgeu	s5,s0,1b4e <OLED_ShowString+0x38>
    1b46:	0909                	addi	s2,s2,2
    1b48:	0ff97913          	andi	s2,s2,255
    1b4c:	4401                	li	s0,0
    1b4e:	0485                	addi	s1,s1,1
    1b50:	0ff4f493          	andi	s1,s1,255
    1b54:	bfd1                	j	1b28 <OLED_ShowString+0x12>

00001b56 <OLED_Init>:
    1b56:	edcfe2ef          	jal	t0,232 <__riscv_save_0>
    1b5a:	32000513          	li	a0,800
    1b5e:	1fa040ef          	jal	ra,5d58 <Delay_Ms>
    1b62:	0ae00513          	li	a0,174
    1b66:	e83ff0ef          	jal	ra,19e8 <Write_IIC_Command>
    1b6a:	4501                	li	a0,0
    1b6c:	e7dff0ef          	jal	ra,19e8 <Write_IIC_Command>
    1b70:	4541                	li	a0,16
    1b72:	e77ff0ef          	jal	ra,19e8 <Write_IIC_Command>
    1b76:	04000513          	li	a0,64
    1b7a:	e6fff0ef          	jal	ra,19e8 <Write_IIC_Command>
    1b7e:	0b000513          	li	a0,176
    1b82:	e67ff0ef          	jal	ra,19e8 <Write_IIC_Command>
    1b86:	08100513          	li	a0,129
    1b8a:	e5fff0ef          	jal	ra,19e8 <Write_IIC_Command>
    1b8e:	0ff00513          	li	a0,255
    1b92:	e57ff0ef          	jal	ra,19e8 <Write_IIC_Command>
    1b96:	0a100513          	li	a0,161
    1b9a:	e4fff0ef          	jal	ra,19e8 <Write_IIC_Command>
    1b9e:	0a600513          	li	a0,166
    1ba2:	e47ff0ef          	jal	ra,19e8 <Write_IIC_Command>
    1ba6:	0a800513          	li	a0,168
    1baa:	e3fff0ef          	jal	ra,19e8 <Write_IIC_Command>
    1bae:	03f00513          	li	a0,63
    1bb2:	e37ff0ef          	jal	ra,19e8 <Write_IIC_Command>
    1bb6:	0c800513          	li	a0,200
    1bba:	e2fff0ef          	jal	ra,19e8 <Write_IIC_Command>
    1bbe:	0d300513          	li	a0,211
    1bc2:	e27ff0ef          	jal	ra,19e8 <Write_IIC_Command>
    1bc6:	4501                	li	a0,0
    1bc8:	e21ff0ef          	jal	ra,19e8 <Write_IIC_Command>
    1bcc:	0d500513          	li	a0,213
    1bd0:	e19ff0ef          	jal	ra,19e8 <Write_IIC_Command>
    1bd4:	08000513          	li	a0,128
    1bd8:	e11ff0ef          	jal	ra,19e8 <Write_IIC_Command>
    1bdc:	0d800513          	li	a0,216
    1be0:	e09ff0ef          	jal	ra,19e8 <Write_IIC_Command>
    1be4:	4515                	li	a0,5
    1be6:	e03ff0ef          	jal	ra,19e8 <Write_IIC_Command>
    1bea:	0d900513          	li	a0,217
    1bee:	dfbff0ef          	jal	ra,19e8 <Write_IIC_Command>
    1bf2:	0f100513          	li	a0,241
    1bf6:	df3ff0ef          	jal	ra,19e8 <Write_IIC_Command>
    1bfa:	0da00513          	li	a0,218
    1bfe:	debff0ef          	jal	ra,19e8 <Write_IIC_Command>
    1c02:	4549                	li	a0,18
    1c04:	de5ff0ef          	jal	ra,19e8 <Write_IIC_Command>
    1c08:	0db00513          	li	a0,219
    1c0c:	dddff0ef          	jal	ra,19e8 <Write_IIC_Command>
    1c10:	03000513          	li	a0,48
    1c14:	dd5ff0ef          	jal	ra,19e8 <Write_IIC_Command>
    1c18:	08d00513          	li	a0,141
    1c1c:	dcdff0ef          	jal	ra,19e8 <Write_IIC_Command>
    1c20:	4551                	li	a0,20
    1c22:	dc7ff0ef          	jal	ra,19e8 <Write_IIC_Command>
    1c26:	0af00513          	li	a0,175
    1c2a:	dbfff0ef          	jal	ra,19e8 <Write_IIC_Command>
    1c2e:	e28fe06f          	j	256 <__riscv_restore_0>

00001c32 <os_device_register>:
    1c32:	c921                	beqz	a0,1c82 <os_device_register+0x50>
    1c34:	dfefe2ef          	jal	t0,232 <__riscv_save_0>
    1c38:	410c                	lw	a1,0(a0)
    1c3a:	842a                	mv	s0,a0
    1c3c:	557d                	li	a0,-1
    1c3e:	c185                	beqz	a1,1c5e <os_device_register+0x2c>
    1c40:	8381a783          	lw	a5,-1992(gp) # 200000f8 <device_list_head>
    1c44:	83818493          	addi	s1,gp,-1992 # 200000f8 <device_list_head>
    1c48:	ef89                	bnez	a5,1c62 <os_device_register+0x30>
    1c4a:	405c                	lw	a5,4(s0)
    1c4c:	c789                	beqz	a5,1c56 <os_device_register+0x24>
    1c4e:	439c                	lw	a5,0(a5)
    1c50:	c399                	beqz	a5,1c56 <os_device_register+0x24>
    1c52:	8522                	mv	a0,s0
    1c54:	9782                	jalr	a5
    1c56:	409c                	lw	a5,0(s1)
    1c58:	4501                	li	a0,0
    1c5a:	c080                	sw	s0,0(s1)
    1c5c:	c45c                	sw	a5,12(s0)
    1c5e:	df8fe06f          	j	256 <__riscv_restore_0>
    1c62:	4394                	lw	a3,0(a5)
    1c64:	862e                	mv	a2,a1
    1c66:	00068703          	lb	a4,0(a3)
    1c6a:	00060503          	lb	a0,0(a2)
    1c6e:	c319                	beqz	a4,1c74 <os_device_register+0x42>
    1c70:	00a70663          	beq	a4,a0,1c7c <os_device_register+0x4a>
    1c74:	00e50963          	beq	a0,a4,1c86 <os_device_register+0x54>
    1c78:	47dc                	lw	a5,12(a5)
    1c7a:	b7f9                	j	1c48 <os_device_register+0x16>
    1c7c:	0685                	addi	a3,a3,1
    1c7e:	0605                	addi	a2,a2,1
    1c80:	b7dd                	j	1c66 <os_device_register+0x34>
    1c82:	557d                	li	a0,-1
    1c84:	8082                	ret
    1c86:	5579                	li	a0,-2
    1c88:	bfd9                	j	1c5e <os_device_register+0x2c>

00001c8a <os_device_open>:
    1c8a:	da8fe2ef          	jal	t0,232 <__riscv_save_0>
    1c8e:	8381a403          	lw	s0,-1992(gp) # 200000f8 <device_list_head>
    1c92:	c015                	beqz	s0,1cb6 <os_device_open+0x2c>
    1c94:	4018                	lw	a4,0(s0)
    1c96:	86aa                	mv	a3,a0
    1c98:	00070783          	lb	a5,0(a4)
    1c9c:	00068603          	lb	a2,0(a3)
    1ca0:	c399                	beqz	a5,1ca6 <os_device_open+0x1c>
    1ca2:	00c78d63          	beq	a5,a2,1cbc <os_device_open+0x32>
    1ca6:	00f61e63          	bne	a2,a5,1cc2 <os_device_open+0x38>
    1caa:	405c                	lw	a5,4(s0)
    1cac:	c789                	beqz	a5,1cb6 <os_device_open+0x2c>
    1cae:	43dc                	lw	a5,4(a5)
    1cb0:	c399                	beqz	a5,1cb6 <os_device_open+0x2c>
    1cb2:	8522                	mv	a0,s0
    1cb4:	9782                	jalr	a5
    1cb6:	8522                	mv	a0,s0
    1cb8:	d9efe06f          	j	256 <__riscv_restore_0>
    1cbc:	0705                	addi	a4,a4,1
    1cbe:	0685                	addi	a3,a3,1
    1cc0:	bfe1                	j	1c98 <os_device_open+0xe>
    1cc2:	4440                	lw	s0,12(s0)
    1cc4:	b7f9                	j	1c92 <os_device_open+0x8>

00001cc6 <os_device_read>:
    1cc6:	c919                	beqz	a0,1cdc <os_device_read+0x16>
    1cc8:	4158                	lw	a4,4(a0)
    1cca:	57fd                	li	a5,-1
    1ccc:	cb09                	beqz	a4,1cde <os_device_read+0x18>
    1cce:	4718                	lw	a4,8(a4)
    1cd0:	c719                	beqz	a4,1cde <os_device_read+0x18>
    1cd2:	d60fe2ef          	jal	t0,232 <__riscv_save_0>
    1cd6:	9702                	jalr	a4
    1cd8:	d7efe06f          	j	256 <__riscv_restore_0>
    1cdc:	57fd                	li	a5,-1
    1cde:	853e                	mv	a0,a5
    1ce0:	8082                	ret

00001ce2 <os_device_write>:
    1ce2:	c919                	beqz	a0,1cf8 <os_device_write+0x16>
    1ce4:	4158                	lw	a4,4(a0)
    1ce6:	57fd                	li	a5,-1
    1ce8:	cb09                	beqz	a4,1cfa <os_device_write+0x18>
    1cea:	4758                	lw	a4,12(a4)
    1cec:	c719                	beqz	a4,1cfa <os_device_write+0x18>
    1cee:	d44fe2ef          	jal	t0,232 <__riscv_save_0>
    1cf2:	9702                	jalr	a4
    1cf4:	d62fe06f          	j	256 <__riscv_restore_0>
    1cf8:	57fd                	li	a5,-1
    1cfa:	853e                	mv	a0,a5
    1cfc:	8082                	ret

00001cfe <stack_pool_init>:
    1cfe:	d34fe2ef          	jal	t0,232 <__riscv_save_0>
    1d02:	200006b7          	lui	a3,0x20000
    1d06:	1f068713          	addi	a4,a3,496 # 200001f0 <stack_memory_pool>
    1d0a:	82e1ae23          	sw	a4,-1988(gp) # 200000fc <free_list_head>
    1d0e:	200007b7          	lui	a5,0x20000
    1d12:	5f078793          	addi	a5,a5,1520 # 200005f0 <stack_memory_pool+0x400>
    1d16:	1ef6a823          	sw	a5,496(a3)
    1d1a:	200017b7          	lui	a5,0x20001
    1d1e:	9f078793          	addi	a5,a5,-1552 # 200009f0 <__global_pointer$+0x130>
    1d22:	40f72023          	sw	a5,1024(a4)
    1d26:	200016b7          	lui	a3,0x20001
    1d2a:	6785                	lui	a5,0x1
    1d2c:	97ba                	add	a5,a5,a4
    1d2e:	df068693          	addi	a3,a3,-528 # 20000df0 <__global_pointer$+0x530>
    1d32:	80d7a023          	sw	a3,-2048(a5) # 800 <__stack_size>
    1d36:	200016b7          	lui	a3,0x20001
    1d3a:	5f068693          	addi	a3,a3,1520 # 200015f0 <__global_pointer$+0xd30>
    1d3e:	c394                	sw	a3,0(a5)
    1d40:	200026b7          	lui	a3,0x20002
    1d44:	9f068693          	addi	a3,a3,-1552 # 200019f0 <__global_pointer$+0x1130>
    1d48:	c0f7a023          	sw	a5,-1024(a5)
    1d4c:	40d7a023          	sw	a3,1024(a5)
    1d50:	6789                	lui	a5,0x2
    1d52:	97ba                	add	a5,a5,a4
    1d54:	20002737          	lui	a4,0x20002
    1d58:	df070713          	addi	a4,a4,-528 # 20001df0 <__global_pointer$+0x1530>
    1d5c:	0000b537          	lui	a0,0xb
    1d60:	80e7a023          	sw	a4,-2048(a5) # 1800 <lfs_w25qxx_read+0x16>
    1d64:	c007a023          	sw	zero,-1024(a5)
    1d68:	40000613          	li	a2,1024
    1d6c:	45a1                	li	a1,8
    1d6e:	4bc50513          	addi	a0,a0,1212 # b4bc <F8X16+0x614>
    1d72:	185070ef          	jal	ra,96f6 <iprintf>
    1d76:	ce0fe06f          	j	256 <__riscv_restore_0>

00001d7a <stack_pool_alloc>:
    1d7a:	cb8fe2ef          	jal	t0,232 <__riscv_save_0>
    1d7e:	83c18793          	addi	a5,gp,-1988 # 200000fc <free_list_head>
    1d82:	4380                	lw	s0,0(a5)
    1d84:	e811                	bnez	s0,1d98 <stack_pool_alloc+0x1e>
    1d86:	0000b537          	lui	a0,0xb
    1d8a:	49850513          	addi	a0,a0,1176 # b498 <F8X16+0x5f0>
    1d8e:	27d070ef          	jal	ra,980a <puts>
    1d92:	8522                	mv	a0,s0
    1d94:	cc2fe06f          	j	256 <__riscv_restore_0>
    1d98:	4018                	lw	a4,0(s0)
    1d9a:	c398                	sw	a4,0(a5)
    1d9c:	bfdd                	j	1d92 <stack_pool_alloc+0x18>

00001d9e <os_mq_init>:
    1d9e:	c10d                	beqz	a0,1dc0 <os_mq_init+0x22>
    1da0:	c185                	beqz	a1,1dc0 <os_mq_init+0x22>
    1da2:	ce19                	beqz	a2,1dc0 <os_mq_init+0x22>
    1da4:	ce91                	beqz	a3,1dc0 <os_mq_init+0x22>
    1da6:	c8cfe2ef          	jal	t0,232 <__riscv_save_0>
    1daa:	c10c                	sw	a1,0(a0)
    1dac:	a152                	sh	a2,4(a0)
    1dae:	a176                	sh	a3,6(a0)
    1db0:	00052423          	sw	zero,8(a0)
    1db4:	00051623          	sh	zero,12(a0)
    1db8:	0539                	addi	a0,a0,14
    1dba:	2021                	jal	1dc2 <mutex_init>
    1dbc:	c9afe06f          	j	256 <__riscv_restore_0>
    1dc0:	8082                	ret

00001dc2 <mutex_init>:
    1dc2:	00050023          	sb	zero,0(a0)
    1dc6:	8082                	ret

00001dc8 <mutex_lock>:
    1dc8:	c6afe2ef          	jal	t0,232 <__riscv_save_0>
    1dcc:	1141                	addi	sp,sp,-16
    1dce:	4405                	li	s0,1
    1dd0:	211c                	lbu	a5,0(a0)
    1dd2:	00f40663          	beq	s0,a5,1dde <mutex_lock+0x16>
    1dd6:	a100                	sb	s0,0(a0)
    1dd8:	0141                	addi	sp,sp,16
    1dda:	c7cfe06f          	j	256 <__riscv_restore_0>
    1dde:	c62a                	sw	a0,12(sp)
    1de0:	28e9                	jal	1eba <task_yield>
    1de2:	4532                	lw	a0,12(sp)
    1de4:	b7f5                	j	1dd0 <mutex_lock+0x8>

00001de6 <mutex_unlock>:
    1de6:	00050023          	sb	zero,0(a0)
    1dea:	8082                	ret

00001dec <os_shadow_init>:
    1dec:	c46fe2ef          	jal	t0,232 <__riscv_save_0>
    1df0:	200027b7          	lui	a5,0x20002
    1df4:	1f078793          	addi	a5,a5,496 # 200021f0 <g_device_shadow>
    1df8:	0007a023          	sw	zero,0(a5)
    1dfc:	0007a223          	sw	zero,4(a5)
    1e00:	0007a423          	sw	zero,8(a5)
    1e04:	84018513          	addi	a0,gp,-1984 # 20000100 <shadow_mutex>
    1e08:	3f6d                	jal	1dc2 <mutex_init>
    1e0a:	c4cfe06f          	j	256 <__riscv_restore_0>

00001e0e <os_shadow_update_temp>:
    1e0e:	c24fe2ef          	jal	t0,232 <__riscv_save_0>
    1e12:	84aa                	mv	s1,a0
    1e14:	84018513          	addi	a0,gp,-1984 # 20000100 <shadow_mutex>
    1e18:	3f45                	jal	1dc8 <mutex_lock>
    1e1a:	200027b7          	lui	a5,0x20002
    1e1e:	84018513          	addi	a0,gp,-1984 # 20000100 <shadow_mutex>
    1e22:	1e97a823          	sw	s1,496(a5) # 200021f0 <g_device_shadow>
    1e26:	37c1                	jal	1de6 <mutex_unlock>
    1e28:	c2efe06f          	j	256 <__riscv_restore_0>

00001e2c <os_shadow_update_led>:
    1e2c:	c06fe2ef          	jal	t0,232 <__riscv_save_0>
    1e30:	84aa                	mv	s1,a0
    1e32:	84018513          	addi	a0,gp,-1984 # 20000100 <shadow_mutex>
    1e36:	f93ff0ef          	jal	ra,1dc8 <mutex_lock>
    1e3a:	200027b7          	lui	a5,0x20002
    1e3e:	84018513          	addi	a0,gp,-1984 # 20000100 <shadow_mutex>
    1e42:	1e978c23          	sb	s1,504(a5) # 200021f8 <g_device_shadow+0x8>
    1e46:	fa1ff0ef          	jal	ra,1de6 <mutex_unlock>
    1e4a:	c0cfe06f          	j	256 <__riscv_restore_0>

00001e4e <os_shadow_get_snapshot>:
    1e4e:	c515                	beqz	a0,1e7a <os_shadow_get_snapshot+0x2c>
    1e50:	be2fe2ef          	jal	t0,232 <__riscv_save_0>
    1e54:	842a                	mv	s0,a0
    1e56:	84018513          	addi	a0,gp,-1984 # 20000100 <shadow_mutex>
    1e5a:	f6fff0ef          	jal	ra,1dc8 <mutex_lock>
    1e5e:	200025b7          	lui	a1,0x20002
    1e62:	4631                	li	a2,12
    1e64:	1f058593          	addi	a1,a1,496 # 200021f0 <g_device_shadow>
    1e68:	8522                	mv	a0,s0
    1e6a:	7b1060ef          	jal	ra,8e1a <memcpy>
    1e6e:	84018513          	addi	a0,gp,-1984 # 20000100 <shadow_mutex>
    1e72:	f75ff0ef          	jal	ra,1de6 <mutex_unlock>
    1e76:	be0fe06f          	j	256 <__riscv_restore_0>
    1e7a:	8082                	ret

00001e7c <task_init>:
    1e7c:	068a                	slli	a3,a3,0x2
    1e7e:	9636                	add	a2,a2,a3
    1e80:	9a41                	andi	a2,a2,-16
    1e82:	fc060793          	addi	a5,a2,-64
    1e86:	c11c                	sw	a5,0(a0)
    1e88:	0007a023          	sw	zero,0(a5)
    1e8c:	0791                	addi	a5,a5,4
    1e8e:	fef61de3          	bne	a2,a5,1e88 <task_init+0xc>
    1e92:	fcb62023          	sw	a1,-64(a2)
    1e96:	8082                	ret

00001e98 <task_register>:
    1e98:	85018693          	addi	a3,gp,-1968 # 20000110 <task_count>
    1e9c:	229c                	lbu	a5,0(a3)
    1e9e:	471d                	li	a4,7
    1ea0:	00f76c63          	bltu	a4,a5,1eb8 <task_register+0x20>
    1ea4:	20002737          	lui	a4,0x20002
    1ea8:	00279613          	slli	a2,a5,0x2
    1eac:	1fc70713          	addi	a4,a4,508 # 200021fc <task_list>
    1eb0:	9732                	add	a4,a4,a2
    1eb2:	0785                	addi	a5,a5,1
    1eb4:	c308                	sw	a0,0(a4)
    1eb6:	a29c                	sb	a5,0(a3)
    1eb8:	8082                	ret

00001eba <task_yield>:
    1eba:	8501c603          	lbu	a2,-1968(gp) # 20000110 <task_count>
    1ebe:	ca0d                	beqz	a2,1ef0 <task_yield+0x36>
    1ec0:	b72fe2ef          	jal	t0,232 <__riscv_save_0>
    1ec4:	84818713          	addi	a4,gp,-1976 # 20000108 <current_task_idx>
    1ec8:	231c                	lbu	a5,0(a4)
    1eca:	84418693          	addi	a3,gp,-1980 # 20000104 <current_task>
    1ece:	0785                	addi	a5,a5,1
    1ed0:	02c7e7b3          	rem	a5,a5,a2
    1ed4:	4288                	lw	a0,0(a3)
    1ed6:	a31c                	sb	a5,0(a4)
    1ed8:	20002737          	lui	a4,0x20002
    1edc:	1fc70713          	addi	a4,a4,508 # 200021fc <task_list>
    1ee0:	078a                	slli	a5,a5,0x2
    1ee2:	97ba                	add	a5,a5,a4
    1ee4:	438c                	lw	a1,0(a5)
    1ee6:	c28c                	sw	a1,0(a3)
    1ee8:	ad8fe0ef          	jal	ra,1c0 <cpu_switch>
    1eec:	b6afe06f          	j	256 <__riscv_restore_0>
    1ef0:	8082                	ret

00001ef2 <os_start>:
    1ef2:	8501c783          	lbu	a5,-1968(gp) # 20000110 <task_count>
    1ef6:	c38d                	beqz	a5,1f18 <os_start+0x26>
    1ef8:	b3afe2ef          	jal	t0,232 <__riscv_save_0>
    1efc:	84018423          	sb	zero,-1976(gp) # 20000108 <current_task_idx>
    1f00:	200027b7          	lui	a5,0x20002
    1f04:	1fc7a583          	lw	a1,508(a5) # 200021fc <task_list>
    1f08:	84c18513          	addi	a0,gp,-1972 # 2000010c <main_sp>
    1f0c:	84b1a223          	sw	a1,-1980(gp) # 20000104 <current_task>
    1f10:	ab0fe0ef          	jal	ra,1c0 <cpu_switch>
    1f14:	b42fe06f          	j	256 <__riscv_restore_0>
    1f18:	8082                	ret

00001f1a <os_tick_hardware_init>:
    1f1a:	b18fe2ef          	jal	t0,232 <__riscv_save_0>
    1f1e:	1101                	addi	sp,sp,-32
    1f20:	4585                	li	a1,1
    1f22:	4505                	li	a0,1
    1f24:	ca02                	sw	zero,20(sp)
    1f26:	cc02                	sw	zero,24(sp)
    1f28:	00011e23          	sh	zero,28(sp)
    1f2c:	c602                	sw	zero,12(sp)
    1f2e:	c802                	sw	zero,16(sp)
    1f30:	f7ffe0ef          	jal	ra,eae <RCC_APB1PeriphClockCmd>
    1f34:	200007b7          	lui	a5,0x20000
    1f38:	0c07a783          	lw	a5,192(a5) # 200000c0 <SystemCoreClock>
    1f3c:	000f4737          	lui	a4,0xf4
    1f40:	24070713          	addi	a4,a4,576 # f4240 <_data_lma+0xe7aec>
    1f44:	02e7d7b3          	divu	a5,a5,a4
    1f48:	084c                	addi	a1,sp,20
    1f4a:	40000537          	lui	a0,0x40000
    1f4e:	00011b23          	sh	zero,22(sp)
    1f52:	17fd                	addi	a5,a5,-1
    1f54:	82fc                	sh	a5,20(sp)
    1f56:	3e700793          	li	a5,999
    1f5a:	cc3e                	sw	a5,24(sp)
    1f5c:	ff9fe0ef          	jal	ra,f54 <TIM_TimeBaseInit>
    1f60:	02c00793          	li	a5,44
    1f64:	867c                	sh	a5,12(sp)
    1f66:	4785                	li	a5,1
    1f68:	875c                	sb	a5,14(sp)
    1f6a:	0068                	addi	a0,sp,12
    1f6c:	4785                	li	a5,1
    1f6e:	c83e                	sw	a5,16(sp)
    1f70:	d3dfe0ef          	jal	ra,cac <NVIC_Init>
    1f74:	4605                	li	a2,1
    1f76:	4585                	li	a1,1
    1f78:	40000537          	lui	a0,0x40000
    1f7c:	8deff0ef          	jal	ra,105a <TIM_ITConfig>
    1f80:	4585                	li	a1,1
    1f82:	40000537          	lui	a0,0x40000
    1f86:	8bcff0ef          	jal	ra,1042 <TIM_Cmd>
    1f8a:	6105                	addi	sp,sp,32
    1f8c:	acafe06f          	j	256 <__riscv_restore_0>

00001f90 <os_timer_init>:
    1f90:	cd09                	beqz	a0,1faa <os_timer_init+0x1a>
    1f92:	ce01                	beqz	a2,1faa <os_timer_init+0x1a>
    1f94:	c10c                	sw	a1,0(a0)
    1f96:	c150                	sw	a2,4(a0)
    1f98:	c514                	sw	a3,8(a0)
    1f9a:	c558                	sw	a4,12(a0)
    1f9c:	00052823          	sw	zero,16(a0) # 40000010 <_eusrstack+0x1fff8010>
    1fa0:	a95c                	sb	a5,20(a0)
    1fa2:	00050aa3          	sb	zero,21(a0)
    1fa6:	00052c23          	sw	zero,24(a0)
    1faa:	8082                	ret

00001fac <os_timer_start>:
    1fac:	c90d                	beqz	a0,1fde <os_timer_start+0x32>
    1fae:	3958                	lbu	a4,21(a0)
    1fb0:	4785                	li	a5,1
    1fb2:	02f70663          	beq	a4,a5,1fde <os_timer_start+0x32>
    1fb6:	8541a703          	lw	a4,-1964(gp) # 20000114 <g_os_tick>
    1fba:	455c                	lw	a5,12(a0)
    1fbc:	97ba                	add	a5,a5,a4
    1fbe:	c91c                	sw	a5,16(a0)
    1fc0:	8581a683          	lw	a3,-1960(gp) # 20000118 <timer_list_head>
    1fc4:	85818793          	addi	a5,gp,-1960 # 20000118 <timer_list_head>
    1fc8:	8736                	mv	a4,a3
    1fca:	e711                	bnez	a4,1fd6 <os_timer_start+0x2a>
    1fcc:	cd14                	sw	a3,24(a0)
    1fce:	c388                	sw	a0,0(a5)
    1fd0:	4785                	li	a5,1
    1fd2:	b95c                	sb	a5,21(a0)
    1fd4:	8082                	ret
    1fd6:	fea70de3          	beq	a4,a0,1fd0 <os_timer_start+0x24>
    1fda:	4f18                	lw	a4,24(a4)
    1fdc:	b7fd                	j	1fca <os_timer_start+0x1e>
    1fde:	8082                	ret

00001fe0 <os_timer_stop>:
    1fe0:	c509                	beqz	a0,1fea <os_timer_stop+0xa>
    1fe2:	395c                	lbu	a5,21(a0)
    1fe4:	c399                	beqz	a5,1fea <os_timer_stop+0xa>
    1fe6:	00050aa3          	sb	zero,21(a0)
    1fea:	8082                	ret

00001fec <os_timer_ticks_update>:
    1fec:	a46fe2ef          	jal	t0,232 <__riscv_save_0>
    1ff0:	85418713          	addi	a4,gp,-1964 # 20000114 <g_os_tick>
    1ff4:	431c                	lw	a5,0(a4)
    1ff6:	85418493          	addi	s1,gp,-1964 # 20000114 <g_os_tick>
    1ffa:	4905                	li	s2,1
    1ffc:	0785                	addi	a5,a5,1
    1ffe:	c31c                	sw	a5,0(a4)
    2000:	8581a403          	lw	s0,-1960(gp) # 20000118 <timer_list_head>
    2004:	e019                	bnez	s0,200a <os_timer_ticks_update+0x1e>
    2006:	a50fe06f          	j	256 <__riscv_restore_0>
    200a:	385c                	lbu	a5,21(s0)
    200c:	01279e63          	bne	a5,s2,2028 <os_timer_ticks_update+0x3c>
    2010:	409c                	lw	a5,0(s1)
    2012:	4818                	lw	a4,16(s0)
    2014:	8f99                	sub	a5,a5,a4
    2016:	0007c963          	bltz	a5,2028 <os_timer_ticks_update+0x3c>
    201a:	285c                	lbu	a5,20(s0)
    201c:	eb81                	bnez	a5,202c <os_timer_ticks_update+0x40>
    201e:	00040aa3          	sb	zero,21(s0)
    2022:	405c                	lw	a5,4(s0)
    2024:	4408                	lw	a0,8(s0)
    2026:	9782                	jalr	a5
    2028:	4c00                	lw	s0,24(s0)
    202a:	bfe9                	j	2004 <os_timer_ticks_update+0x18>
    202c:	4098                	lw	a4,0(s1)
    202e:	445c                	lw	a5,12(s0)
    2030:	97ba                	add	a5,a5,a4
    2032:	c81c                	sw	a5,16(s0)
    2034:	b7fd                	j	2022 <os_timer_ticks_update+0x36>

00002036 <os_delay>:
    2036:	9fcfe2ef          	jal	t0,232 <__riscv_save_0>
    203a:	85418713          	addi	a4,gp,-1964 # 20000114 <g_os_tick>
    203e:	4318                	lw	a4,0(a4)
    2040:	85418413          	addi	s0,gp,-1964 # 20000114 <g_os_tick>
    2044:	00a704b3          	add	s1,a4,a0
    2048:	401c                	lw	a5,0(s0)
    204a:	8f85                	sub	a5,a5,s1
    204c:	0007c463          	bltz	a5,2054 <os_delay+0x1e>
    2050:	a06fe06f          	j	256 <__riscv_restore_0>
    2054:	e67ff0ef          	jal	ra,1eba <task_yield>
    2058:	bfc5                	j	2048 <os_delay+0x12>

0000205a <lfs_pair_isnull>:
    205a:	4118                	lw	a4,0(a0)
    205c:	57fd                	li	a5,-1
    205e:	00f70763          	beq	a4,a5,206c <lfs_pair_isnull+0x12>
    2062:	4148                	lw	a0,4(a0)
    2064:	0505                	addi	a0,a0,1
    2066:	00153513          	seqz	a0,a0
    206a:	8082                	ret
    206c:	4505                	li	a0,1
    206e:	8082                	ret

00002070 <lfs_pair_cmp>:
    2070:	4110                	lw	a2,0(a0)
    2072:	419c                	lw	a5,0(a1)
    2074:	00f60e63          	beq	a2,a5,2090 <lfs_pair_cmp+0x20>
    2078:	4158                	lw	a4,4(a0)
    207a:	41d4                	lw	a3,4(a1)
    207c:	4501                	li	a0,0
    207e:	00d70a63          	beq	a4,a3,2092 <lfs_pair_cmp+0x22>
    2082:	00d60863          	beq	a2,a3,2092 <lfs_pair_cmp+0x22>
    2086:	40e78533          	sub	a0,a5,a4
    208a:	00a03533          	snez	a0,a0
    208e:	8082                	ret
    2090:	4501                	li	a0,0
    2092:	8082                	ret

00002094 <lfs_tag_dsize>:
    2094:	01651793          	slli	a5,a0,0x16
    2098:	87d9                	srai	a5,a5,0x16
    209a:	0785                	addi	a5,a5,1
    209c:	0017b793          	seqz	a5,a5
    20a0:	953e                	add	a0,a0,a5
    20a2:	3ff57513          	andi	a0,a0,1023
    20a6:	0511                	addi	a0,a0,4
    20a8:	8082                	ret

000020aa <lfs_gstate_xor>:
    20aa:	4198                	lw	a4,0(a1)
    20ac:	411c                	lw	a5,0(a0)
    20ae:	8fb9                	xor	a5,a5,a4
    20b0:	c11c                	sw	a5,0(a0)
    20b2:	41d8                	lw	a4,4(a1)
    20b4:	415c                	lw	a5,4(a0)
    20b6:	8fb9                	xor	a5,a5,a4
    20b8:	c15c                	sw	a5,4(a0)
    20ba:	4598                	lw	a4,8(a1)
    20bc:	451c                	lw	a5,8(a0)
    20be:	8fb9                	xor	a5,a5,a4
    20c0:	c51c                	sw	a5,8(a0)
    20c2:	8082                	ret

000020c4 <lfs_gstate_iszero>:
    20c4:	411c                	lw	a5,0(a0)
    20c6:	eb81                	bnez	a5,20d6 <lfs_gstate_iszero+0x12>
    20c8:	4158                	lw	a4,4(a0)
    20ca:	e701                	bnez	a4,20d2 <lfs_gstate_iszero+0xe>
    20cc:	451c                	lw	a5,8(a0)
    20ce:	0017b793          	seqz	a5,a5
    20d2:	853e                	mv	a0,a5
    20d4:	8082                	ret
    20d6:	4781                	li	a5,0
    20d8:	bfed                	j	20d2 <lfs_gstate_iszero+0xe>

000020da <lfs_gstate_hasmovehere>:
    20da:	411c                	lw	a5,0(a0)
    20dc:	83d1                	srli	a5,a5,0x14
    20de:	7007f793          	andi	a5,a5,1792
    20e2:	cb91                	beqz	a5,20f6 <lfs_gstate_hasmovehere+0x1c>
    20e4:	94efe2ef          	jal	t0,232 <__riscv_save_0>
    20e8:	0511                	addi	a0,a0,4
    20ea:	f87ff0ef          	jal	ra,2070 <lfs_pair_cmp>
    20ee:	00153513          	seqz	a0,a0
    20f2:	964fe06f          	j	256 <__riscv_restore_0>
    20f6:	4501                	li	a0,0
    20f8:	8082                	ret

000020fa <lfs_mlist_isopen>:
    20fa:	e111                	bnez	a0,20fe <lfs_mlist_isopen+0x4>
    20fc:	8082                	ret
    20fe:	00b50463          	beq	a0,a1,2106 <lfs_mlist_isopen+0xc>
    2102:	4108                	lw	a0,0(a0)
    2104:	bfdd                	j	20fa <lfs_mlist_isopen>
    2106:	4505                	li	a0,1
    2108:	8082                	ret

0000210a <lfs_alloc_lookahead>:
    210a:	557c                	lw	a5,108(a0)
    210c:	4978                	lw	a4,84(a0)
    210e:	95be                	add	a1,a1,a5
    2110:	8d99                	sub	a1,a1,a4
    2112:	02f5f5b3          	remu	a1,a1,a5
    2116:	4d3c                	lw	a5,88(a0)
    2118:	00f5fd63          	bgeu	a1,a5,2132 <lfs_alloc_lookahead+0x28>
    211c:	5178                	lw	a4,100(a0)
    211e:	0035d793          	srli	a5,a1,0x3
    2122:	899d                	andi	a1,a1,7
    2124:	973e                	add	a4,a4,a5
    2126:	4785                	li	a5,1
    2128:	00b795b3          	sll	a1,a5,a1
    212c:	231c                	lbu	a5,0(a4)
    212e:	8ddd                	or	a1,a1,a5
    2130:	a30c                	sb	a1,0(a4)
    2132:	4501                	li	a0,0
    2134:	8082                	ret

00002136 <lfs_dir_traverse_filter>:
    2136:	00359793          	slli	a5,a1,0x3
    213a:	862a                	mv	a2,a0
    213c:	0407c463          	bltz	a5,2184 <lfs_dir_traverse_filter+0x4e>
    2140:	70100737          	lui	a4,0x70100
    2144:	c0070713          	addi	a4,a4,-1024 # 700ffc00 <_eusrstack+0x500f7c00>
    2148:	4214                	lw	a3,0(a2)
    214a:	00b6c7b3          	xor	a5,a3,a1
    214e:	8f7d                	and	a4,a4,a5
    2150:	c715                	beqz	a4,217c <lfs_dir_traverse_filter+0x46>
    2152:	01669793          	slli	a5,a3,0x16
    2156:	87d9                	srai	a5,a5,0x16
    2158:	577d                	li	a4,-1
    215a:	02e78163          	beq	a5,a4,217c <lfs_dir_traverse_filter+0x46>
    215e:	00100737          	lui	a4,0x100
    2162:	800007b7          	lui	a5,0x80000
    2166:	c0070713          	addi	a4,a4,-1024 # ffc00 <_data_lma+0xf34ac>
    216a:	c007c793          	xori	a5,a5,-1024
    216e:	8f75                	and	a4,a4,a3
    2170:	4ff00537          	lui	a0,0x4ff00
    2174:	8fed                	and	a5,a5,a1
    2176:	8f49                	or	a4,a4,a0
    2178:	00e79b63          	bne	a5,a4,218e <lfs_dir_traverse_filter+0x58>
    217c:	00062023          	sw	zero,0(a2)
    2180:	4505                	li	a0,1
    2182:	8082                	ret
    2184:	80000737          	lui	a4,0x80000
    2188:	c0074713          	xori	a4,a4,-1024
    218c:	bf75                	j	2148 <lfs_dir_traverse_filter+0x12>
    218e:	0145d793          	srli	a5,a1,0x14
    2192:	7007f813          	andi	a6,a5,1792
    2196:	40000713          	li	a4,1024
    219a:	4501                	li	a0,0
    219c:	02e81063          	bne	a6,a4,21bc <lfs_dir_traverse_filter+0x86>
    21a0:	00a6d713          	srli	a4,a3,0xa
    21a4:	81a9                	srli	a1,a1,0xa
    21a6:	3ff77713          	andi	a4,a4,1023
    21aa:	3ff5f593          	andi	a1,a1,1023
    21ae:	00b76763          	bltu	a4,a1,21bc <lfs_dir_traverse_filter+0x86>
    21b2:	07e2                	slli	a5,a5,0x18
    21b4:	87e1                	srai	a5,a5,0x18
    21b6:	07aa                	slli	a5,a5,0xa
    21b8:	97b6                	add	a5,a5,a3
    21ba:	c21c                	sw	a5,0(a2)
    21bc:	8082                	ret

000021be <lfs_dir_commit_size>:
    21be:	874fe2ef          	jal	t0,232 <__riscv_save_0>
    21c2:	842a                	mv	s0,a0
    21c4:	852e                	mv	a0,a1
    21c6:	ecfff0ef          	jal	ra,2094 <lfs_tag_dsize>
    21ca:	401c                	lw	a5,0(s0)
    21cc:	953e                	add	a0,a0,a5
    21ce:	c008                	sw	a0,0(s0)
    21d0:	4501                	li	a0,0
    21d2:	884fe06f          	j	256 <__riscv_restore_0>

000021d6 <lfs_fs_size_count>:
    21d6:	411c                	lw	a5,0(a0)
    21d8:	0785                	addi	a5,a5,1
    21da:	c11c                	sw	a5,0(a0)
    21dc:	4501                	li	a0,0
    21de:	8082                	ret

000021e0 <lfs_bd_read>:
    21e0:	822fe2ef          	jal	t0,202 <__riscv_save_12>
    21e4:	8c3a                	mv	s8,a4
    21e6:	843e                	mv	s0,a5
    21e8:	01178733          	add	a4,a5,a7
    21ec:	553c                	lw	a5,104(a0)
    21ee:	4fdc                	lw	a5,28(a5)
    21f0:	00e7ed63          	bltu	a5,a4,220a <lfs_bd_read+0x2a>
    21f4:	557c                	lw	a5,108(a0)
    21f6:	8a2a                	mv	s4,a0
    21f8:	8cae                	mv	s9,a1
    21fa:	8bb2                	mv	s7,a2
    21fc:	8ab6                	mv	s5,a3
    21fe:	8d42                	mv	s10,a6
    2200:	8946                	mv	s2,a7
    2202:	16078b63          	beqz	a5,2378 <lfs_bd_read+0x198>
    2206:	16fc6963          	bltu	s8,a5,2378 <lfs_bd_read+0x198>
    220a:	fac00513          	li	a0,-84
    220e:	a29d                	j	2374 <lfs_bd_read+0x194>
    2210:	040c8963          	beqz	s9,2262 <lfs_bd_read+0x82>
    2214:	000ca783          	lw	a5,0(s9)
    2218:	84ca                	mv	s1,s2
    221a:	05879563          	bne	a5,s8,2264 <lfs_bd_read+0x84>
    221e:	004ca483          	lw	s1,4(s9)
    2222:	008ca983          	lw	s3,8(s9)
    2226:	99a6                	add	s3,s3,s1
    2228:	03347d63          	bgeu	s0,s3,2262 <lfs_bd_read+0x82>
    222c:	02946863          	bltu	s0,s1,225c <lfs_bd_read+0x7c>
    2230:	408989b3          	sub	s3,s3,s0
    2234:	01397363          	bgeu	s2,s3,223a <lfs_bd_read+0x5a>
    2238:	89ca                	mv	s3,s2
    223a:	00cca583          	lw	a1,12(s9)
    223e:	409404b3          	sub	s1,s0,s1
    2242:	864e                	mv	a2,s3
    2244:	95a6                	add	a1,a1,s1
    2246:	856a                	mv	a0,s10
    2248:	3d3060ef          	jal	ra,8e1a <memcpy>
    224c:	9d4e                	add	s10,s10,s3
    224e:	944e                	add	s0,s0,s3
    2250:	41390933          	sub	s2,s2,s3
    2254:	fa091ee3          	bnez	s2,2210 <lfs_bd_read+0x30>
    2258:	4501                	li	a0,0
    225a:	aa29                	j	2374 <lfs_bd_read+0x194>
    225c:	8c81                	sub	s1,s1,s0
    225e:	00997363          	bgeu	s2,s1,2264 <lfs_bd_read+0x84>
    2262:	84ca                	mv	s1,s2
    2264:	000ba783          	lw	a5,0(s7)
    2268:	03879b63          	bne	a5,s8,229e <lfs_bd_read+0xbe>
    226c:	004ba583          	lw	a1,4(s7)
    2270:	008ba983          	lw	s3,8(s7)
    2274:	99ae                	add	s3,s3,a1
    2276:	03347463          	bgeu	s0,s3,229e <lfs_bd_read+0xbe>
    227a:	00b46e63          	bltu	s0,a1,2296 <lfs_bd_read+0xb6>
    227e:	408989b3          	sub	s3,s3,s0
    2282:	0134f363          	bgeu	s1,s3,2288 <lfs_bd_read+0xa8>
    2286:	89a6                	mv	s3,s1
    2288:	00cba783          	lw	a5,12(s7)
    228c:	40b405b3          	sub	a1,s0,a1
    2290:	864e                	mv	a2,s3
    2292:	95be                	add	a1,a1,a5
    2294:	bf4d                	j	2246 <lfs_bd_read+0x66>
    2296:	8d81                	sub	a1,a1,s0
    2298:	0095f363          	bgeu	a1,s1,229e <lfs_bd_read+0xbe>
    229c:	84ae                	mv	s1,a1
    229e:	05596c63          	bltu	s2,s5,22f6 <lfs_bd_read+0x116>
    22a2:	068a2503          	lw	a0,104(s4)
    22a6:	495c                	lw	a5,20(a0)
    22a8:	02f47733          	remu	a4,s0,a5
    22ac:	e729                	bnez	a4,22f6 <lfs_bd_read+0x116>
    22ae:	04f96463          	bltu	s2,a5,22f6 <lfs_bd_read+0x116>
    22b2:	02f4f9b3          	remu	s3,s1,a5
    22b6:	415c                	lw	a5,4(a0)
    22b8:	86ea                	mv	a3,s10
    22ba:	8622                	mv	a2,s0
    22bc:	85e2                	mv	a1,s8
    22be:	41348db3          	sub	s11,s1,s3
    22c2:	876e                	mv	a4,s11
    22c4:	9782                	jalr	a5
    22c6:	02a05163          	blez	a0,22e8 <lfs_bd_read+0x108>
    22ca:	0000b6b7          	lui	a3,0xb
    22ce:	662d                	lui	a2,0xb
    22d0:	72868693          	addi	a3,a3,1832 # b728 <defaults.4608+0xdc>
    22d4:	4ec60613          	addi	a2,a2,1260 # b4ec <__func__.3667>
    22d8:	06000593          	li	a1,96
    22dc:	0000b537          	lui	a0,0xb
    22e0:	73450513          	addi	a0,a0,1844 # b734 <defaults.4608+0xe8>
    22e4:	297060ef          	jal	ra,8d7a <__assert_func>
    22e8:	e551                	bnez	a0,2374 <lfs_bd_read+0x194>
    22ea:	409984b3          	sub	s1,s3,s1
    22ee:	9d6e                	add	s10,s10,s11
    22f0:	946e                	add	s0,s0,s11
    22f2:	9926                	add	s2,s2,s1
    22f4:	b785                	j	2254 <lfs_bd_read+0x74>
    22f6:	06ca2783          	lw	a5,108(s4)
    22fa:	cf89                	beqz	a5,2314 <lfs_bd_read+0x134>
    22fc:	00fc6c63          	bltu	s8,a5,2314 <lfs_bd_read+0x134>
    2300:	0000b6b7          	lui	a3,0xb
    2304:	662d                	lui	a2,0xb
    2306:	74868693          	addi	a3,a3,1864 # b748 <defaults.4608+0xfc>
    230a:	4ec60613          	addi	a2,a2,1260 # b4ec <__func__.3667>
    230e:	06c00593          	li	a1,108
    2312:	b7e9                	j	22dc <lfs_bd_read+0xfc>
    2314:	068a2503          	lw	a0,104(s4)
    2318:	018ba023          	sw	s8,0(s7)
    231c:	495c                	lw	a5,20(a0)
    231e:	4d4c                	lw	a1,28(a0)
    2320:	00fb0733          	add	a4,s6,a5
    2324:	02f476b3          	remu	a3,s0,a5
    2328:	9722                	add	a4,a4,s0
    232a:	02f777b3          	remu	a5,a4,a5
    232e:	40d40633          	sub	a2,s0,a3
    2332:	00cba223          	sw	a2,4(s7)
    2336:	8f1d                	sub	a4,a4,a5
    2338:	00e5f363          	bgeu	a1,a4,233e <lfs_bd_read+0x15e>
    233c:	872e                	mv	a4,a1
    233e:	551c                	lw	a5,40(a0)
    2340:	8e81                	sub	a3,a3,s0
    2342:	9736                	add	a4,a4,a3
    2344:	00e7f363          	bgeu	a5,a4,234a <lfs_bd_read+0x16a>
    2348:	873e                	mv	a4,a5
    234a:	415c                	lw	a5,4(a0)
    234c:	00cba683          	lw	a3,12(s7)
    2350:	00eba423          	sw	a4,8(s7)
    2354:	85e2                	mv	a1,s8
    2356:	9782                	jalr	a5
    2358:	00a05c63          	blez	a0,2370 <lfs_bd_read+0x190>
    235c:	0000b6b7          	lui	a3,0xb
    2360:	662d                	lui	a2,0xb
    2362:	72868693          	addi	a3,a3,1832 # b728 <defaults.4608+0xdc>
    2366:	4ec60613          	addi	a2,a2,1260 # b4ec <__func__.3667>
    236a:	07700593          	li	a1,119
    236e:	b7bd                	j	22dc <lfs_bd_read+0xfc>
    2370:	ee0502e3          	beqz	a0,2254 <lfs_bd_read+0x74>
    2374:	ecbfd06f          	j	23e <__riscv_restore_12>
    2378:	fffa8b13          	addi	s6,s5,-1
    237c:	bde1                	j	2254 <lfs_bd_read+0x74>

0000237e <lfs_dir_getslice>:
    237e:	e85fd2ef          	jal	t0,202 <__riscv_save_12>
    2382:	8d3e                	mv	s10,a5
    2384:	499c                	lw	a5,16(a1)
    2386:	1101                	addi	sp,sp,-32
    2388:	8cb2                	mv	s9,a2
    238a:	892a                	mv	s2,a0
    238c:	03c50513          	addi	a0,a0,60
    2390:	8a2e                	mv	s4,a1
    2392:	8ab6                	mv	s5,a3
    2394:	c43a                	sw	a4,8(sp)
    2396:	8bc2                	mv	s7,a6
    2398:	45c4                	lw	s1,12(a1)
    239a:	ce3e                	sw	a5,28(sp)
    239c:	00acd993          	srli	s3,s9,0xa
    23a0:	d3bff0ef          	jal	ra,20da <lfs_gstate_hasmovehere>
    23a4:	3ff9f993          	andi	s3,s3,1023
    23a8:	14050963          	beqz	a0,24fa <lfs_dir_getslice+0x17c>
    23ac:	14098763          	beqz	s3,24fa <lfs_dir_getslice+0x17c>
    23b0:	03c92783          	lw	a5,60(s2)
    23b4:	00aad713          	srli	a4,s5,0xa
    23b8:	3ff77713          	andi	a4,a4,1023
    23bc:	83a9                	srli	a5,a5,0xa
    23be:	3ff7f793          	andi	a5,a5,1023
    23c2:	00e79663          	bne	a5,a4,23ce <lfs_dir_getslice+0x50>
    23c6:	5579                	li	a0,-2
    23c8:	6105                	addi	sp,sp,32
    23ca:	e75fd06f          	j	23e <__riscv_restore_12>
    23ce:	4401                	li	s0,0
    23d0:	00e7f463          	bgeu	a5,a4,23d8 <lfs_dir_getslice+0x5a>
    23d4:	c0000413          	li	s0,-1024
    23d8:	800007b7          	lui	a5,0x80000
    23dc:	fff7c793          	not	a5,a5
    23e0:	00100c37          	lui	s8,0x100
    23e4:	c63e                	sw	a5,12(sp)
    23e6:	c00c0c13          	addi	s8,s8,-1024 # ffc00 <_data_lma+0xf34ac>
    23ea:	40100db7          	lui	s11,0x40100
    23ee:	4b72                	lw	s6,28(sp)
    23f0:	855a                	mv	a0,s6
    23f2:	ca3ff0ef          	jal	ra,2094 <lfs_tag_dsize>
    23f6:	00450793          	addi	a5,a0,4
    23fa:	fcf4e6e3          	bltu	s1,a5,23c6 <lfs_dir_getslice+0x48>
    23fe:	000a2703          	lw	a4,0(s4)
    2402:	8c89                	sub	s1,s1,a0
    2404:	4891                	li	a7,4
    2406:	01c10813          	addi	a6,sp,28
    240a:	87a6                	mv	a5,s1
    240c:	4691                	li	a3,4
    240e:	864a                	mv	a2,s2
    2410:	4581                	li	a1,0
    2412:	854a                	mv	a0,s2
    2414:	dcdff0ef          	jal	ra,21e0 <lfs_bd_read>
    2418:	02a05163          	blez	a0,243a <lfs_dir_getslice+0xbc>
    241c:	0000b6b7          	lui	a3,0xb
    2420:	662d                	lui	a2,0xb
    2422:	72868693          	addi	a3,a3,1832 # b728 <defaults.4608+0xdc>
    2426:	53060613          	addi	a2,a2,1328 # b530 <__func__.4023>
    242a:	2e700593          	li	a1,743
    242e:	0000b537          	lui	a0,0xb
    2432:	73450513          	addi	a0,a0,1844 # b734 <defaults.4608+0xe8>
    2436:	145060ef          	jal	ra,8d7a <__assert_func>
    243a:	f559                	bnez	a0,23c8 <lfs_dir_getslice+0x4a>
    243c:	4572                	lw	a0,28(sp)
    243e:	028040ef          	jal	ra,6466 <__bswapsi2>
    2442:	47b2                	lw	a5,12(sp)
    2444:	00ab4533          	xor	a0,s6,a0
    2448:	8d7d                	and	a0,a0,a5
    244a:	ce2a                	sw	a0,28(sp)
    244c:	04098063          	beqz	s3,248c <lfs_dir_getslice+0x10e>
    2450:	014b5793          	srli	a5,s6,0x14
    2454:	7007f713          	andi	a4,a5,1792
    2458:	40000693          	li	a3,1024
    245c:	02d71863          	bne	a4,a3,248c <lfs_dir_getslice+0x10e>
    2460:	408a8733          	sub	a4,s5,s0
    2464:	00a75613          	srli	a2,a4,0xa
    2468:	00ab5693          	srli	a3,s6,0xa
    246c:	3ff67613          	andi	a2,a2,1023
    2470:	3ff6f693          	andi	a3,a3,1023
    2474:	00d66c63          	bltu	a2,a3,248c <lfs_dir_getslice+0x10e>
    2478:	01877733          	and	a4,a4,s8
    247c:	01b76733          	or	a4,a4,s11
    2480:	f56703e3          	beq	a4,s6,23c6 <lfs_dir_getslice+0x48>
    2484:	07e2                	slli	a5,a5,0x18
    2486:	87e1                	srai	a5,a5,0x18
    2488:	07aa                	slli	a5,a5,0xa
    248a:	943e                	add	s0,s0,a5
    248c:	408a87b3          	sub	a5,s5,s0
    2490:	0167c7b3          	xor	a5,a5,s6
    2494:	0197f7b3          	and	a5,a5,s9
    2498:	fbb9                	bnez	a5,23ee <lfs_dir_getslice+0x70>
    249a:	016b1793          	slli	a5,s6,0x16
    249e:	87d9                	srai	a5,a5,0x16
    24a0:	577d                	li	a4,-1
    24a2:	f2e782e3          	beq	a5,a4,23c6 <lfs_dir_getslice+0x48>
    24a6:	3ffb7993          	andi	s3,s6,1023
    24aa:	013bf363          	bgeu	s7,s3,24b0 <lfs_dir_getslice+0x132>
    24ae:	89de                	mv	s3,s7
    24b0:	47a2                	lw	a5,8(sp)
    24b2:	000a2703          	lw	a4,0(s4)
    24b6:	88ce                	mv	a7,s3
    24b8:	0791                	addi	a5,a5,4
    24ba:	886a                	mv	a6,s10
    24bc:	97a6                	add	a5,a5,s1
    24be:	86ce                	mv	a3,s3
    24c0:	864a                	mv	a2,s2
    24c2:	4581                	li	a1,0
    24c4:	854a                	mv	a0,s2
    24c6:	d1bff0ef          	jal	ra,21e0 <lfs_bd_read>
    24ca:	00a05c63          	blez	a0,24e2 <lfs_dir_getslice+0x164>
    24ce:	0000b6b7          	lui	a3,0xb
    24d2:	662d                	lui	a2,0xb
    24d4:	72868693          	addi	a3,a3,1832 # b728 <defaults.4608+0xdc>
    24d8:	53060613          	addi	a2,a2,1328 # b530 <__func__.4023>
    24dc:	30400593          	li	a1,772
    24e0:	b7b9                	j	242e <lfs_dir_getslice+0xb0>
    24e2:	ee0513e3          	bnez	a0,23c8 <lfs_dir_getslice+0x4a>
    24e6:	413b8633          	sub	a2,s7,s3
    24ea:	4581                	li	a1,0
    24ec:	013d0533          	add	a0,s10,s3
    24f0:	d73fd0ef          	jal	ra,262 <memset>
    24f4:	01640533          	add	a0,s0,s6
    24f8:	bdc1                	j	23c8 <lfs_dir_getslice+0x4a>
    24fa:	4401                	li	s0,0
    24fc:	bdf1                	j	23d8 <lfs_dir_getslice+0x5a>

000024fe <lfs_dir_get>:
    24fe:	d35fd2ef          	jal	t0,232 <__riscv_save_0>
    2502:	87ba                	mv	a5,a4
    2504:	3ff6f813          	andi	a6,a3,1023
    2508:	4701                	li	a4,0
    250a:	e75ff0ef          	jal	ra,237e <lfs_dir_getslice>
    250e:	d49fd06f          	j	256 <__riscv_restore_0>

00002512 <lfs_dir_getgstate>:
    2512:	d21fd2ef          	jal	t0,232 <__riscv_save_0>
    2516:	1141                	addi	sp,sp,-16
    2518:	7ff006b7          	lui	a3,0x7ff00
    251c:	8432                	mv	s0,a2
    251e:	0058                	addi	a4,sp,4
    2520:	06b1                	addi	a3,a3,12
    2522:	7ff00637          	lui	a2,0x7ff00
    2526:	fd9ff0ef          	jal	ra,24fe <lfs_dir_get>
    252a:	00055863          	bgez	a0,253a <lfs_dir_getgstate+0x28>
    252e:	57f9                	li	a5,-2
    2530:	00f50963          	beq	a0,a5,2542 <lfs_dir_getgstate+0x30>
    2534:	0141                	addi	sp,sp,16
    2536:	d21fd06f          	j	256 <__riscv_restore_0>
    253a:	004c                	addi	a1,sp,4
    253c:	8522                	mv	a0,s0
    253e:	b6dff0ef          	jal	ra,20aa <lfs_gstate_xor>
    2542:	4501                	li	a0,0
    2544:	bfc5                	j	2534 <lfs_dir_getgstate+0x22>

00002546 <lfs_fs_parent_match>:
    2546:	cedfd2ef          	jal	t0,232 <__riscv_save_0>
    254a:	8732                	mv	a4,a2
    254c:	4110                	lw	a2,0(a0)
    254e:	435c                	lw	a5,4(a4)
    2550:	4318                	lw	a4,0(a4)
    2552:	5634                	lw	a3,104(a2)
    2554:	1141                	addi	sp,sp,-16
    2556:	842a                	mv	s0,a0
    2558:	4ed4                	lw	a3,28(a3)
    255a:	48a1                	li	a7,8
    255c:	00810813          	addi	a6,sp,8
    2560:	01060593          	addi	a1,a2,16 # 7ff00010 <_eusrstack+0x5fef8010>
    2564:	8532                	mv	a0,a2
    2566:	c7bff0ef          	jal	ra,21e0 <lfs_bd_read>
    256a:	e901                	bnez	a0,257a <lfs_fs_parent_match+0x34>
    256c:	00440593          	addi	a1,s0,4
    2570:	0028                	addi	a0,sp,8
    2572:	affff0ef          	jal	ra,2070 <lfs_pair_cmp>
    2576:	00a03533          	snez	a0,a0
    257a:	0141                	addi	sp,sp,16
    257c:	cdbfd06f          	j	256 <__riscv_restore_0>

00002580 <lfs_deinit>:
    2580:	cb3fd2ef          	jal	t0,232 <__riscv_save_0>
    2584:	553c                	lw	a5,104(a0)
    2586:	842a                	mv	s0,a0
    2588:	5bdc                	lw	a5,52(a5)
    258a:	e781                	bnez	a5,2592 <lfs_deinit+0x12>
    258c:	4548                	lw	a0,12(a0)
    258e:	05f060ef          	jal	ra,8dec <free>
    2592:	543c                	lw	a5,104(s0)
    2594:	5f9c                	lw	a5,56(a5)
    2596:	e781                	bnez	a5,259e <lfs_deinit+0x1e>
    2598:	4c48                	lw	a0,28(s0)
    259a:	053060ef          	jal	ra,8dec <free>
    259e:	543c                	lw	a5,104(s0)
    25a0:	5fdc                	lw	a5,60(a5)
    25a2:	e781                	bnez	a5,25aa <lfs_deinit+0x2a>
    25a4:	5068                	lw	a0,100(s0)
    25a6:	047060ef          	jal	ra,8dec <free>
    25aa:	4501                	li	a0,0
    25ac:	cabfd06f          	j	256 <__riscv_restore_0>

000025b0 <lfs_bd_erase>:
    25b0:	c83fd2ef          	jal	t0,232 <__riscv_save_0>
    25b4:	557c                	lw	a5,108(a0)
    25b6:	02f5e163          	bltu	a1,a5,25d8 <lfs_bd_erase+0x28>
    25ba:	0000b6b7          	lui	a3,0xb
    25be:	662d                	lui	a2,0xb
    25c0:	68c68693          	addi	a3,a3,1676 # b68c <defaults.4608+0x40>
    25c4:	52060613          	addi	a2,a2,1312 # b520 <__func__.3746>
    25c8:	11500593          	li	a1,277
    25cc:	0000b537          	lui	a0,0xb
    25d0:	73450513          	addi	a0,a0,1844 # b734 <defaults.4608+0xe8>
    25d4:	7a6060ef          	jal	ra,8d7a <__assert_func>
    25d8:	5528                	lw	a0,104(a0)
    25da:	455c                	lw	a5,12(a0)
    25dc:	9782                	jalr	a5
    25de:	00a05c63          	blez	a0,25f6 <lfs_bd_erase+0x46>
    25e2:	0000b6b7          	lui	a3,0xb
    25e6:	662d                	lui	a2,0xb
    25e8:	72868693          	addi	a3,a3,1832 # b728 <defaults.4608+0xdc>
    25ec:	52060613          	addi	a2,a2,1312 # b520 <__func__.3746>
    25f0:	11700593          	li	a1,279
    25f4:	bfe1                	j	25cc <lfs_bd_erase+0x1c>
    25f6:	c61fd06f          	j	256 <__riscv_restore_0>

000025fa <lfs_fs_preporphans.isra.25>:
    25fa:	c39fd2ef          	jal	t0,232 <__riscv_save_0>
    25fe:	411c                	lw	a5,0(a0)
    2600:	3ff7f713          	andi	a4,a5,1023
    2604:	e31d                	bnez	a4,262a <lfs_fs_preporphans.isra.25+0x30>
    2606:	0405d363          	bgez	a1,264c <lfs_fs_preporphans.isra.25+0x52>
    260a:	0000c6b7          	lui	a3,0xc
    260e:	662d                	lui	a2,0xb
    2610:	6585                	lui	a1,0x1
    2612:	bf068693          	addi	a3,a3,-1040 # bbf0 <defaults.4608+0x5a4>
    2616:	5e860613          	addi	a2,a2,1512 # b5e8 <__func__.4984>
    261a:	32858593          	addi	a1,a1,808 # 1328 <os_hal_spi_init+0x48>
    261e:	0000b537          	lui	a0,0xb
    2622:	73450513          	addi	a0,a0,1844 # b734 <defaults.4608+0xe8>
    2626:	754060ef          	jal	ra,8d7a <__assert_func>
    262a:	1fe00693          	li	a3,510
    262e:	00e6ff63          	bgeu	a3,a4,264c <lfs_fs_preporphans.isra.25+0x52>
    2632:	00b05d63          	blez	a1,264c <lfs_fs_preporphans.isra.25+0x52>
    2636:	0000c6b7          	lui	a3,0xc
    263a:	662d                	lui	a2,0xb
    263c:	6585                	lui	a1,0x1
    263e:	c2868693          	addi	a3,a3,-984 # bc28 <defaults.4608+0x5dc>
    2642:	5e860613          	addi	a2,a2,1512 # b5e8 <__func__.4984>
    2646:	32958593          	addi	a1,a1,809 # 1329 <os_hal_spi_init+0x49>
    264a:	bfd1                	j	261e <lfs_fs_preporphans.isra.25+0x24>
    264c:	95be                	add	a1,a1,a5
    264e:	3ff5f793          	andi	a5,a1,1023
    2652:	00f037b3          	snez	a5,a5
    2656:	0586                	slli	a1,a1,0x1
    2658:	07fe                	slli	a5,a5,0x1f
    265a:	8185                	srli	a1,a1,0x1
    265c:	8ddd                	or	a1,a1,a5
    265e:	c10c                	sw	a1,0(a0)
    2660:	4501                	li	a0,0
    2662:	bf5fd06f          	j	256 <__riscv_restore_0>

00002666 <lfs_cache_zero.isra.27>:
    2666:	bcdfd2ef          	jal	t0,232 <__riscv_save_0>
    266a:	842e                	mv	s0,a1
    266c:	5510                	lw	a2,40(a0)
    266e:	4448                	lw	a0,12(s0)
    2670:	0ff00593          	li	a1,255
    2674:	beffd0ef          	jal	ra,262 <memset>
    2678:	57fd                	li	a5,-1
    267a:	c01c                	sw	a5,0(s0)
    267c:	bdbfd06f          	j	256 <__riscv_restore_0>

00002680 <lfs_init>:
    2680:	bb3fd2ef          	jal	t0,232 <__riscv_save_0>
    2684:	519c                	lw	a5,32(a1)
    2686:	d52c                	sw	a1,104(a0)
    2688:	842a                	mv	s0,a0
    268a:	d57c                	sw	a5,108(a0)
    268c:	41dc                	lw	a5,4(a1)
    268e:	e38d                	bnez	a5,26b0 <lfs_init+0x30>
    2690:	0000c6b7          	lui	a3,0xc
    2694:	662d                	lui	a2,0xb
    2696:	6585                	lui	a1,0x1
    2698:	c6068693          	addi	a3,a3,-928 # bc60 <defaults.4608+0x614>
    269c:	5d060613          	addi	a2,a2,1488 # b5d0 <__func__.4846>
    26a0:	08358593          	addi	a1,a1,131 # 1083 <TIM_GetITStatus+0x17>
    26a4:	0000b537          	lui	a0,0xb
    26a8:	73450513          	addi	a0,a0,1844 # b734 <defaults.4608+0xe8>
    26ac:	6ce060ef          	jal	ra,8d7a <__assert_func>
    26b0:	459c                	lw	a5,8(a1)
    26b2:	84ae                	mv	s1,a1
    26b4:	ef81                	bnez	a5,26cc <lfs_init+0x4c>
    26b6:	0000c6b7          	lui	a3,0xc
    26ba:	662d                	lui	a2,0xb
    26bc:	6585                	lui	a1,0x1
    26be:	c8068693          	addi	a3,a3,-896 # bc80 <defaults.4608+0x634>
    26c2:	5d060613          	addi	a2,a2,1488 # b5d0 <__func__.4846>
    26c6:	08558593          	addi	a1,a1,133 # 1085 <TIM_ClearITPendingBit+0x1>
    26ca:	bfe9                	j	26a4 <lfs_init+0x24>
    26cc:	45dc                	lw	a5,12(a1)
    26ce:	ef81                	bnez	a5,26e6 <lfs_init+0x66>
    26d0:	0000c6b7          	lui	a3,0xc
    26d4:	662d                	lui	a2,0xb
    26d6:	6585                	lui	a1,0x1
    26d8:	ca068693          	addi	a3,a3,-864 # bca0 <defaults.4608+0x654>
    26dc:	5d060613          	addi	a2,a2,1488 # b5d0 <__func__.4846>
    26e0:	08658593          	addi	a1,a1,134 # 1086 <TIM_ClearITPendingBit+0x2>
    26e4:	b7c1                	j	26a4 <lfs_init+0x24>
    26e6:	499c                	lw	a5,16(a1)
    26e8:	ef81                	bnez	a5,2700 <lfs_init+0x80>
    26ea:	0000c6b7          	lui	a3,0xc
    26ee:	662d                	lui	a2,0xb
    26f0:	6585                	lui	a1,0x1
    26f2:	cc068693          	addi	a3,a3,-832 # bcc0 <defaults.4608+0x674>
    26f6:	5d060613          	addi	a2,a2,1488 # b5d0 <__func__.4846>
    26fa:	08758593          	addi	a1,a1,135 # 1087 <TIM_ClearITPendingBit+0x3>
    26fe:	b75d                	j	26a4 <lfs_init+0x24>
    2700:	49d4                	lw	a3,20(a1)
    2702:	ee81                	bnez	a3,271a <lfs_init+0x9a>
    2704:	0000c6b7          	lui	a3,0xc
    2708:	662d                	lui	a2,0xb
    270a:	6585                	lui	a1,0x1
    270c:	ce068693          	addi	a3,a3,-800 # bce0 <defaults.4608+0x694>
    2710:	5d060613          	addi	a2,a2,1488 # b5d0 <__func__.4846>
    2714:	08c58593          	addi	a1,a1,140 # 108c <TIM_ClearITPendingBit+0x8>
    2718:	b771                	j	26a4 <lfs_init+0x24>
    271a:	4d98                	lw	a4,24(a1)
    271c:	ef01                	bnez	a4,2734 <lfs_init+0xb4>
    271e:	0000c6b7          	lui	a3,0xc
    2722:	662d                	lui	a2,0xb
    2724:	6585                	lui	a1,0x1
    2726:	cfc68693          	addi	a3,a3,-772 # bcfc <defaults.4608+0x6b0>
    272a:	5d060613          	addi	a2,a2,1488 # b5d0 <__func__.4846>
    272e:	08d58593          	addi	a1,a1,141 # 108d <TIM_ClearITPendingBit+0x9>
    2732:	bf8d                	j	26a4 <lfs_init+0x24>
    2734:	0285a903          	lw	s2,40(a1)
    2738:	00091d63          	bnez	s2,2752 <lfs_init+0xd2>
    273c:	0000c6b7          	lui	a3,0xc
    2740:	662d                	lui	a2,0xb
    2742:	6585                	lui	a1,0x1
    2744:	d1868693          	addi	a3,a3,-744 # bd18 <defaults.4608+0x6cc>
    2748:	5d060613          	addi	a2,a2,1488 # b5d0 <__func__.4846>
    274c:	08e58593          	addi	a1,a1,142 # 108e <TIM_ClearITPendingBit+0xa>
    2750:	bf91                	j	26a4 <lfs_init+0x24>
    2752:	02d977b3          	remu	a5,s2,a3
    2756:	cf81                	beqz	a5,276e <lfs_init+0xee>
    2758:	0000c6b7          	lui	a3,0xc
    275c:	662d                	lui	a2,0xb
    275e:	6585                	lui	a1,0x1
    2760:	d3468693          	addi	a3,a3,-716 # bd34 <defaults.4608+0x6e8>
    2764:	5d060613          	addi	a2,a2,1488 # b5d0 <__func__.4846>
    2768:	09258593          	addi	a1,a1,146 # 1092 <USART_Init+0x2>
    276c:	bf25                	j	26a4 <lfs_init+0x24>
    276e:	02e977b3          	remu	a5,s2,a4
    2772:	cf81                	beqz	a5,278a <lfs_init+0x10a>
    2774:	0000c6b7          	lui	a3,0xc
    2778:	662d                	lui	a2,0xb
    277a:	6585                	lui	a1,0x1
    277c:	d6468693          	addi	a3,a3,-668 # bd64 <defaults.4608+0x718>
    2780:	5d060613          	addi	a2,a2,1488 # b5d0 <__func__.4846>
    2784:	09358593          	addi	a1,a1,147 # 1093 <USART_Init+0x3>
    2788:	bf31                	j	26a4 <lfs_init+0x24>
    278a:	4ddc                	lw	a5,28(a1)
    278c:	0327f633          	remu	a2,a5,s2
    2790:	ce01                	beqz	a2,27a8 <lfs_init+0x128>
    2792:	0000c6b7          	lui	a3,0xc
    2796:	662d                	lui	a2,0xb
    2798:	6585                	lui	a1,0x1
    279a:	d9468693          	addi	a3,a3,-620 # bd94 <defaults.4608+0x748>
    279e:	5d060613          	addi	a2,a2,1488 # b5d0 <__func__.4846>
    27a2:	09458593          	addi	a1,a1,148 # 1094 <USART_Init+0x4>
    27a6:	bdfd                	j	26a4 <lfs_init+0x24>
    27a8:	07f00613          	li	a2,127
    27ac:	00f66d63          	bltu	a2,a5,27c6 <lfs_init+0x146>
    27b0:	0000c6b7          	lui	a3,0xc
    27b4:	662d                	lui	a2,0xb
    27b6:	6585                	lui	a1,0x1
    27b8:	dc868693          	addi	a3,a3,-568 # bdc8 <defaults.4608+0x77c>
    27bc:	5d060613          	addi	a2,a2,1488 # b5d0 <__func__.4846>
    27c0:	09758593          	addi	a1,a1,151 # 1097 <USART_Init+0x7>
    27c4:	b5c5                	j	26a4 <lfs_init+0x24>
    27c6:	51d0                	lw	a2,36(a1)
    27c8:	ee01                	bnez	a2,27e0 <lfs_init+0x160>
    27ca:	0000c6b7          	lui	a3,0xc
    27ce:	662d                	lui	a2,0xb
    27d0:	6585                	lui	a1,0x1
    27d2:	de468693          	addi	a3,a3,-540 # bde4 <defaults.4608+0x798>
    27d6:	5d060613          	addi	a2,a2,1488 # b5d0 <__func__.4846>
    27da:	0a358593          	addi	a1,a1,163 # 10a3 <USART_Init+0x13>
    27de:	b5d9                	j	26a4 <lfs_init+0x24>
    27e0:	5990                	lw	a2,48(a1)
    27e2:	c221                	beqz	a2,2822 <lfs_init+0x1a2>
    27e4:	0017d593          	srli	a1,a5,0x1
    27e8:	00b67d63          	bgeu	a2,a1,2802 <lfs_init+0x182>
    27ec:	0000c6b7          	lui	a3,0xc
    27f0:	662d                	lui	a2,0xb
    27f2:	6585                	lui	a1,0x1
    27f4:	e0068693          	addi	a3,a3,-512 # be00 <defaults.4608+0x7b4>
    27f8:	5d060613          	addi	a2,a2,1488 # b5d0 <__func__.4846>
    27fc:	0aa58593          	addi	a1,a1,170 # 10aa <USART_Init+0x1a>
    2800:	b555                	j	26a4 <lfs_init+0x24>
    2802:	55fd                	li	a1,-1
    2804:	00b60f63          	beq	a2,a1,2822 <lfs_init+0x1a2>
    2808:	00c7fd63          	bgeu	a5,a2,2822 <lfs_init+0x1a2>
    280c:	0000c6b7          	lui	a3,0xc
    2810:	662d                	lui	a2,0xb
    2812:	6585                	lui	a1,0x1
    2814:	e5468693          	addi	a3,a3,-428 # be54 <defaults.4608+0x808>
    2818:	5d060613          	addi	a2,a2,1488 # b5d0 <__func__.4846>
    281c:	0ac58593          	addi	a1,a1,172 # 10ac <USART_Init+0x1c>
    2820:	b551                	j	26a4 <lfs_init+0x24>
    2822:	44f0                	lw	a2,76(s1)
    2824:	ca39                	beqz	a2,287a <lfs_init+0x1fa>
    2826:	02d676b3          	remu	a3,a2,a3
    282a:	ce81                	beqz	a3,2842 <lfs_init+0x1c2>
    282c:	0000c6b7          	lui	a3,0xc
    2830:	662d                	lui	a2,0xb
    2832:	6585                	lui	a1,0x1
    2834:	eb468693          	addi	a3,a3,-332 # beb4 <defaults.4608+0x868>
    2838:	5d060613          	addi	a2,a2,1488 # b5d0 <__func__.4846>
    283c:	0b158593          	addi	a1,a1,177 # 10b1 <USART_Init+0x21>
    2840:	b595                	j	26a4 <lfs_init+0x24>
    2842:	02e67733          	remu	a4,a2,a4
    2846:	cf01                	beqz	a4,285e <lfs_init+0x1de>
    2848:	0000c6b7          	lui	a3,0xc
    284c:	662d                	lui	a2,0xb
    284e:	6585                	lui	a1,0x1
    2850:	f0468693          	addi	a3,a3,-252 # bf04 <defaults.4608+0x8b8>
    2854:	5d060613          	addi	a2,a2,1488 # b5d0 <__func__.4846>
    2858:	0b358593          	addi	a1,a1,179 # 10b3 <USART_Init+0x23>
    285c:	b5a1                	j	26a4 <lfs_init+0x24>
    285e:	02c7f7b3          	remu	a5,a5,a2
    2862:	cf81                	beqz	a5,287a <lfs_init+0x1fa>
    2864:	0000c6b7          	lui	a3,0xc
    2868:	662d                	lui	a2,0xb
    286a:	6585                	lui	a1,0x1
    286c:	f5468693          	addi	a3,a3,-172 # bf54 <defaults.4608+0x908>
    2870:	5d060613          	addi	a2,a2,1488 # b5d0 <__func__.4846>
    2874:	0b558593          	addi	a1,a1,181 # 10b5 <USART_Init+0x25>
    2878:	b535                	j	26a4 <lfs_init+0x24>
    287a:	58dc                	lw	a5,52(s1)
    287c:	cf85                	beqz	a5,28b4 <lfs_init+0x234>
    287e:	c45c                	sw	a5,12(s0)
    2880:	5c9c                	lw	a5,56(s1)
    2882:	c3b9                	beqz	a5,28c8 <lfs_init+0x248>
    2884:	cc5c                	sw	a5,28(s0)
    2886:	8526                	mv	a0,s1
    2888:	85a2                	mv	a1,s0
    288a:	dddff0ef          	jal	ra,2666 <lfs_cache_zero.isra.27>
    288e:	5428                	lw	a0,104(s0)
    2890:	01040593          	addi	a1,s0,16
    2894:	dd3ff0ef          	jal	ra,2666 <lfs_cache_zero.isra.27>
    2898:	5424                	lw	s1,104(s0)
    289a:	54c8                	lw	a0,44(s1)
    289c:	ed05                	bnez	a0,28d4 <lfs_init+0x254>
    289e:	0000c6b7          	lui	a3,0xc
    28a2:	662d                	lui	a2,0xb
    28a4:	6585                	lui	a1,0x1
    28a6:	fa468693          	addi	a3,a3,-92 # bfa4 <defaults.4608+0x958>
    28aa:	5d060613          	addi	a2,a2,1488 # b5d0 <__func__.4846>
    28ae:	0d358593          	addi	a1,a1,211 # 10d3 <USART_Init+0x43>
    28b2:	bbcd                	j	26a4 <lfs_init+0x24>
    28b4:	854a                	mv	a0,s2
    28b6:	52c060ef          	jal	ra,8de2 <malloc>
    28ba:	c448                	sw	a0,12(s0)
    28bc:	f171                	bnez	a0,2880 <lfs_init+0x200>
    28be:	8522                	mv	a0,s0
    28c0:	cc1ff0ef          	jal	ra,2580 <lfs_deinit>
    28c4:	5551                	li	a0,-12
    28c6:	aaa9                	j	2a20 <lfs_init+0x3a0>
    28c8:	854a                	mv	a0,s2
    28ca:	518060ef          	jal	ra,8de2 <malloc>
    28ce:	cc48                	sw	a0,28(s0)
    28d0:	f95d                	bnez	a0,2886 <lfs_init+0x206>
    28d2:	b7f5                	j	28be <lfs_init+0x23e>
    28d4:	5cdc                	lw	a5,60(s1)
    28d6:	c395                	beqz	a5,28fa <lfs_init+0x27a>
    28d8:	d07c                	sw	a5,100(s0)
    28da:	40bc                	lw	a5,64(s1)
    28dc:	0ff00713          	li	a4,255
    28e0:	02f77263          	bgeu	a4,a5,2904 <lfs_init+0x284>
    28e4:	0000c6b7          	lui	a3,0xc
    28e8:	662d                	lui	a2,0xb
    28ea:	6585                	lui	a1,0x1
    28ec:	fc468693          	addi	a3,a3,-60 # bfc4 <defaults.4608+0x978>
    28f0:	5d060613          	addi	a2,a2,1488 # b5d0 <__func__.4846>
    28f4:	0df58593          	addi	a1,a1,223 # 10df <USART_Init+0x4f>
    28f8:	b375                	j	26a4 <lfs_init+0x24>
    28fa:	4e8060ef          	jal	ra,8de2 <malloc>
    28fe:	d068                	sw	a0,100(s0)
    2900:	fd69                	bnez	a0,28da <lfs_init+0x25a>
    2902:	bf75                	j	28be <lfs_init+0x23e>
    2904:	c385                	beqz	a5,2924 <lfs_init+0x2a4>
    2906:	d83c                	sw	a5,112(s0)
    2908:	40fc                	lw	a5,68(s1)
    290a:	0007df63          	bgez	a5,2928 <lfs_init+0x2a8>
    290e:	0000c6b7          	lui	a3,0xc
    2912:	662d                	lui	a2,0xb
    2914:	6585                	lui	a1,0x1
    2916:	fe068693          	addi	a3,a3,-32 # bfe0 <defaults.4608+0x994>
    291a:	5d060613          	addi	a2,a2,1488 # b5d0 <__func__.4846>
    291e:	0e558593          	addi	a1,a1,229 # 10e5 <USART_Init+0x55>
    2922:	b349                	j	26a4 <lfs_init+0x24>
    2924:	d838                	sw	a4,112(s0)
    2926:	b7cd                	j	2908 <lfs_init+0x288>
    2928:	c395                	beqz	a5,294c <lfs_init+0x2cc>
    292a:	d87c                	sw	a5,116(s0)
    292c:	44bc                	lw	a5,72(s1)
    292e:	3fe00713          	li	a4,1022
    2932:	02f77263          	bgeu	a4,a5,2956 <lfs_init+0x2d6>
    2936:	0000c6b7          	lui	a3,0xc
    293a:	662d                	lui	a2,0xb
    293c:	6585                	lui	a1,0x1
    293e:	00468693          	addi	a3,a3,4 # c004 <defaults.4608+0x9b8>
    2942:	5d060613          	addi	a2,a2,1488 # b5d0 <__func__.4846>
    2946:	0eb58593          	addi	a1,a1,235 # 10eb <USART_Init+0x5b>
    294a:	bba9                	j	26a4 <lfs_init+0x24>
    294c:	800007b7          	lui	a5,0x80000
    2950:	fff7c793          	not	a5,a5
    2954:	bfd9                	j	292a <lfs_init+0x2aa>
    2956:	c38d                	beqz	a5,2978 <lfs_init+0x2f8>
    2958:	dc3c                	sw	a5,120(s0)
    295a:	44f4                	lw	a3,76(s1)
    295c:	4cd8                	lw	a4,28(s1)
    295e:	00d77f63          	bgeu	a4,a3,297c <lfs_init+0x2fc>
    2962:	0000c6b7          	lui	a3,0xc
    2966:	662d                	lui	a2,0xb
    2968:	6585                	lui	a1,0x1
    296a:	02068693          	addi	a3,a3,32 # c020 <defaults.4608+0x9d4>
    296e:	5d060613          	addi	a2,a2,1488 # b5d0 <__func__.4846>
    2972:	0f158593          	addi	a1,a1,241 # 10f1 <USART_Init+0x61>
    2976:	b33d                	j	26a4 <lfs_init+0x24>
    2978:	dc38                	sw	a4,120(s0)
    297a:	b7c5                	j	295a <lfs_init+0x2da>
    297c:	48bc                	lw	a5,80(s1)
    297e:	567d                	li	a2,-1
    2980:	06c78063          	beq	a5,a2,29e0 <lfs_init+0x360>
    2984:	5490                	lw	a2,40(s1)
    2986:	00f67d63          	bgeu	a2,a5,29a0 <lfs_init+0x320>
    298a:	0000c6b7          	lui	a3,0xc
    298e:	662d                	lui	a2,0xb
    2990:	6585                	lui	a1,0x1
    2992:	05068693          	addi	a3,a3,80 # c050 <defaults.4608+0xa04>
    2996:	5d060613          	addi	a2,a2,1488 # b5d0 <__func__.4846>
    299a:	0f458593          	addi	a1,a1,244 # 10f4 <USART_Init+0x64>
    299e:	b319                	j	26a4 <lfs_init+0x24>
    29a0:	5c30                	lw	a2,120(s0)
    29a2:	00f67d63          	bgeu	a2,a5,29bc <lfs_init+0x33c>
    29a6:	0000c6b7          	lui	a3,0xc
    29aa:	662d                	lui	a2,0xb
    29ac:	6585                	lui	a1,0x1
    29ae:	0a868693          	addi	a3,a3,168 # c0a8 <defaults.4608+0xa5c>
    29b2:	5d060613          	addi	a2,a2,1488 # b5d0 <__func__.4846>
    29b6:	0f658593          	addi	a1,a1,246 # 10f6 <USART_Init+0x66>
    29ba:	b1ed                	j	26a4 <lfs_init+0x24>
    29bc:	00375613          	srli	a2,a4,0x3
    29c0:	c299                	beqz	a3,29c6 <lfs_init+0x346>
    29c2:	0036d613          	srli	a2,a3,0x3
    29c6:	00f67d63          	bgeu	a2,a5,29e0 <lfs_init+0x360>
    29ca:	0000c6b7          	lui	a3,0xc
    29ce:	662d                	lui	a2,0xb
    29d0:	6585                	lui	a1,0x1
    29d2:	0f868693          	addi	a3,a3,248 # c0f8 <defaults.4608+0xaac>
    29d6:	5d060613          	addi	a2,a2,1488 # b5d0 <__func__.4846>
    29da:	0fa58593          	addi	a1,a1,250 # 10fa <USART_Init+0x6a>
    29de:	b1d9                	j	26a4 <lfs_init+0x24>
    29e0:	dc7c                	sw	a5,124(s0)
    29e2:	567d                	li	a2,-1
    29e4:	04c79063          	bne	a5,a2,2a24 <lfs_init+0x3a4>
    29e8:	06042e23          	sw	zero,124(s0)
    29ec:	57fd                	li	a5,-1
    29ee:	d01c                	sw	a5,32(s0)
    29f0:	d05c                	sw	a5,36(s0)
    29f2:	02042423          	sw	zero,40(s0)
    29f6:	02042623          	sw	zero,44(s0)
    29fa:	02042e23          	sw	zero,60(s0)
    29fe:	04042023          	sw	zero,64(s0)
    2a02:	04042223          	sw	zero,68(s0)
    2a06:	02042823          	sw	zero,48(s0)
    2a0a:	02042a23          	sw	zero,52(s0)
    2a0e:	02042c23          	sw	zero,56(s0)
    2a12:	04042423          	sw	zero,72(s0)
    2a16:	04042623          	sw	zero,76(s0)
    2a1a:	04042823          	sw	zero,80(s0)
    2a1e:	4501                	li	a0,0
    2a20:	837fd06f          	j	256 <__riscv_restore_0>
    2a24:	f7e1                	bnez	a5,29ec <lfs_init+0x36c>
    2a26:	549c                	lw	a5,40(s1)
    2a28:	5c30                	lw	a2,120(s0)
    2a2a:	830d                	srli	a4,a4,0x3
    2a2c:	c299                	beqz	a3,2a32 <lfs_init+0x3b2>
    2a2e:	0036d713          	srli	a4,a3,0x3
    2a32:	00f67363          	bgeu	a2,a5,2a38 <lfs_init+0x3b8>
    2a36:	87b2                	mv	a5,a2
    2a38:	00f77363          	bgeu	a4,a5,2a3e <lfs_init+0x3be>
    2a3c:	87ba                	mv	a5,a4
    2a3e:	dc7c                	sw	a5,124(s0)
    2a40:	b775                	j	29ec <lfs_init+0x36c>

00002a42 <lfs_ctz_index.isra.29>:
    2a42:	fd6fd2ef          	jal	t0,218 <__riscv_save_4>
    2a46:	01c52903          	lw	s2,28(a0)
    2a4a:	4184                	lw	s1,0(a1)
    2a4c:	4501                	li	a0,0
    2a4e:	1961                	addi	s2,s2,-8
    2a50:	0324eb63          	bltu	s1,s2,2a86 <lfs_ctz_index.isra.29+0x44>
    2a54:	0324d533          	divu	a0,s1,s2
    2a58:	89ae                	mv	s3,a1
    2a5a:	157d                	addi	a0,a0,-1
    2a5c:	1c9030ef          	jal	ra,6424 <__popcountsi2>
    2a60:	00250413          	addi	s0,a0,2
    2a64:	040a                	slli	s0,s0,0x2
    2a66:	40848433          	sub	s0,s1,s0
    2a6a:	03245433          	divu	s0,s0,s2
    2a6e:	02890933          	mul	s2,s2,s0
    2a72:	8522                	mv	a0,s0
    2a74:	1b1030ef          	jal	ra,6424 <__popcountsi2>
    2a78:	050a                	slli	a0,a0,0x2
    2a7a:	8c89                	sub	s1,s1,a0
    2a7c:	8522                	mv	a0,s0
    2a7e:	412484b3          	sub	s1,s1,s2
    2a82:	0099a023          	sw	s1,0(s3)
    2a86:	fc6fd06f          	j	24c <__riscv_restore_4>

00002a8a <lfs_ctz_traverse.part.30>:
    2a8a:	f80fd2ef          	jal	t0,20a <__riscv_save_10>
    2a8e:	89aa                	mv	s3,a0
    2a90:	5528                	lw	a0,104(a0)
    2a92:	1141                	addi	sp,sp,-16
    2a94:	177d                	addi	a4,a4,-1
    2a96:	8b2e                	mv	s6,a1
    2a98:	004c                	addi	a1,sp,4
    2a9a:	8bb2                	mv	s7,a2
    2a9c:	8cb6                	mv	s9,a3
    2a9e:	8a3e                	mv	s4,a5
    2aa0:	8ac2                	mv	s5,a6
    2aa2:	c23a                	sw	a4,4(sp)
    2aa4:	f9fff0ef          	jal	ra,2a42 <lfs_ctz_index.isra.29>
    2aa8:	84aa                	mv	s1,a0
    2aaa:	4c09                	li	s8,2
    2aac:	85e6                	mv	a1,s9
    2aae:	8556                	mv	a0,s5
    2ab0:	9a02                	jalr	s4
    2ab2:	e529                	bnez	a0,2afc <lfs_ctz_traverse.part.30+0x72>
    2ab4:	c4a1                	beqz	s1,2afc <lfs_ctz_traverse.part.30+0x72>
    2ab6:	0014f913          	andi	s2,s1,1
    2aba:	412c0433          	sub	s0,s8,s2
    2abe:	00241893          	slli	a7,s0,0x2
    2ac2:	00810813          	addi	a6,sp,8
    2ac6:	4781                	li	a5,0
    2ac8:	8766                	mv	a4,s9
    2aca:	86c6                	mv	a3,a7
    2acc:	865e                	mv	a2,s7
    2ace:	85da                	mv	a1,s6
    2ad0:	854e                	mv	a0,s3
    2ad2:	f0eff0ef          	jal	ra,21e0 <lfs_bd_read>
    2ad6:	e11d                	bnez	a0,2afc <lfs_ctz_traverse.part.30+0x72>
    2ad8:	147d                	addi	s0,s0,-1
    2ada:	00854a63          	blt	a0,s0,2aee <lfs_ctz_traverse.part.30+0x64>
    2ade:	040a                	slli	s0,s0,0x2
    2ae0:	081c                	addi	a5,sp,16
    2ae2:	943e                	add	s0,s0,a5
    2ae4:	1979                	addi	s2,s2,-2
    2ae6:	ff842c83          	lw	s9,-8(s0)
    2aea:	94ca                	add	s1,s1,s2
    2aec:	b7c1                	j	2aac <lfs_ctz_traverse.part.30+0x22>
    2aee:	45a2                	lw	a1,8(sp)
    2af0:	8556                	mv	a0,s5
    2af2:	9a02                	jalr	s4
    2af4:	87aa                	mv	a5,a0
    2af6:	4505                	li	a0,1
    2af8:	d3ed                	beqz	a5,2ada <lfs_ctz_traverse.part.30+0x50>
    2afa:	853e                	mv	a0,a5
    2afc:	0141                	addi	sp,sp,16
    2afe:	f44fd06f          	j	242 <__riscv_restore_10>

00002b02 <lfs_ctz_find.constprop.41>:
    2b02:	f08fd2ef          	jal	t0,20a <__riscv_save_10>
    2b06:	1101                	addi	sp,sp,-32
    2b08:	c632                	sw	a2,12(sp)
    2b0a:	c43a                	sw	a4,8(sp)
    2b0c:	ea89                	bnez	a3,2b1e <lfs_ctz_find.constprop.41+0x1c>
    2b0e:	577d                	li	a4,-1
    2b10:	c398                	sw	a4,0(a5)
    2b12:	00082023          	sw	zero,0(a6)
    2b16:	4501                	li	a0,0
    2b18:	6105                	addi	sp,sp,32
    2b1a:	f28fd06f          	j	242 <__riscv_restore_10>
    2b1e:	892a                	mv	s2,a0
    2b20:	5528                	lw	a0,104(a0)
    2b22:	16fd                	addi	a3,a3,-1
    2b24:	8aae                	mv	s5,a1
    2b26:	086c                	addi	a1,sp,28
    2b28:	89c2                	mv	s3,a6
    2b2a:	8a3e                	mv	s4,a5
    2b2c:	ce36                	sw	a3,28(sp)
    2b2e:	f15ff0ef          	jal	ra,2a42 <lfs_ctz_index.isra.29>
    2b32:	84aa                	mv	s1,a0
    2b34:	06892503          	lw	a0,104(s2)
    2b38:	002c                	addi	a1,sp,8
    2b3a:	02000b93          	li	s7,32
    2b3e:	f05ff0ef          	jal	ra,2a42 <lfs_ctz_index.isra.29>
    2b42:	8b2a                	mv	s6,a0
    2b44:	4c05                	li	s8,1
    2b46:	4732                	lw	a4,12(sp)
    2b48:	009b6863          	bltu	s6,s1,2b58 <lfs_ctz_find.constprop.41+0x56>
    2b4c:	47a2                	lw	a5,8(sp)
    2b4e:	00ea2023          	sw	a4,0(s4)
    2b52:	00f9a023          	sw	a5,0(s3)
    2b56:	b7c1                	j	2b16 <lfs_ctz_find.constprop.41+0x14>
    2b58:	41648533          	sub	a0,s1,s6
    2b5c:	c23a                	sw	a4,4(sp)
    2b5e:	7ee030ef          	jal	ra,634c <__clzsi2>
    2b62:	842a                	mv	s0,a0
    2b64:	408b8433          	sub	s0,s7,s0
    2b68:	8526                	mv	a0,s1
    2b6a:	051030ef          	jal	ra,63ba <__ctzsi2>
    2b6e:	147d                	addi	s0,s0,-1
    2b70:	4712                	lw	a4,4(sp)
    2b72:	00857363          	bgeu	a0,s0,2b78 <lfs_ctz_find.constprop.41+0x76>
    2b76:	842a                	mv	s0,a0
    2b78:	4891                	li	a7,4
    2b7a:	00c10813          	addi	a6,sp,12
    2b7e:	00241793          	slli	a5,s0,0x2
    2b82:	4691                	li	a3,4
    2b84:	8656                	mv	a2,s5
    2b86:	4581                	li	a1,0
    2b88:	854a                	mv	a0,s2
    2b8a:	e56ff0ef          	jal	ra,21e0 <lfs_bd_read>
    2b8e:	f549                	bnez	a0,2b18 <lfs_ctz_find.constprop.41+0x16>
    2b90:	008c1433          	sll	s0,s8,s0
    2b94:	8c81                	sub	s1,s1,s0
    2b96:	bf45                	j	2b46 <lfs_ctz_find.constprop.41+0x44>

00002b98 <lfs_dir_getread.part.31.constprop.43>:
    2b98:	e72fd2ef          	jal	t0,20a <__riscv_save_10>
    2b9c:	fff80937          	lui	s2,0xfff80
    2ba0:	89aa                	mv	s3,a0
    2ba2:	8aae                	mv	s5,a1
    2ba4:	8c32                	mv	s8,a2
    2ba6:	8b3a                	mv	s6,a4
    2ba8:	84be                	mv	s1,a5
    2baa:	8d42                	mv	s10,a6
    2bac:	8cc6                	mv	s9,a7
    2bae:	5a79                	li	s4,-2
    2bb0:	fff68b93          	addi	s7,a3,-1
    2bb4:	c0090913          	addi	s2,s2,-1024 # fff7fc00 <_eusrstack+0xdff77c00>
    2bb8:	000c9463          	bnez	s9,2bc0 <lfs_dir_getread.part.31.constprop.43+0x28>
    2bbc:	4501                	li	a0,0
    2bbe:	a049                	j	2c40 <lfs_dir_getread.part.31.constprop.43+0xa8>
    2bc0:	000c2703          	lw	a4,0(s8)
    2bc4:	00cc2783          	lw	a5,12(s8)
    2bc8:	03471c63          	bne	a4,s4,2c00 <lfs_dir_getread.part.31.constprop.43+0x68>
    2bcc:	004c2703          	lw	a4,4(s8)
    2bd0:	008c2403          	lw	s0,8(s8)
    2bd4:	943a                	add	s0,s0,a4
    2bd6:	0284f563          	bgeu	s1,s0,2c00 <lfs_dir_getread.part.31.constprop.43+0x68>
    2bda:	02e4e363          	bltu	s1,a4,2c00 <lfs_dir_getread.part.31.constprop.43+0x68>
    2bde:	8c05                	sub	s0,s0,s1
    2be0:	008cf363          	bgeu	s9,s0,2be6 <lfs_dir_getread.part.31.constprop.43+0x4e>
    2be4:	8466                	mv	s0,s9
    2be6:	40e48733          	sub	a4,s1,a4
    2bea:	856a                	mv	a0,s10
    2bec:	8622                	mv	a2,s0
    2bee:	00e785b3          	add	a1,a5,a4
    2bf2:	228060ef          	jal	ra,8e1a <memcpy>
    2bf6:	9d22                	add	s10,s10,s0
    2bf8:	94a2                	add	s1,s1,s0
    2bfa:	408c8cb3          	sub	s9,s9,s0
    2bfe:	bf6d                	j	2bb8 <lfs_dir_getread.part.31.constprop.43+0x20>
    2c00:	0689a603          	lw	a2,104(s3)
    2c04:	014c2023          	sw	s4,0(s8)
    2c08:	4a54                	lw	a3,20(a2)
    2c0a:	5610                	lw	a2,40(a2)
    2c0c:	00db8833          	add	a6,s7,a3
    2c10:	02d4f733          	remu	a4,s1,a3
    2c14:	9826                	add	a6,a6,s1
    2c16:	02d876b3          	remu	a3,a6,a3
    2c1a:	40e48733          	sub	a4,s1,a4
    2c1e:	00ec2223          	sw	a4,4(s8)
    2c22:	40d80833          	sub	a6,a6,a3
    2c26:	01067363          	bgeu	a2,a6,2c2c <lfs_dir_getread.part.31.constprop.43+0x94>
    2c2a:	8832                	mv	a6,a2
    2c2c:	010c2423          	sw	a6,8(s8)
    2c30:	86da                	mv	a3,s6
    2c32:	864a                	mv	a2,s2
    2c34:	85d6                	mv	a1,s5
    2c36:	854e                	mv	a0,s3
    2c38:	f46ff0ef          	jal	ra,237e <lfs_dir_getslice>
    2c3c:	f6055ee3          	bgez	a0,2bb8 <lfs_dir_getread.part.31.constprop.43+0x20>
    2c40:	e02fd06f          	j	242 <__riscv_restore_10>

00002c44 <lfs_dir_traverse.constprop.45>:
    2c44:	dbefd2ef          	jal	t0,202 <__riscv_save_12>
    2c48:	8b3e                	mv	s6,a5
    2c4a:	000027b7          	lui	a5,0x2
    2c4e:	7171                	addi	sp,sp,-176
    2c50:	13678793          	addi	a5,a5,310 # 2136 <lfs_dir_traverse_filter>
    2c54:	c63e                	sw	a5,12(sp)
    2c56:	0f015c83          	lhu	s9,240(sp)
    2c5a:	601007b7          	lui	a5,0x60100
    2c5e:	0f411483          	lh	s1,244(sp)
    2c62:	5c7e                	lw	s8,252(sp)
    2c64:	c0078793          	addi	a5,a5,-1024 # 600ffc00 <_eusrstack+0x400f7c00>
    2c68:	c42a                	sw	a0,8(sp)
    2c6a:	8bae                	mv	s7,a1
    2c6c:	8436                	mv	s0,a3
    2c6e:	8a3a                	mv	s4,a4
    2c70:	89c2                	mv	s3,a6
    2c72:	8946                	mv	s2,a7
    2c74:	d802                	sw	zero,48(sp)
    2c76:	da02                	sw	zero,52(sp)
    2c78:	4a81                	li	s5,0
    2c7a:	4d01                	li	s10,0
    2c7c:	c83e                	sw	a5,16(sp)
    2c7e:	8522                	mv	a0,s0
    2c80:	ca32                	sw	a2,20(sp)
    2c82:	c12ff0ef          	jal	ra,2094 <lfs_tag_dsize>
    2c86:	4652                	lw	a2,20(sp)
    2c88:	00cba783          	lw	a5,12(s7)
    2c8c:	00c50db3          	add	s11,a0,a2
    2c90:	08fdf063          	bgeu	s11,a5,2d10 <lfs_dir_traverse.constprop.45+0xcc>
    2c94:	4622                	lw	a2,8(sp)
    2c96:	000ba703          	lw	a4,0(s7)
    2c9a:	4891                	li	a7,4
    2c9c:	02c10813          	addi	a6,sp,44
    2ca0:	87ee                	mv	a5,s11
    2ca2:	4691                	li	a3,4
    2ca4:	4581                	li	a1,0
    2ca6:	8532                	mv	a0,a2
    2ca8:	d38ff0ef          	jal	ra,21e0 <lfs_bd_read>
    2cac:	24051e63          	bnez	a0,2f08 <lfs_dir_traverse.constprop.45+0x2c4>
    2cb0:	5532                	lw	a0,44(sp)
    2cb2:	7b4030ef          	jal	ra,6466 <__bswapsi2>
    2cb6:	800007b7          	lui	a5,0x80000
    2cba:	8c29                	xor	s0,s0,a0
    2cbc:	8c5d                	or	s0,s0,a5
    2cbe:	000ba783          	lw	a5,0(s7)
    2cc2:	d622                	sw	s0,44(sp)
    2cc4:	1814                	addi	a3,sp,48
    2cc6:	d83e                	sw	a5,48(sp)
    2cc8:	004d8793          	addi	a5,s11,4 # 40100004 <_eusrstack+0x200f8004>
    2ccc:	da3e                	sw	a5,52(sp)
    2cce:	5632                	lw	a2,44(sp)
    2cd0:	7ff00737          	lui	a4,0x7ff00
    2cd4:	01a647b3          	xor	a5,a2,s10
    2cd8:	0137f7b3          	and	a5,a5,s3
    2cdc:	8ff9                	and	a5,a5,a4
    2cde:	ebcd                	bnez	a5,2d90 <lfs_dir_traverse.constprop.45+0x14c>
    2ce0:	00a9d793          	srli	a5,s3,0xa
    2ce4:	3ff7f793          	andi	a5,a5,1023
    2ce8:	16078163          	beqz	a5,2e4a <lfs_dir_traverse.constprop.45+0x206>
    2cec:	4789                	li	a5,2
    2cee:	0357fc63          	bgeu	a5,s5,2d26 <lfs_dir_traverse.constprop.45+0xe2>
    2cf2:	0000c6b7          	lui	a3,0xc
    2cf6:	662d                	lui	a2,0xb
    2cf8:	0000b537          	lui	a0,0xb
    2cfc:	97868693          	addi	a3,a3,-1672 # b978 <defaults.4608+0x32c>
    2d00:	54460613          	addi	a2,a2,1348 # b544 <__func__.4107>
    2d04:	3c200593          	li	a1,962
    2d08:	73450513          	addi	a0,a0,1844 # b734 <defaults.4608+0xe8>
    2d0c:	06e060ef          	jal	ra,8d7a <__assert_func>
    2d10:	1f605a63          	blez	s6,2f04 <lfs_dir_traverse.constprop.45+0x2c0>
    2d14:	000a2783          	lw	a5,0(s4)
    2d18:	004a2683          	lw	a3,4(s4)
    2d1c:	1b7d                	addi	s6,s6,-1
    2d1e:	d63e                	sw	a5,44(sp)
    2d20:	0a21                	addi	s4,s4,8
    2d22:	8db2                	mv	s11,a2
    2d24:	b76d                	j	2cce <lfs_dir_traverse.constprop.45+0x8a>
    2d26:	03c00793          	li	a5,60
    2d2a:	02fa8733          	mul	a4,s5,a5
    2d2e:	191c                	addi	a5,sp,176
    2d30:	55ee                	lw	a1,248(sp)
    2d32:	0a85                	addi	s5,s5,1
    2d34:	97ba                	add	a5,a5,a4
    2d36:	fad7ac23          	sw	a3,-72(a5) # 7fffffb8 <_eusrstack+0x5fff7fb8>
    2d3a:	56c2                	lw	a3,48(sp)
    2d3c:	f937ae23          	sw	s3,-100(a5)
    2d40:	fba7a023          	sw	s10,-96(a5)
    2d44:	fad7ae23          	sw	a3,-68(a5)
    2d48:	56d2                	lw	a3,52(sp)
    2d4a:	fb279223          	sh	s2,-92(a5)
    2d4e:	fb979323          	sh	s9,-90(a5)
    2d52:	fa979423          	sh	s1,-88(a5)
    2d56:	fb87a823          	sw	s8,-80(a5)
    2d5a:	f977a423          	sw	s7,-120(a5)
    2d5e:	f9b7a623          	sw	s11,-116(a5)
    2d62:	f887a823          	sw	s0,-112(a5)
    2d66:	f947aa23          	sw	s4,-108(a5)
    2d6a:	f967ac23          	sw	s6,-104(a5)
    2d6e:	fab7a623          	sw	a1,-84(a5)
    2d72:	fac7aa23          	sw	a2,-76(a5)
    2d76:	fcd7a023          	sw	a3,-64(a5)
    2d7a:	02c70c13          	addi	s8,a4,44 # 7ff0002c <_eusrstack+0x5fef802c>
    2d7e:	183c                	addi	a5,sp,56
    2d80:	9c3e                	add	s8,s8,a5
    2d82:	47b2                	lw	a5,12(sp)
    2d84:	4d01                	li	s10,0
    2d86:	4981                	li	s3,0
    2d88:	ddbe                	sw	a5,248(sp)
    2d8a:	4481                	li	s1,0
    2d8c:	4c81                	li	s9,0
    2d8e:	4901                	li	s2,0
    2d90:	866e                	mv	a2,s11
    2d92:	b5f5                	j	2c7e <lfs_dir_traverse.constprop.45+0x3a>
    2d94:	10200613          	li	a2,258
    2d98:	04c79263          	bne	a5,a2,2ddc <lfs_dir_traverse.constprop.45+0x198>
    2d9c:	4701                	li	a4,0
    2d9e:	57b2                	lw	a5,44(sp)
    2da0:	3ff7f613          	andi	a2,a5,1023
    2da4:	fec776e3          	bgeu	a4,a2,2d90 <lfs_dir_traverse.constprop.45+0x14c>
    2da8:	83a9                	srli	a5,a5,0xa
    2daa:	468c                	lw	a1,8(a3)
    2dac:	3ff7f793          	andi	a5,a5,1023
    2db0:	97a6                	add	a5,a5,s1
    2db2:	07aa                	slli	a5,a5,0xa
    2db4:	8fcd                	or	a5,a5,a1
    2db6:	228c                	lbu	a1,0(a3)
    2db8:	42d0                	lw	a2,4(a3)
    2dba:	8562                	mv	a0,s8
    2dbc:	30058593          	addi	a1,a1,768
    2dc0:	05d2                	slli	a1,a1,0x14
    2dc2:	8ddd                	or	a1,a1,a5
    2dc4:	57ee                	lw	a5,248(sp)
    2dc6:	cc3a                	sw	a4,24(sp)
    2dc8:	ca36                	sw	a3,20(sp)
    2dca:	9782                	jalr	a5
    2dcc:	12054e63          	bltz	a0,2f08 <lfs_dir_traverse.constprop.45+0x2c4>
    2dd0:	46d2                	lw	a3,20(sp)
    2dd2:	06b1                	addi	a3,a3,12
    2dd4:	fd55                	bnez	a0,2d90 <lfs_dir_traverse.constprop.45+0x14c>
    2dd6:	4762                	lw	a4,24(sp)
    2dd8:	0705                	addi	a4,a4,1
    2dda:	b7d1                	j	2d9e <lfs_dir_traverse.constprop.45+0x15a>
    2ddc:	57ee                	lw	a5,248(sp)
    2dde:	00a49593          	slli	a1,s1,0xa
    2de2:	8636                	mv	a2,a3
    2de4:	95ba                	add	a1,a1,a4
    2de6:	8562                	mv	a0,s8
    2de8:	9782                	jalr	a5
    2dea:	10054f63          	bltz	a0,2f08 <lfs_dir_traverse.constprop.45+0x2c4>
    2dee:	d14d                	beqz	a0,2d90 <lfs_dir_traverse.constprop.45+0x14c>
    2df0:	100a8c63          	beqz	s5,2f08 <lfs_dir_traverse.constprop.45+0x2c4>
    2df4:	1afd                	addi	s5,s5,-1
    2df6:	03c00793          	li	a5,60
    2dfa:	02fa87b3          	mul	a5,s5,a5
    2dfe:	1918                	addi	a4,sp,176
    2e00:	97ba                	add	a5,a5,a4
    2e02:	fac7a703          	lw	a4,-84(a5)
    2e06:	f887ab83          	lw	s7,-120(a5)
    2e0a:	f8c7ad83          	lw	s11,-116(a5)
    2e0e:	ddba                	sw	a4,248(sp)
    2e10:	fb47a703          	lw	a4,-76(a5)
    2e14:	f907a403          	lw	s0,-112(a5)
    2e18:	f947aa03          	lw	s4,-108(a5)
    2e1c:	f987ab03          	lw	s6,-104(a5)
    2e20:	f9c7a983          	lw	s3,-100(a5)
    2e24:	fa07ad03          	lw	s10,-96(a5)
    2e28:	fa47d903          	lhu	s2,-92(a5)
    2e2c:	fa67dc83          	lhu	s9,-90(a5)
    2e30:	fa879483          	lh	s1,-88(a5)
    2e34:	fb07ac03          	lw	s8,-80(a5)
    2e38:	d63a                	sw	a4,44(sp)
    2e3a:	fb87a683          	lw	a3,-72(a5)
    2e3e:	fbc7a703          	lw	a4,-68(a5)
    2e42:	fc07a783          	lw	a5,-64(a5)
    2e46:	d83a                	sw	a4,48(sp)
    2e48:	da3e                	sw	a5,52(sp)
    2e4a:	00a9d793          	srli	a5,s3,0xa
    2e4e:	3ff7f793          	andi	a5,a5,1023
    2e52:	5732                	lw	a4,44(sp)
    2e54:	cb89                	beqz	a5,2e66 <lfs_dir_traverse.constprop.45+0x222>
    2e56:	00a75793          	srli	a5,a4,0xa
    2e5a:	3ff7f793          	andi	a5,a5,1023
    2e5e:	f327e9e3          	bltu	a5,s2,2d90 <lfs_dir_traverse.constprop.45+0x14c>
    2e62:	f397f7e3          	bgeu	a5,s9,2d90 <lfs_dir_traverse.constprop.45+0x14c>
    2e66:	01475793          	srli	a5,a4,0x14
    2e6a:	7ff7f793          	andi	a5,a5,2047
    2e6e:	d38d                	beqz	a5,2d90 <lfs_dir_traverse.constprop.45+0x14c>
    2e70:	10100613          	li	a2,257
    2e74:	f2c790e3          	bne	a5,a2,2d94 <lfs_dir_traverse.constprop.45+0x150>
    2e78:	ce3a                	sw	a4,28(sp)
    2e7a:	57ee                	lw	a5,248(sp)
    2e7c:	4732                	lw	a4,12(sp)
    2e7e:	cc36                	sw	a3,24(sp)
    2e80:	f0e788e3          	beq	a5,a4,2d90 <lfs_dir_traverse.constprop.45+0x14c>
    2e84:	03c00793          	li	a5,60
    2e88:	02fa87b3          	mul	a5,s5,a5
    2e8c:	1918                	addi	a4,sp,176
    2e8e:	03c00613          	li	a2,60
    2e92:	4581                	li	a1,0
    2e94:	0a85                	addi	s5,s5,1
    2e96:	97ba                	add	a5,a5,a4
    2e98:	f8878513          	addi	a0,a5,-120
    2e9c:	ca3e                	sw	a5,20(sp)
    2e9e:	bc4fd0ef          	jal	ra,262 <memset>
    2ea2:	47d2                	lw	a5,20(sp)
    2ea4:	576e                	lw	a4,248(sp)
    2ea6:	46e2                	lw	a3,24(sp)
    2ea8:	fb279223          	sh	s2,-92(a5)
    2eac:	fae7a623          	sw	a4,-84(a5)
    2eb0:	4772                	lw	a4,28(sp)
    2eb2:	fa979423          	sh	s1,-88(a5)
    2eb6:	f977a423          	sw	s7,-120(a5)
    2eba:	3ff77913          	andi	s2,a4,1023
    2ebe:	8329                	srli	a4,a4,0xa
    2ec0:	3ff77713          	andi	a4,a4,1023
    2ec4:	41270733          	sub	a4,a4,s2
    2ec8:	94ba                	add	s1,s1,a4
    2eca:	04c2                	slli	s1,s1,0x10
    2ecc:	f9b7a623          	sw	s11,-116(a5)
    2ed0:	f887a823          	sw	s0,-112(a5)
    2ed4:	f947aa23          	sw	s4,-108(a5)
    2ed8:	f967ac23          	sw	s6,-104(a5)
    2edc:	f937ae23          	sw	s3,-100(a5)
    2ee0:	fba7a023          	sw	s10,-96(a5)
    2ee4:	fb979323          	sh	s9,-90(a5)
    2ee8:	fb87a823          	sw	s8,-80(a5)
    2eec:	00190c93          	addi	s9,s2,1
    2ef0:	84c1                	srai	s1,s1,0x10
    2ef2:	8bb6                	mv	s7,a3
    2ef4:	20000d37          	lui	s10,0x20000
    2ef8:	49c2                	lw	s3,16(sp)
    2efa:	4b01                	li	s6,0
    2efc:	4a01                	li	s4,0
    2efe:	547d                	li	s0,-1
    2f00:	4d81                	li	s11,0
    2f02:	b579                	j	2d90 <lfs_dir_traverse.constprop.45+0x14c>
    2f04:	4501                	li	a0,0
    2f06:	b5ed                	j	2df0 <lfs_dir_traverse.constprop.45+0x1ac>
    2f08:	614d                	addi	sp,sp,176
    2f0a:	b34fd06f          	j	23e <__riscv_restore_12>

00002f0e <lfs_bd_cmp.constprop.47>:
    2f0e:	afcfd2ef          	jal	t0,20a <__riscv_save_10>
    2f12:	1141                	addi	sp,sp,-16
    2f14:	89aa                	mv	s3,a0
    2f16:	8a2e                	mv	s4,a1
    2f18:	8ab2                	mv	s5,a2
    2f1a:	8b36                	mv	s6,a3
    2f1c:	8bba                	mv	s7,a4
    2f1e:	8c3e                	mv	s8,a5
    2f20:	8942                	mv	s2,a6
    2f22:	4401                	li	s0,0
    2f24:	4ca1                	li	s9,8
    2f26:	01246463          	bltu	s0,s2,2f2e <lfs_bd_cmp.constprop.47+0x20>
    2f2a:	4501                	li	a0,0
    2f2c:	a081                	j	2f6c <lfs_bd_cmp.constprop.47+0x5e>
    2f2e:	408904b3          	sub	s1,s2,s0
    2f32:	009cf363          	bgeu	s9,s1,2f38 <lfs_bd_cmp.constprop.47+0x2a>
    2f36:	44a1                	li	s1,8
    2f38:	88a6                	mv	a7,s1
    2f3a:	00810813          	addi	a6,sp,8
    2f3e:	017407b3          	add	a5,s0,s7
    2f42:	875a                	mv	a4,s6
    2f44:	408a86b3          	sub	a3,s5,s0
    2f48:	8652                	mv	a2,s4
    2f4a:	4581                	li	a1,0
    2f4c:	854e                	mv	a0,s3
    2f4e:	a92ff0ef          	jal	ra,21e0 <lfs_bd_read>
    2f52:	ed09                	bnez	a0,2f6c <lfs_bd_cmp.constprop.47+0x5e>
    2f54:	8626                	mv	a2,s1
    2f56:	008c05b3          	add	a1,s8,s0
    2f5a:	0028                	addi	a0,sp,8
    2f5c:	69b050ef          	jal	ra,8df6 <memcmp>
    2f60:	87aa                	mv	a5,a0
    2f62:	c901                	beqz	a0,2f72 <lfs_bd_cmp.constprop.47+0x64>
    2f64:	4505                	li	a0,1
    2f66:	0007c363          	bltz	a5,2f6c <lfs_bd_cmp.constprop.47+0x5e>
    2f6a:	4509                	li	a0,2
    2f6c:	0141                	addi	sp,sp,16
    2f6e:	ad4fd06f          	j	242 <__riscv_restore_10>
    2f72:	9426                	add	s0,s0,s1
    2f74:	bf4d                	j	2f26 <lfs_bd_cmp.constprop.47+0x18>

00002f76 <lfs_dir_find_match>:
    2f76:	abcfd2ef          	jal	t0,232 <__riscv_save_0>
    2f7a:	84aa                	mv	s1,a0
    2f7c:	0084a803          	lw	a6,8(s1)
    2f80:	3ff5f413          	andi	s0,a1,1023
    2f84:	4108                	lw	a0,0(a0)
    2f86:	01047363          	bgeu	s0,a6,2f8c <lfs_dir_find_match+0x16>
    2f8a:	8822                	mv	a6,s0
    2f8c:	4258                	lw	a4,4(a2)
    2f8e:	4214                	lw	a3,0(a2)
    2f90:	40dc                	lw	a5,4(s1)
    2f92:	8642                	mv	a2,a6
    2f94:	85aa                	mv	a1,a0
    2f96:	f79ff0ef          	jal	ra,2f0e <lfs_bd_cmp.constprop.47>
    2f9a:	e901                	bnez	a0,2faa <lfs_dir_find_match+0x34>
    2f9c:	449c                	lw	a5,8(s1)
    2f9e:	00878663          	beq	a5,s0,2faa <lfs_dir_find_match+0x34>
    2fa2:	4505                	li	a0,1
    2fa4:	0087e363          	bltu	a5,s0,2faa <lfs_dir_find_match+0x34>
    2fa8:	4509                	li	a0,2
    2faa:	aacfd06f          	j	256 <__riscv_restore_0>

00002fae <lfs_bd_flush>:
    2fae:	a6afd2ef          	jal	t0,218 <__riscv_save_4>
    2fb2:	842e                	mv	s0,a1
    2fb4:	418c                	lw	a1,0(a1)
    2fb6:	4785                	li	a5,1
    2fb8:	1141                	addi	sp,sp,-16
    2fba:	00258713          	addi	a4,a1,2
    2fbe:	0ae7f263          	bgeu	a5,a4,3062 <lfs_bd_flush+0xb4>
    2fc2:	557c                	lw	a5,108(a0)
    2fc4:	8a36                	mv	s4,a3
    2fc6:	89b2                	mv	s3,a2
    2fc8:	892a                	mv	s2,a0
    2fca:	02f5e163          	bltu	a1,a5,2fec <lfs_bd_flush+0x3e>
    2fce:	0000b6b7          	lui	a3,0xb
    2fd2:	662d                	lui	a2,0xb
    2fd4:	68468693          	addi	a3,a3,1668 # b684 <defaults.4608+0x38>
    2fd8:	4f860613          	addi	a2,a2,1272 # b4f8 <__func__.3713>
    2fdc:	0b400593          	li	a1,180
    2fe0:	0000b537          	lui	a0,0xb
    2fe4:	73450513          	addi	a0,a0,1844 # b734 <defaults.4608+0xe8>
    2fe8:	593050ef          	jal	ra,8d7a <__assert_func>
    2fec:	5528                	lw	a0,104(a0)
    2fee:	00842803          	lw	a6,8(s0)
    2ff2:	4454                	lw	a3,12(s0)
    2ff4:	4d1c                	lw	a5,24(a0)
    2ff6:	4050                	lw	a2,4(s0)
    2ff8:	983e                	add	a6,a6,a5
    2ffa:	187d                	addi	a6,a6,-1
    2ffc:	02f877b3          	remu	a5,a6,a5
    3000:	40f80833          	sub	a6,a6,a5
    3004:	451c                	lw	a5,8(a0)
    3006:	8742                	mv	a4,a6
    3008:	c642                	sw	a6,12(sp)
    300a:	9782                	jalr	a5
    300c:	84aa                	mv	s1,a0
    300e:	4832                	lw	a6,12(sp)
    3010:	00a05c63          	blez	a0,3028 <lfs_bd_flush+0x7a>
    3014:	0000b6b7          	lui	a3,0xb
    3018:	662d                	lui	a2,0xb
    301a:	72868693          	addi	a3,a3,1832 # b728 <defaults.4608+0xdc>
    301e:	4f860613          	addi	a2,a2,1272 # b4f8 <__func__.3713>
    3022:	0b800593          	li	a1,184
    3026:	bf6d                	j	2fe0 <lfs_bd_flush+0x32>
    3028:	e901                	bnez	a0,3038 <lfs_bd_flush+0x8a>
    302a:	000a1b63          	bnez	s4,3040 <lfs_bd_flush+0x92>
    302e:	06892503          	lw	a0,104(s2)
    3032:	85a2                	mv	a1,s0
    3034:	e32ff0ef          	jal	ra,2666 <lfs_cache_zero.isra.27>
    3038:	8526                	mv	a0,s1
    303a:	0141                	addi	sp,sp,16
    303c:	a10fd06f          	j	24c <__riscv_restore_4>
    3040:	57fd                	li	a5,-1
    3042:	00f9a023          	sw	a5,0(s3)
    3046:	4058                	lw	a4,4(s0)
    3048:	445c                	lw	a5,12(s0)
    304a:	4014                	lw	a3,0(s0)
    304c:	8642                	mv	a2,a6
    304e:	85ce                	mv	a1,s3
    3050:	854a                	mv	a0,s2
    3052:	ebdff0ef          	jal	ra,2f0e <lfs_bd_cmp.constprop.47>
    3056:	00054863          	bltz	a0,3066 <lfs_bd_flush+0xb8>
    305a:	d971                	beqz	a0,302e <lfs_bd_flush+0x80>
    305c:	fac00493          	li	s1,-84
    3060:	bfe1                	j	3038 <lfs_bd_flush+0x8a>
    3062:	4481                	li	s1,0
    3064:	bfd1                	j	3038 <lfs_bd_flush+0x8a>
    3066:	84aa                	mv	s1,a0
    3068:	bfc1                	j	3038 <lfs_bd_flush+0x8a>

0000306a <lfs_bd_prog>:
    306a:	9a0fd2ef          	jal	t0,20a <__riscv_save_10>
    306e:	893e                	mv	s2,a5
    3070:	57f9                	li	a5,-2
    3072:	8a2a                	mv	s4,a0
    3074:	84ae                	mv	s1,a1
    3076:	8ab2                	mv	s5,a2
    3078:	8b36                	mv	s6,a3
    307a:	8c3a                	mv	s8,a4
    307c:	8cc2                	mv	s9,a6
    307e:	89c6                	mv	s3,a7
    3080:	02f70463          	beq	a4,a5,30a8 <lfs_bd_prog+0x3e>
    3084:	557c                	lw	a5,108(a0)
    3086:	02f76163          	bltu	a4,a5,30a8 <lfs_bd_prog+0x3e>
    308a:	0000b6b7          	lui	a3,0xb
    308e:	662d                	lui	a2,0xb
    3090:	6a868693          	addi	a3,a3,1704 # b6a8 <defaults.4608+0x5c>
    3094:	51460613          	addi	a2,a2,1300 # b514 <__func__.3736>
    3098:	0e900593          	li	a1,233
    309c:	0000b537          	lui	a0,0xb
    30a0:	73450513          	addi	a0,a0,1844 # b734 <defaults.4608+0xe8>
    30a4:	4d7050ef          	jal	ra,8d7a <__assert_func>
    30a8:	068a2703          	lw	a4,104(s4)
    30ac:	013907b3          	add	a5,s2,s3
    30b0:	5bfd                	li	s7,-1
    30b2:	4f58                	lw	a4,28(a4)
    30b4:	06f77d63          	bgeu	a4,a5,312e <lfs_bd_prog+0xc4>
    30b8:	0000b6b7          	lui	a3,0xb
    30bc:	662d                	lui	a2,0xb
    30be:	6e068693          	addi	a3,a3,1760 # b6e0 <defaults.4608+0x94>
    30c2:	51460613          	addi	a2,a2,1300 # b514 <__func__.3736>
    30c6:	0ea00593          	li	a1,234
    30ca:	bfc9                	j	309c <lfs_bd_prog+0x32>
    30cc:	409c                	lw	a5,0(s1)
    30ce:	06fc1563          	bne	s8,a5,3138 <lfs_bd_prog+0xce>
    30d2:	40c8                	lw	a0,4(s1)
    30d4:	06a96263          	bltu	s2,a0,3138 <lfs_bd_prog+0xce>
    30d8:	068a2703          	lw	a4,104(s4)
    30dc:	5700                	lw	s0,40(a4)
    30de:	942a                	add	s0,s0,a0
    30e0:	04897c63          	bgeu	s2,s0,3138 <lfs_bd_prog+0xce>
    30e4:	41240433          	sub	s0,s0,s2
    30e8:	0089f363          	bgeu	s3,s0,30ee <lfs_bd_prog+0x84>
    30ec:	844e                	mv	s0,s3
    30ee:	44dc                	lw	a5,12(s1)
    30f0:	40a90533          	sub	a0,s2,a0
    30f4:	85e6                	mv	a1,s9
    30f6:	953e                	add	a0,a0,a5
    30f8:	8622                	mv	a2,s0
    30fa:	521050ef          	jal	ra,8e1a <memcpy>
    30fe:	40dc                	lw	a5,4(s1)
    3100:	4498                	lw	a4,8(s1)
    3102:	9922                	add	s2,s2,s0
    3104:	40f907b3          	sub	a5,s2,a5
    3108:	9ca2                	add	s9,s9,s0
    310a:	408989b3          	sub	s3,s3,s0
    310e:	00e7f363          	bgeu	a5,a4,3114 <lfs_bd_prog+0xaa>
    3112:	87ba                	mv	a5,a4
    3114:	068a2703          	lw	a4,104(s4)
    3118:	c49c                	sw	a5,8(s1)
    311a:	5718                	lw	a4,40(a4)
    311c:	00e79963          	bne	a5,a4,312e <lfs_bd_prog+0xc4>
    3120:	86da                	mv	a3,s6
    3122:	8656                	mv	a2,s5
    3124:	85a6                	mv	a1,s1
    3126:	8552                	mv	a0,s4
    3128:	e87ff0ef          	jal	ra,2fae <lfs_bd_flush>
    312c:	e501                	bnez	a0,3134 <lfs_bd_prog+0xca>
    312e:	f8099fe3          	bnez	s3,30cc <lfs_bd_prog+0x62>
    3132:	4501                	li	a0,0
    3134:	90efd06f          	j	242 <__riscv_restore_10>
    3138:	01778c63          	beq	a5,s7,3150 <lfs_bd_prog+0xe6>
    313c:	0000b6b7          	lui	a3,0xb
    3140:	662d                	lui	a2,0xb
    3142:	70468693          	addi	a3,a3,1796 # b704 <defaults.4608+0xb8>
    3146:	51460613          	addi	a2,a2,1300 # b514 <__func__.3736>
    314a:	10700593          	li	a1,263
    314e:	b7b9                	j	309c <lfs_bd_prog+0x32>
    3150:	068a2783          	lw	a5,104(s4)
    3154:	0184a023          	sw	s8,0(s1)
    3158:	4f9c                	lw	a5,24(a5)
    315a:	0004a423          	sw	zero,8(s1)
    315e:	02f977b3          	remu	a5,s2,a5
    3162:	40f907b3          	sub	a5,s2,a5
    3166:	c0dc                	sw	a5,4(s1)
    3168:	b7d9                	j	312e <lfs_bd_prog+0xc4>

0000316a <lfs_dir_commitprog>:
    316a:	8aefd2ef          	jal	t0,218 <__riscv_save_4>
    316e:	41dc                	lw	a5,4(a1)
    3170:	4198                	lw	a4,0(a1)
    3172:	88b6                	mv	a7,a3
    3174:	8832                	mv	a6,a2
    3176:	842e                	mv	s0,a1
    3178:	89b2                	mv	s3,a2
    317a:	84b6                	mv	s1,a3
    317c:	862a                	mv	a2,a0
    317e:	4681                	li	a3,0
    3180:	01050593          	addi	a1,a0,16
    3184:	ee7ff0ef          	jal	ra,306a <lfs_bd_prog>
    3188:	892a                	mv	s2,a0
    318a:	e911                	bnez	a0,319e <lfs_dir_commitprog+0x34>
    318c:	4448                	lw	a0,12(s0)
    318e:	8626                	mv	a2,s1
    3190:	85ce                	mv	a1,s3
    3192:	35f020ef          	jal	ra,5cf0 <lfs_crc>
    3196:	4054                	lw	a3,4(s0)
    3198:	c448                	sw	a0,12(s0)
    319a:	96a6                	add	a3,a3,s1
    319c:	c054                	sw	a3,4(s0)
    319e:	854a                	mv	a0,s2
    31a0:	8acfd06f          	j	24c <__riscv_restore_4>

000031a4 <lfs_dir_commitattr>:
    31a4:	866fd2ef          	jal	t0,20a <__riscv_save_10>
    31a8:	1141                	addi	sp,sp,-16
    31aa:	8a2a                	mv	s4,a0
    31ac:	8532                	mv	a0,a2
    31ae:	842e                	mv	s0,a1
    31b0:	8bb2                	mv	s7,a2
    31b2:	8b36                	mv	s6,a3
    31b4:	ee1fe0ef          	jal	ra,2094 <lfs_tag_dsize>
    31b8:	405c                	lw	a5,4(s0)
    31ba:	4858                	lw	a4,20(s0)
    31bc:	5911                	li	s2,-28
    31be:	97aa                	add	a5,a5,a0
    31c0:	04f76263          	bltu	a4,a5,3204 <lfs_dir_commitattr+0x60>
    31c4:	84aa                	mv	s1,a0
    31c6:	4408                	lw	a0,8(s0)
    31c8:	001b9a93          	slli	s5,s7,0x1
    31cc:	001ada93          	srli	s5,s5,0x1
    31d0:	00aac533          	xor	a0,s5,a0
    31d4:	292030ef          	jal	ra,6466 <__bswapsi2>
    31d8:	c62a                	sw	a0,12(sp)
    31da:	4691                	li	a3,4
    31dc:	0070                	addi	a2,sp,12
    31de:	85a2                	mv	a1,s0
    31e0:	8552                	mv	a0,s4
    31e2:	f89ff0ef          	jal	ra,316a <lfs_dir_commitprog>
    31e6:	892a                	mv	s2,a0
    31e8:	ed11                	bnez	a0,3204 <lfs_dir_commitattr+0x60>
    31ea:	14f1                	addi	s1,s1,-4
    31ec:	4981                	li	s3,0
    31ee:	040bc863          	bltz	s7,323e <lfs_dir_commitattr+0x9a>
    31f2:	86a6                	mv	a3,s1
    31f4:	865a                	mv	a2,s6
    31f6:	85a2                	mv	a1,s0
    31f8:	8552                	mv	a0,s4
    31fa:	f71ff0ef          	jal	ra,316a <lfs_dir_commitprog>
    31fe:	e139                	bnez	a0,3244 <lfs_dir_commitattr+0xa0>
    3200:	01542423          	sw	s5,8(s0)
    3204:	854a                	mv	a0,s2
    3206:	0141                	addi	sp,sp,16
    3208:	83afd06f          	j	242 <__riscv_restore_10>
    320c:	004b2783          	lw	a5,4(s6)
    3210:	000b2703          	lw	a4,0(s6)
    3214:	4885                	li	a7,1
    3216:	00b10813          	addi	a6,sp,11
    321a:	97ce                	add	a5,a5,s3
    321c:	413486b3          	sub	a3,s1,s3
    3220:	8652                	mv	a2,s4
    3222:	4581                	li	a1,0
    3224:	8552                	mv	a0,s4
    3226:	fbbfe0ef          	jal	ra,21e0 <lfs_bd_read>
    322a:	ed09                	bnez	a0,3244 <lfs_dir_commitattr+0xa0>
    322c:	4685                	li	a3,1
    322e:	00b10613          	addi	a2,sp,11
    3232:	85a2                	mv	a1,s0
    3234:	8552                	mv	a0,s4
    3236:	f35ff0ef          	jal	ra,316a <lfs_dir_commitprog>
    323a:	e509                	bnez	a0,3244 <lfs_dir_commitattr+0xa0>
    323c:	0985                	addi	s3,s3,1
    323e:	fc99e7e3          	bltu	s3,s1,320c <lfs_dir_commitattr+0x68>
    3242:	bf7d                	j	3200 <lfs_dir_commitattr+0x5c>
    3244:	892a                	mv	s2,a0
    3246:	bf7d                	j	3204 <lfs_dir_commitattr+0x60>

00003248 <lfs_dir_commit_commit>:
    3248:	febfc2ef          	jal	t0,232 <__riscv_save_0>
    324c:	86b2                	mv	a3,a2
    324e:	862e                	mv	a2,a1
    3250:	414c                	lw	a1,4(a0)
    3252:	4108                	lw	a0,0(a0)
    3254:	f51ff0ef          	jal	ra,31a4 <lfs_dir_commitattr>
    3258:	ffffc06f          	j	256 <__riscv_restore_0>

0000325c <lfs_bd_sync.constprop.46>:
    325c:	fd7fc2ef          	jal	t0,232 <__riscv_save_0>
    3260:	57fd                	li	a5,-1
    3262:	c21c                	sw	a5,0(a2)
    3264:	4681                	li	a3,0
    3266:	842a                	mv	s0,a0
    3268:	d47ff0ef          	jal	ra,2fae <lfs_bd_flush>
    326c:	e50d                	bnez	a0,3296 <lfs_bd_sync.constprop.46+0x3a>
    326e:	5428                	lw	a0,104(s0)
    3270:	491c                	lw	a5,16(a0)
    3272:	9782                	jalr	a5
    3274:	02a05163          	blez	a0,3296 <lfs_bd_sync.constprop.46+0x3a>
    3278:	0000b6b7          	lui	a3,0xb
    327c:	662d                	lui	a2,0xb
    327e:	0000b537          	lui	a0,0xb
    3282:	72868693          	addi	a3,a3,1832 # b728 <defaults.4608+0xdc>
    3286:	50860613          	addi	a2,a2,1288 # b508 <__func__.3724>
    328a:	0de00593          	li	a1,222
    328e:	73450513          	addi	a0,a0,1844 # b734 <defaults.4608+0xe8>
    3292:	2e9050ef          	jal	ra,8d7a <__assert_func>
    3296:	fc1fc06f          	j	256 <__riscv_restore_0>

0000329a <lfs_bd_crc.constprop.48>:
    329a:	f71fc2ef          	jal	t0,20a <__riscv_save_10>
    329e:	1141                	addi	sp,sp,-16
    32a0:	8a2a                	mv	s4,a0
    32a2:	8aae                	mv	s5,a1
    32a4:	8b32                	mv	s6,a2
    32a6:	8bb6                	mv	s7,a3
    32a8:	8c3a                	mv	s8,a4
    32aa:	893e                	mv	s2,a5
    32ac:	89c2                	mv	s3,a6
    32ae:	4401                	li	s0,0
    32b0:	4ca1                	li	s9,8
    32b2:	01246663          	bltu	s0,s2,32be <lfs_bd_crc.constprop.48+0x24>
    32b6:	4501                	li	a0,0
    32b8:	0141                	addi	sp,sp,16
    32ba:	f89fc06f          	j	242 <__riscv_restore_10>
    32be:	408904b3          	sub	s1,s2,s0
    32c2:	009cf363          	bgeu	s9,s1,32c8 <lfs_bd_crc.constprop.48+0x2e>
    32c6:	44a1                	li	s1,8
    32c8:	88a6                	mv	a7,s1
    32ca:	00810813          	addi	a6,sp,8
    32ce:	018407b3          	add	a5,s0,s8
    32d2:	875e                	mv	a4,s7
    32d4:	408b06b3          	sub	a3,s6,s0
    32d8:	8656                	mv	a2,s5
    32da:	4581                	li	a1,0
    32dc:	8552                	mv	a0,s4
    32de:	f03fe0ef          	jal	ra,21e0 <lfs_bd_read>
    32e2:	f979                	bnez	a0,32b8 <lfs_bd_crc.constprop.48+0x1e>
    32e4:	0009a503          	lw	a0,0(s3)
    32e8:	8626                	mv	a2,s1
    32ea:	002c                	addi	a1,sp,8
    32ec:	205020ef          	jal	ra,5cf0 <lfs_crc>
    32f0:	00a9a023          	sw	a0,0(s3)
    32f4:	9426                	add	s0,s0,s1
    32f6:	bf75                	j	32b2 <lfs_bd_crc.constprop.48+0x18>

000032f8 <lfs_dir_commitcrc>:
    32f8:	f13fc2ef          	jal	t0,20a <__riscv_save_10>
    32fc:	5534                	lw	a3,104(a0)
    32fe:	41dc                	lw	a5,4(a1)
    3300:	1141                	addi	sp,sp,-16
    3302:	4e98                	lw	a4,24(a3)
    3304:	4ed4                	lw	a3,28(a3)
    3306:	07d1                	addi	a5,a5,20
    3308:	84aa                	mv	s1,a0
    330a:	842e                	mv	s0,a1
    330c:	00f6f363          	bgeu	a3,a5,3312 <lfs_dir_commitcrc+0x1a>
    3310:	87b6                	mv	a5,a3
    3312:	fff70993          	addi	s3,a4,-1
    3316:	97ce                	add	a5,a5,s3
    3318:	02e7f9b3          	remu	s3,a5,a4
    331c:	00100b37          	lui	s6,0x100
    3320:	4b81                	li	s7,0
    3322:	4a81                	li	s5,0
    3324:	c00b0b13          	addi	s6,s6,-1024 # ffc00 <_data_lma+0xf34ac>
    3328:	01048c93          	addi	s9,s1,16
    332c:	413789b3          	sub	s3,a5,s3
    3330:	fec98c13          	addi	s8,s3,-20
    3334:	405c                	lw	a5,4(s0)
    3336:	0337e863          	bltu	a5,s3,3366 <lfs_dir_commitcrc+0x6e>
    333a:	4818                	lw	a4,16(s0)
    333c:	4014                	lw	a3,0(s0)
    333e:	57fd                	li	a5,-1
    3340:	c43e                	sw	a5,8(sp)
    3342:	00810813          	addi	a6,sp,8
    3346:	40ea87b3          	sub	a5,s5,a4
    334a:	004a8613          	addi	a2,s5,4
    334e:	85a6                	mv	a1,s1
    3350:	8526                	mv	a0,s1
    3352:	f49ff0ef          	jal	ra,329a <lfs_bd_crc.constprop.48>
    3356:	12051d63          	bnez	a0,3490 <lfs_dir_commitcrc+0x198>
    335a:	47a2                	lw	a5,8(sp)
    335c:	13778d63          	beq	a5,s7,3496 <lfs_dir_commitcrc+0x19e>
    3360:	fac00513          	li	a0,-84
    3364:	a235                	j	3490 <lfs_dir_commitcrc+0x198>
    3366:	40f98933          	sub	s2,s3,a5
    336a:	1971                	addi	s2,s2,-4
    336c:	3fe00713          	li	a4,1022
    3370:	01277463          	bgeu	a4,s2,3378 <lfs_dir_commitcrc+0x80>
    3374:	3fe00913          	li	s2,1022
    3378:	0791                	addi	a5,a5,4
    337a:	993e                	add	s2,s2,a5
    337c:	01397563          	bgeu	s2,s3,3386 <lfs_dir_commitcrc+0x8e>
    3380:	012c7363          	bgeu	s8,s2,3386 <lfs_dir_commitcrc+0x8e>
    3384:	8962                	mv	s2,s8
    3386:	57fd                	li	a5,-1
    3388:	83dc                	sb	a5,7(sp)
    338a:	07396463          	bltu	s2,s3,33f2 <lfs_dir_commitcrc+0xfa>
    338e:	54bc                	lw	a5,104(s1)
    3390:	4f94                	lw	a3,24(a5)
    3392:	4fdc                	lw	a5,28(a5)
    3394:	8f95                	sub	a5,a5,a3
    3396:	0527ee63          	bltu	a5,s2,33f2 <lfs_dir_commitcrc+0xfa>
    339a:	4018                	lw	a4,0(s0)
    339c:	4885                	li	a7,1
    339e:	00710813          	addi	a6,sp,7
    33a2:	87ca                	mv	a5,s2
    33a4:	8626                	mv	a2,s1
    33a6:	4581                	li	a1,0
    33a8:	8526                	mv	a0,s1
    33aa:	e37fe0ef          	jal	ra,21e0 <lfs_bd_read>
    33ae:	c509                	beqz	a0,33b8 <lfs_dir_commitcrc+0xc0>
    33b0:	fac00793          	li	a5,-84
    33b4:	0cf51e63          	bne	a0,a5,3490 <lfs_dir_commitcrc+0x198>
    33b8:	54bc                	lw	a5,104(s1)
    33ba:	4014                	lw	a3,0(s0)
    33bc:	577d                	li	a4,-1
    33be:	4f9c                	lw	a5,24(a5)
    33c0:	00c10813          	addi	a6,sp,12
    33c4:	c63a                	sw	a4,12(sp)
    33c6:	863e                	mv	a2,a5
    33c8:	874a                	mv	a4,s2
    33ca:	85a6                	mv	a1,s1
    33cc:	8526                	mv	a0,s1
    33ce:	c43e                	sw	a5,8(sp)
    33d0:	ecbff0ef          	jal	ra,329a <lfs_bd_crc.constprop.48>
    33d4:	c509                	beqz	a0,33de <lfs_dir_commitcrc+0xe6>
    33d6:	fac00793          	li	a5,-84
    33da:	0af51b63          	bne	a0,a5,3490 <lfs_dir_commitcrc+0x198>
    33de:	60000637          	lui	a2,0x60000
    33e2:	0034                	addi	a3,sp,8
    33e4:	c0860613          	addi	a2,a2,-1016 # 5ffffc08 <_eusrstack+0x3fff7c08>
    33e8:	85a2                	mv	a1,s0
    33ea:	8526                	mv	a0,s1
    33ec:	db9ff0ef          	jal	ra,31a4 <lfs_dir_commitattr>
    33f0:	e145                	bnez	a0,3490 <lfs_dir_commitcrc+0x198>
    33f2:	00714a03          	lbu	s4,7(sp)
    33f6:	405c                	lw	a5,4(s0)
    33f8:	4408                	lw	a0,8(s0)
    33fa:	080a4a13          	xori	s4,s4,128
    33fe:	007a5a13          	srli	s4,s4,0x7
    3402:	500a0a13          	addi	s4,s4,1280
    3406:	40f907b3          	sub	a5,s2,a5
    340a:	17f1                	addi	a5,a5,-4
    340c:	0a52                	slli	s4,s4,0x14
    340e:	00fa6a33          	or	s4,s4,a5
    3412:	016a6a33          	or	s4,s4,s6
    3416:	00aa4533          	xor	a0,s4,a0
    341a:	04c030ef          	jal	ra,6466 <__bswapsi2>
    341e:	c42a                	sw	a0,8(sp)
    3420:	4448                	lw	a0,12(s0)
    3422:	4611                	li	a2,4
    3424:	002c                	addi	a1,sp,8
    3426:	0cb020ef          	jal	ra,5cf0 <lfs_crc>
    342a:	405c                	lw	a5,4(s0)
    342c:	4018                	lw	a4,0(s0)
    342e:	c448                	sw	a0,12(s0)
    3430:	c62a                	sw	a0,12(sp)
    3432:	48a1                	li	a7,8
    3434:	00810813          	addi	a6,sp,8
    3438:	4681                	li	a3,0
    343a:	8626                	mv	a2,s1
    343c:	85e6                	mv	a1,s9
    343e:	8526                	mv	a0,s1
    3440:	c2bff0ef          	jal	ra,306a <lfs_bd_prog>
    3444:	e531                	bnez	a0,3490 <lfs_dir_commitcrc+0x198>
    3446:	000a9763          	bnez	s5,3454 <lfs_dir_commitcrc+0x15c>
    344a:	00442a83          	lw	s5,4(s0)
    344e:	00c42b83          	lw	s7,12(s0)
    3452:	0a91                	addi	s5,s5,4
    3454:	839c                	lbu	a5,7(sp)
    3456:	80000737          	lui	a4,0x80000
    345a:	01242223          	sw	s2,4(s0)
    345e:	fff7c793          	not	a5,a5
    3462:	07e2                	slli	a5,a5,0x18
    3464:	8ff9                	and	a5,a5,a4
    3466:	0147ca33          	xor	s4,a5,s4
    346a:	57fd                	li	a5,-1
    346c:	01442423          	sw	s4,8(s0)
    3470:	c45c                	sw	a5,12(s0)
    3472:	01397863          	bgeu	s2,s3,3482 <lfs_dir_commitcrc+0x18a>
    3476:	54bc                	lw	a5,104(s1)
    3478:	48d8                	lw	a4,20(s1)
    347a:	579c                	lw	a5,40(a5)
    347c:	97ba                	add	a5,a5,a4
    347e:	eaf96be3          	bltu	s2,a5,3334 <lfs_dir_commitcrc+0x3c>
    3482:	8626                	mv	a2,s1
    3484:	85e6                	mv	a1,s9
    3486:	8526                	mv	a0,s1
    3488:	dd5ff0ef          	jal	ra,325c <lfs_bd_sync.constprop.46>
    348c:	ea0504e3          	beqz	a0,3334 <lfs_dir_commitcrc+0x3c>
    3490:	0141                	addi	sp,sp,16
    3492:	db1fc06f          	j	242 <__riscv_restore_10>
    3496:	4014                	lw	a3,0(s0)
    3498:	00810813          	addi	a6,sp,8
    349c:	4791                	li	a5,4
    349e:	8756                	mv	a4,s5
    34a0:	4611                	li	a2,4
    34a2:	85a6                	mv	a1,s1
    34a4:	8526                	mv	a0,s1
    34a6:	df5ff0ef          	jal	ra,329a <lfs_bd_crc.constprop.48>
    34aa:	f17d                	bnez	a0,3490 <lfs_dir_commitcrc+0x198>
    34ac:	47a2                	lw	a5,8(sp)
    34ae:	d3ed                	beqz	a5,3490 <lfs_dir_commitcrc+0x198>
    34b0:	bd45                	j	3360 <lfs_dir_commitcrc+0x68>

000034b2 <lfs_dir_fetchmatch>:
    34b2:	d51fc2ef          	jal	t0,202 <__riscv_save_12>
    34b6:	06c52e03          	lw	t3,108(a0)
    34ba:	715d                	addi	sp,sp,-80
    34bc:	00062e83          	lw	t4,0(a2)
    34c0:	000e0863          	beqz	t3,34d0 <lfs_dir_fetchmatch+0x1e>
    34c4:	43cef263          	bgeu	t4,t3,38e8 <lfs_dir_fetchmatch+0x436>
    34c8:	00462303          	lw	t1,4(a2)
    34cc:	41c37e63          	bgeu	t1,t3,38e8 <lfs_dir_fetchmatch+0x436>
    34d0:	ce46                	sw	a7,28(sp)
    34d2:	c642                	sw	a6,12(sp)
    34d4:	c43e                	sw	a5,8(sp)
    34d6:	cc3a                	sw	a4,24(sp)
    34d8:	ca36                	sw	a3,20(sp)
    34da:	8932                	mv	s2,a2
    34dc:	8bae                	mv	s7,a1
    34de:	4891                	li	a7,4
    34e0:	03010813          	addi	a6,sp,48
    34e4:	4781                	li	a5,0
    34e6:	8776                	mv	a4,t4
    34e8:	4691                	li	a3,4
    34ea:	862a                	mv	a2,a0
    34ec:	4581                	li	a1,0
    34ee:	842a                	mv	s0,a0
    34f0:	d802                	sw	zero,48(sp)
    34f2:	da02                	sw	zero,52(sp)
    34f4:	cedfe0ef          	jal	ra,21e0 <lfs_bd_read>
    34f8:	8aaa                	mv	s5,a0
    34fa:	c509                	beqz	a0,3504 <lfs_dir_fetchmatch+0x52>
    34fc:	fac00793          	li	a5,-84
    3500:	0af51d63          	bne	a0,a5,35ba <lfs_dir_fetchmatch+0x108>
    3504:	00492703          	lw	a4,4(s2)
    3508:	4891                	li	a7,4
    350a:	03410813          	addi	a6,sp,52
    350e:	4781                	li	a5,0
    3510:	4691                	li	a3,4
    3512:	8622                	mv	a2,s0
    3514:	4581                	li	a1,0
    3516:	8522                	mv	a0,s0
    3518:	cc9fe0ef          	jal	ra,21e0 <lfs_bd_read>
    351c:	8aaa                	mv	s5,a0
    351e:	c155                	beqz	a0,35c2 <lfs_dir_fetchmatch+0x110>
    3520:	fac00793          	li	a5,-84
    3524:	08f51b63          	bne	a0,a5,35ba <lfs_dir_fetchmatch+0x108>
    3528:	4481                	li	s1,0
    352a:	00249793          	slli	a5,s1,0x2
    352e:	00f90733          	add	a4,s2,a5
    3532:	4318                	lw	a4,0(a4)
    3534:	0014c493          	xori	s1,s1,1
    3538:	048a                	slli	s1,s1,0x2
    353a:	00eba023          	sw	a4,0(s7)
    353e:	9926                	add	s2,s2,s1
    3540:	00092703          	lw	a4,0(s2)
    3544:	5afd                	li	s5,-1
    3546:	000ba623          	sw	zero,12(s7)
    354a:	00eba223          	sw	a4,4(s7)
    354e:	0898                	addi	a4,sp,80
    3550:	97ba                	add	a5,a5,a4
    3552:	fe07a783          	lw	a5,-32(a5)
    3556:	5b7d                	li	s6,-1
    3558:	80000c37          	lui	s8,0x80000
    355c:	00fba423          	sw	a5,8(s7)
    3560:	4789                	li	a5,2
    3562:	c23e                	sw	a5,4(sp)
    3564:	001007b7          	lui	a5,0x100
    3568:	c0078793          	addi	a5,a5,-1024 # ffc00 <_data_lma+0xf34ac>
    356c:	c83e                	sw	a5,16(sp)
    356e:	4611                	li	a2,4
    3570:	008b8593          	addi	a1,s7,8
    3574:	557d                	li	a0,-1
    3576:	dc5a                	sw	s6,56(sp)
    3578:	de5a                	sw	s6,60(sp)
    357a:	776020ef          	jal	ra,5cf0 <lfs_crc>
    357e:	d22a                	sw	a0,36(sp)
    3580:	8cd6                	mv	s9,s5
    3582:	c002                	sw	zero,0(sp)
    3584:	4d81                	li	s11,0
    3586:	4981                	li	s3,0
    3588:	5d7d                	li	s10,-1
    358a:	4a01                	li	s4,0
    358c:	856a                	mv	a0,s10
    358e:	b07fe0ef          	jal	ra,2094 <lfs_tag_dsize>
    3592:	5434                	lw	a3,104(s0)
    3594:	000ba703          	lw	a4,0(s7)
    3598:	9a2a                	add	s4,s4,a0
    359a:	4ed4                	lw	a3,28(a3)
    359c:	4891                	li	a7,4
    359e:	02810813          	addi	a6,sp,40
    35a2:	87d2                	mv	a5,s4
    35a4:	8622                	mv	a2,s0
    35a6:	4581                	li	a1,0
    35a8:	8522                	mv	a0,s0
    35aa:	c37fe0ef          	jal	ra,21e0 <lfs_bd_read>
    35ae:	c105                	beqz	a0,35ce <lfs_dir_fetchmatch+0x11c>
    35b0:	fac00793          	li	a5,-84
    35b4:	26f50063          	beq	a0,a5,3814 <lfs_dir_fetchmatch+0x362>
    35b8:	8aaa                	mv	s5,a0
    35ba:	8556                	mv	a0,s5
    35bc:	6161                	addi	sp,sp,80
    35be:	c81fc06f          	j	23e <__riscv_restore_12>
    35c2:	54d2                	lw	s1,52(sp)
    35c4:	57c2                	lw	a5,48(sp)
    35c6:	8c9d                	sub	s1,s1,a5
    35c8:	009024b3          	sgtz	s1,s1
    35cc:	bfb9                	j	352a <lfs_dir_fetchmatch+0x78>
    35ce:	5512                	lw	a0,36(sp)
    35d0:	4611                	li	a2,4
    35d2:	102c                	addi	a1,sp,40
    35d4:	71c020ef          	jal	ra,5cf0 <lfs_crc>
    35d8:	d22a                	sw	a0,36(sp)
    35da:	5522                	lw	a0,40(sp)
    35dc:	68b020ef          	jal	ra,6466 <__bswapsi2>
    35e0:	00ad4933          	xor	s2,s10,a0
    35e4:	d44a                	sw	s2,40(sp)
    35e6:	04095363          	bgez	s2,362c <lfs_dir_fetchmatch+0x17a>
    35ea:	014d5793          	srli	a5,s10,0x14
    35ee:	7807f793          	andi	a5,a5,1920
    35f2:	b0078793          	addi	a5,a5,-1280
    35f6:	0017b793          	seqz	a5,a5
    35fa:	00cba703          	lw	a4,12(s7)
    35fe:	20071d63          	bnez	a4,3818 <lfs_dir_fetchmatch+0x366>
    3602:	089c                	addi	a5,sp,80
    3604:	97a6                	add	a5,a5,s1
    3606:	000ba703          	lw	a4,0(s7)
    360a:	004ba683          	lw	a3,4(s7)
    360e:	fe07a783          	lw	a5,-32(a5)
    3612:	4612                	lw	a2,4(sp)
    3614:	00dba023          	sw	a3,0(s7)
    3618:	00fba423          	sw	a5,8(s7)
    361c:	00eba223          	sw	a4,4(s7)
    3620:	4785                	li	a5,1
    3622:	2af60363          	beq	a2,a5,38c8 <lfs_dir_fetchmatch+0x416>
    3626:	4785                	li	a5,1
    3628:	c23e                	sw	a5,4(sp)
    362a:	b791                	j	356e <lfs_dir_fetchmatch+0xbc>
    362c:	854a                	mv	a0,s2
    362e:	a67fe0ef          	jal	ra,2094 <lfs_tag_dsize>
    3632:	543c                	lw	a5,104(s0)
    3634:	4fd0                	lw	a2,28(a5)
    3636:	014507b3          	add	a5,a0,s4
    363a:	1cf66d63          	bltu	a2,a5,3814 <lfs_dir_fetchmatch+0x362>
    363e:	01495713          	srli	a4,s2,0x14
    3642:	78077713          	andi	a4,a4,1920
    3646:	50000793          	li	a5,1280
    364a:	000ba683          	lw	a3,0(s7)
    364e:	004a0d13          	addi	s10,s4,4
    3652:	06f71563          	bne	a4,a5,36bc <lfs_dir_fetchmatch+0x20a>
    3656:	8736                	mv	a4,a3
    3658:	4891                	li	a7,4
    365a:	86b2                	mv	a3,a2
    365c:	02c10813          	addi	a6,sp,44
    3660:	87ea                	mv	a5,s10
    3662:	8622                	mv	a2,s0
    3664:	4581                	li	a1,0
    3666:	8522                	mv	a0,s0
    3668:	b79fe0ef          	jal	ra,21e0 <lfs_bd_read>
    366c:	f131                	bnez	a0,35b0 <lfs_dir_fetchmatch+0xfe>
    366e:	5732                	lw	a4,44(sp)
    3670:	5792                	lw	a5,36(sp)
    3672:	1af71163          	bne	a4,a5,3814 <lfs_dir_fetchmatch+0x362>
    3676:	57a2                	lw	a5,40(sp)
    3678:	5448                	lw	a0,44(s0)
    367a:	4611                	li	a2,4
    367c:	83d1                	srli	a5,a5,0x14
    367e:	07fe                	slli	a5,a5,0x1f
    3680:	104c                	addi	a1,sp,36
    3682:	00f94933          	xor	s2,s2,a5
    3686:	66a020ef          	jal	ra,5cf0 <lfs_crc>
    368a:	d448                	sw	a0,44(s0)
    368c:	5522                	lw	a0,40(sp)
    368e:	a07fe0ef          	jal	ra,2094 <lfs_tag_dsize>
    3692:	57e2                	lw	a5,56(sp)
    3694:	9552                	add	a0,a0,s4
    3696:	00aba623          	sw	a0,12(s7)
    369a:	00fbac23          	sw	a5,24(s7)
    369e:	57f2                	lw	a5,60(sp)
    36a0:	012ba823          	sw	s2,16(s7)
    36a4:	013b9a23          	sh	s3,20(s7)
    36a8:	00fbae23          	sw	a5,28(s7)
    36ac:	01bb8ba3          	sb	s11,23(s7)
    36b0:	d25a                	sw	s6,36(sp)
    36b2:	87e6                	mv	a5,s9
    36b4:	8ae6                	mv	s5,s9
    36b6:	8d4a                	mv	s10,s2
    36b8:	8cbe                	mv	s9,a5
    36ba:	bdc9                	j	358c <lfs_dir_fetchmatch+0xda>
    36bc:	ffc50793          	addi	a5,a0,-4
    36c0:	02410813          	addi	a6,sp,36
    36c4:	876a                	mv	a4,s10
    36c6:	85a2                	mv	a1,s0
    36c8:	8522                	mv	a0,s0
    36ca:	bd1ff0ef          	jal	ra,329a <lfs_bd_crc.constprop.48>
    36ce:	ee0511e3          	bnez	a0,35b0 <lfs_dir_fetchmatch+0xfe>
    36d2:	57a2                	lw	a5,40(sp)
    36d4:	0147d713          	srli	a4,a5,0x14
    36d8:	01071693          	slli	a3,a4,0x10
    36dc:	82c1                	srli	a3,a3,0x10
    36de:	7006f613          	andi	a2,a3,1792
    36e2:	ee1d                	bnez	a2,3720 <lfs_dir_fetchmatch+0x26e>
    36e4:	83a9                	srli	a5,a5,0xa
    36e6:	3ff7f793          	andi	a5,a5,1023
    36ea:	0137e463          	bltu	a5,s3,36f2 <lfs_dir_fetchmatch+0x240>
    36ee:	00178993          	addi	s3,a5,1
    36f2:	55a2                	lw	a1,40(sp)
    36f4:	47e2                	lw	a5,24(sp)
    36f6:	4752                	lw	a4,20(sp)
    36f8:	8fad                	xor	a5,a5,a1
    36fa:	8ff9                	and	a5,a5,a4
    36fc:	eff9                	bnez	a5,37da <lfs_dir_fetchmatch+0x328>
    36fe:	47b2                	lw	a5,12(sp)
    3700:	e3e1                	bnez	a5,37c0 <lfs_dir_fetchmatch+0x30e>
    3702:	0000b6b7          	lui	a3,0xb
    3706:	662d                	lui	a2,0xb
    3708:	0000b537          	lui	a0,0xb
    370c:	7d868693          	addi	a3,a3,2008 # b7d8 <defaults.4608+0x18c>
    3710:	55860613          	addi	a2,a2,1368 # b558 <__func__.4156>
    3714:	50e00593          	li	a1,1294
    3718:	73450513          	addi	a0,a0,1844 # b734 <defaults.4608+0xe8>
    371c:	65e050ef          	jal	ra,8d7a <__assert_func>
    3720:	40000593          	li	a1,1024
    3724:	04b61163          	bne	a2,a1,3766 <lfs_dir_fetchmatch+0x2b4>
    3728:	46c2                	lw	a3,16(sp)
    372a:	0762                	slli	a4,a4,0x18
    372c:	8761                	srai	a4,a4,0x18
    372e:	99ba                	add	s3,s3,a4
    3730:	00dcf6b3          	and	a3,s9,a3
    3734:	4ff00637          	lui	a2,0x4ff00
    3738:	09c2                	slli	s3,s3,0x10
    373a:	8ed1                	or	a3,a3,a2
    373c:	0109d993          	srli	s3,s3,0x10
    3740:	00d79563          	bne	a5,a3,374a <lfs_dir_fetchmatch+0x298>
    3744:	018cecb3          	or	s9,s9,s8
    3748:	b76d                	j	36f2 <lfs_dir_fetchmatch+0x240>
    374a:	fb6c84e3          	beq	s9,s6,36f2 <lfs_dir_fetchmatch+0x240>
    374e:	83a9                	srli	a5,a5,0xa
    3750:	00acd693          	srli	a3,s9,0xa
    3754:	3ff7f793          	andi	a5,a5,1023
    3758:	3ff6f693          	andi	a3,a3,1023
    375c:	f8f6ebe3          	bltu	a3,a5,36f2 <lfs_dir_fetchmatch+0x240>
    3760:	072a                	slli	a4,a4,0xa
    3762:	9cba                	add	s9,s9,a4
    3764:	b779                	j	36f2 <lfs_dir_fetchmatch+0x240>
    3766:	60000793          	li	a5,1536
    376a:	02f61363          	bne	a2,a5,3790 <lfs_dir_fetchmatch+0x2de>
    376e:	5434                	lw	a3,104(s0)
    3770:	00177d93          	andi	s11,a4,1
    3774:	000ba703          	lw	a4,0(s7)
    3778:	4ed4                	lw	a3,28(a3)
    377a:	48a1                	li	a7,8
    377c:	03810813          	addi	a6,sp,56
    3780:	87ea                	mv	a5,s10
    3782:	8622                	mv	a2,s0
    3784:	4581                	li	a1,0
    3786:	8522                	mv	a0,s0
    3788:	a59fe0ef          	jal	ra,21e0 <lfs_bd_read>
    378c:	d13d                	beqz	a0,36f2 <lfs_dir_fetchmatch+0x240>
    378e:	b50d                	j	35b0 <lfs_dir_fetchmatch+0xfe>
    3790:	7ff6f693          	andi	a3,a3,2047
    3794:	5ff00793          	li	a5,1535
    3798:	f4f69de3          	bne	a3,a5,36f2 <lfs_dir_fetchmatch+0x240>
    379c:	5434                	lw	a3,104(s0)
    379e:	000ba703          	lw	a4,0(s7)
    37a2:	48a1                	li	a7,8
    37a4:	4ed4                	lw	a3,28(a3)
    37a6:	04010813          	addi	a6,sp,64
    37aa:	87ea                	mv	a5,s10
    37ac:	8622                	mv	a2,s0
    37ae:	4581                	li	a1,0
    37b0:	8522                	mv	a0,s0
    37b2:	a2ffe0ef          	jal	ra,21e0 <lfs_bd_read>
    37b6:	de051de3          	bnez	a0,35b0 <lfs_dir_fetchmatch+0xfe>
    37ba:	4785                	li	a5,1
    37bc:	c03e                	sw	a5,0(sp)
    37be:	bf15                	j	36f2 <lfs_dir_fetchmatch+0x240>
    37c0:	000ba783          	lw	a5,0(s7)
    37c4:	4572                	lw	a0,28(sp)
    37c6:	00b0                	addi	a2,sp,72
    37c8:	c4be                	sw	a5,72(sp)
    37ca:	47b2                	lw	a5,12(sp)
    37cc:	c6ea                	sw	s10,76(sp)
    37ce:	9782                	jalr	a5
    37d0:	de0540e3          	bltz	a0,35b0 <lfs_dir_fetchmatch+0xfe>
    37d4:	56a2                	lw	a3,40(sp)
    37d6:	e509                	bnez	a0,37e0 <lfs_dir_fetchmatch+0x32e>
    37d8:	8cb6                	mv	s9,a3
    37da:	87e6                	mv	a5,s9
    37dc:	8cd6                	mv	s9,s5
    37de:	bdd9                	j	36b4 <lfs_dir_fetchmatch+0x202>
    37e0:	80000737          	lui	a4,0x80000
    37e4:	0196c7b3          	xor	a5,a3,s9
    37e8:	c0074713          	xori	a4,a4,-1024
    37ec:	8ff9                	and	a5,a5,a4
    37ee:	c38d                	beqz	a5,3810 <lfs_dir_fetchmatch+0x35e>
    37f0:	4789                	li	a5,2
    37f2:	fef514e3          	bne	a0,a5,37da <lfs_dir_fetchmatch+0x328>
    37f6:	00acd713          	srli	a4,s9,0xa
    37fa:	00a6d793          	srli	a5,a3,0xa
    37fe:	3ff77713          	andi	a4,a4,1023
    3802:	3ff7f793          	andi	a5,a5,1023
    3806:	fcf76ae3          	bltu	a4,a5,37da <lfs_dir_fetchmatch+0x328>
    380a:	0186ecb3          	or	s9,a3,s8
    380e:	b7f1                	j	37da <lfs_dir_fetchmatch+0x328>
    3810:	5cfd                	li	s9,-1
    3812:	b7e1                	j	37da <lfs_dir_fetchmatch+0x328>
    3814:	4781                	li	a5,0
    3816:	b3d5                	j	35fa <lfs_dir_fetchmatch+0x148>
    3818:	000b8b23          	sb	zero,22(s7)
    381c:	c3a1                	beqz	a5,385c <lfs_dir_fetchmatch+0x3aa>
    381e:	5430                	lw	a2,104(s0)
    3820:	4e1c                	lw	a5,24(a2)
    3822:	02f777b3          	remu	a5,a4,a5
    3826:	eb9d                	bnez	a5,385c <lfs_dir_fetchmatch+0x3aa>
    3828:	4782                	lw	a5,0(sp)
    382a:	cb8d                	beqz	a5,385c <lfs_dir_fetchmatch+0x3aa>
    382c:	57fd                	li	a5,-1
    382e:	d63e                	sw	a5,44(sp)
    3830:	000ba683          	lw	a3,0(s7)
    3834:	4786                	lw	a5,64(sp)
    3836:	4e50                	lw	a2,28(a2)
    3838:	02c10813          	addi	a6,sp,44
    383c:	85a2                	mv	a1,s0
    383e:	8522                	mv	a0,s0
    3840:	a5bff0ef          	jal	ra,329a <lfs_bd_crc.constprop.48>
    3844:	c509                	beqz	a0,384e <lfs_dir_fetchmatch+0x39c>
    3846:	fac00793          	li	a5,-84
    384a:	d6f517e3          	bne	a0,a5,35b8 <lfs_dir_fetchmatch+0x106>
    384e:	4796                	lw	a5,68(sp)
    3850:	5732                	lw	a4,44(sp)
    3852:	8f99                	sub	a5,a5,a4
    3854:	0017b793          	seqz	a5,a5
    3858:	00fb8b23          	sb	a5,22(s7)
    385c:	85de                	mv	a1,s7
    385e:	03c40513          	addi	a0,s0,60
    3862:	879fe0ef          	jal	ra,20da <lfs_gstate_hasmovehere>
    3866:	cd19                	beqz	a0,3884 <lfs_dir_fetchmatch+0x3d2>
    3868:	5c5c                	lw	a5,60(s0)
    386a:	00aad713          	srli	a4,s5,0xa
    386e:	3ff77713          	andi	a4,a4,1023
    3872:	83a9                	srli	a5,a5,0xa
    3874:	3ff7f793          	andi	a5,a5,1023
    3878:	04f71063          	bne	a4,a5,38b8 <lfs_dir_fetchmatch+0x406>
    387c:	800007b7          	lui	a5,0x80000
    3880:	00faeab3          	or	s5,s5,a5
    3884:	47a2                	lw	a5,8(sp)
    3886:	cf81                	beqz	a5,389e <lfs_dir_fetchmatch+0x3ec>
    3888:	014bd703          	lhu	a4,20(s7)
    388c:	00aad793          	srli	a5,s5,0xa
    3890:	3ff7f793          	andi	a5,a5,1023
    3894:	00f77363          	bgeu	a4,a5,389a <lfs_dir_fetchmatch+0x3e8>
    3898:	87ba                	mv	a5,a4
    389a:	4722                	lw	a4,8(sp)
    389c:	a31e                	sh	a5,0(a4)
    389e:	d00adee3          	bgez	s5,35ba <lfs_dir_fetchmatch+0x108>
    38a2:	014bd703          	lhu	a4,20(s7)
    38a6:	00aade13          	srli	t3,s5,0xa
    38aa:	3ffe7793          	andi	a5,t3,1023
    38ae:	5af9                	li	s5,-2
    38b0:	d0e7e5e3          	bltu	a5,a4,35ba <lfs_dir_fetchmatch+0x108>
    38b4:	4a81                	li	s5,0
    38b6:	b311                	j	35ba <lfs_dir_fetchmatch+0x108>
    38b8:	56fd                	li	a3,-1
    38ba:	fcda85e3          	beq	s5,a3,3884 <lfs_dir_fetchmatch+0x3d2>
    38be:	fce7f3e3          	bgeu	a5,a4,3884 <lfs_dir_fetchmatch+0x3d2>
    38c2:	c00a8a93          	addi	s5,s5,-1024
    38c6:	bf7d                	j	3884 <lfs_dir_fetchmatch+0x3d2>
    38c8:	0000b7b7          	lui	a5,0xb
    38cc:	0000b5b7          	lui	a1,0xb
    38d0:	0000b537          	lui	a0,0xb
    38d4:	93c78793          	addi	a5,a5,-1732 # a93c <_exit+0x2f0>
    38d8:	56800613          	li	a2,1384
    38dc:	73458593          	addi	a1,a1,1844 # b734 <defaults.4608+0xe8>
    38e0:	7ec50513          	addi	a0,a0,2028 # b7ec <defaults.4608+0x1a0>
    38e4:	613050ef          	jal	ra,96f6 <iprintf>
    38e8:	fac00a93          	li	s5,-84
    38ec:	b1f9                	j	35ba <lfs_dir_fetchmatch+0x108>

000038ee <lfs_dir_fetch>:
    38ee:	945fc2ef          	jal	t0,232 <__riscv_save_0>
    38f2:	4881                	li	a7,0
    38f4:	4801                	li	a6,0
    38f6:	4781                	li	a5,0
    38f8:	577d                	li	a4,-1
    38fa:	56fd                	li	a3,-1
    38fc:	bb7ff0ef          	jal	ra,34b2 <lfs_dir_fetchmatch>
    3900:	957fc06f          	j	256 <__riscv_restore_0>

00003904 <lfs_dir_find>:
    3904:	8fffc2ef          	jal	t0,202 <__riscv_save_12>
    3908:	511c                	lw	a5,32(a0)
    390a:	00062c83          	lw	s9,0(a2) # 4ff00000 <_eusrstack+0x2fef8000>
    390e:	1101                	addi	sp,sp,-32
    3910:	cd9c                	sw	a5,24(a1)
    3912:	515c                	lw	a5,36(a0)
    3914:	cddc                	sw	a5,28(a1)
    3916:	000c8703          	lb	a4,0(s9)
    391a:	cb55                	beqz	a4,39ce <lfs_dir_find+0xca>
    391c:	003007b7          	lui	a5,0x300
    3920:	20000737          	lui	a4,0x20000
    3924:	c0078a93          	addi	s5,a5,-1024 # 2ffc00 <_data_lma+0x2f34ac>
    3928:	00870793          	addi	a5,a4,8 # 20000008 <_data_vma+0x8>
    392c:	c436                	sw	a3,8(sp)
    392e:	c232                	sw	a2,4(sp)
    3930:	842e                	mv	s0,a1
    3932:	84aa                	mv	s1,a0
    3934:	0000ca37          	lui	s4,0xc
    3938:	0000cb37          	lui	s6,0xc
    393c:	01858b93          	addi	s7,a1,24
    3940:	c03e                	sw	a5,0(sp)
    3942:	014adc13          	srli	s8,s5,0x14
    3946:	4709                	li	a4,2
    3948:	00ec1863          	bne	s8,a4,3958 <lfs_dir_find+0x54>
    394c:	8566                	mv	a0,s9
    394e:	828a0593          	addi	a1,s4,-2008 # b828 <defaults.4608+0x1dc>
    3952:	75b050ef          	jal	ra,98ac <strspn>
    3956:	9caa                	add	s9,s9,a0
    3958:	828a0593          	addi	a1,s4,-2008
    395c:	8566                	mv	a0,s9
    395e:	731050ef          	jal	ra,988e <strcspn>
    3962:	4705                	li	a4,1
    3964:	892a                	mv	s2,a0
    3966:	04e51a63          	bne	a0,a4,39ba <lfs_dir_find+0xb6>
    396a:	000cc683          	lbu	a3,0(s9)
    396e:	02e00713          	li	a4,46
    3972:	001c8993          	addi	s3,s9,1
    3976:	08e68263          	beq	a3,a4,39fa <lfs_dir_find+0xf6>
    397a:	012c89b3          	add	s3,s9,s2
    397e:	874e                	mv	a4,s3
    3980:	4d85                	li	s11,1
    3982:	828a0593          	addi	a1,s4,-2008
    3986:	853a                	mv	a0,a4
    3988:	c63a                	sw	a4,12(sp)
    398a:	723050ef          	jal	ra,98ac <strspn>
    398e:	4732                	lw	a4,12(sp)
    3990:	828a0593          	addi	a1,s4,-2008
    3994:	00a70d33          	add	s10,a4,a0
    3998:	856a                	mv	a0,s10
    399a:	6f5050ef          	jal	ra,988e <strcspn>
    399e:	882a                	mv	a6,a0
    39a0:	c12d                	beqz	a0,3a02 <lfs_dir_find+0xfe>
    39a2:	4785                	li	a5,1
    39a4:	02f51a63          	bne	a0,a5,39d8 <lfs_dir_find+0xd4>
    39a8:	000d4603          	lbu	a2,0(s10) # 20000000 <_data_vma>
    39ac:	02e00793          	li	a5,46
    39b0:	04f61763          	bne	a2,a5,39fe <lfs_dir_find+0xfa>
    39b4:	010d0733          	add	a4,s10,a6
    39b8:	b7e9                	j	3982 <lfs_dir_find+0x7e>
    39ba:	4709                	li	a4,2
    39bc:	fae51fe3          	bne	a0,a4,397a <lfs_dir_find+0x76>
    39c0:	4609                	li	a2,2
    39c2:	824b0593          	addi	a1,s6,-2012 # b824 <defaults.4608+0x1d8>
    39c6:	8566                	mv	a0,s9
    39c8:	42e050ef          	jal	ra,8df6 <memcmp>
    39cc:	f55d                	bnez	a0,397a <lfs_dir_find+0x76>
    39ce:	5aa9                	li	s5,-22
    39d0:	8556                	mv	a0,s5
    39d2:	6105                	addi	sp,sp,32
    39d4:	86bfc06f          	j	23e <__riscv_restore_12>
    39d8:	4789                	li	a5,2
    39da:	02f51263          	bne	a0,a5,39fe <lfs_dir_find+0xfa>
    39de:	c62a                	sw	a0,12(sp)
    39e0:	4609                	li	a2,2
    39e2:	824b0593          	addi	a1,s6,-2012
    39e6:	856a                	mv	a0,s10
    39e8:	40e050ef          	jal	ra,8df6 <memcmp>
    39ec:	4832                	lw	a6,12(sp)
    39ee:	e901                	bnez	a0,39fe <lfs_dir_find+0xfa>
    39f0:	1dfd                	addi	s11,s11,-1
    39f2:	fc0d91e3          	bnez	s11,39b4 <lfs_dir_find+0xb0>
    39f6:	002d0993          	addi	s3,s10,2
    39fa:	8cce                	mv	s9,s3
    39fc:	b799                	j	3942 <lfs_dir_find+0x3e>
    39fe:	0d85                	addi	s11,s11,1
    3a00:	bf55                	j	39b4 <lfs_dir_find+0xb0>
    3a02:	000c8703          	lb	a4,0(s9)
    3a06:	d769                	beqz	a4,39d0 <lfs_dir_find+0xcc>
    3a08:	4792                	lw	a5,4(sp)
    3a0a:	4709                	li	a4,2
    3a0c:	0197a023          	sw	s9,0(a5)
    3a10:	06ec1363          	bne	s8,a4,3a76 <lfs_dir_find+0x172>
    3a14:	00aad793          	srli	a5,s5,0xa
    3a18:	3ff7f793          	andi	a5,a5,1023
    3a1c:	3ff00713          	li	a4,1023
    3a20:	02e78163          	beq	a5,a4,3a42 <lfs_dir_find+0x13e>
    3a24:	4682                	lw	a3,0(sp)
    3a26:	07aa                	slli	a5,a5,0xa
    3a28:	70100637          	lui	a2,0x70100
    3a2c:	875e                	mv	a4,s7
    3a2e:	8edd                	or	a3,a3,a5
    3a30:	c0060613          	addi	a2,a2,-1024 # 700ffc00 <_eusrstack+0x500f7c00>
    3a34:	85a2                	mv	a1,s0
    3a36:	8526                	mv	a0,s1
    3a38:	ac7fe0ef          	jal	ra,24fe <lfs_dir_get>
    3a3c:	8aaa                	mv	s5,a0
    3a3e:	f80549e3          	bltz	a0,39d0 <lfs_dir_find+0xcc>
    3a42:	000037b7          	lui	a5,0x3
    3a46:	f7678813          	addi	a6,a5,-138 # 2f76 <lfs_dir_find_match>
    3a4a:	47a2                	lw	a5,8(sp)
    3a4c:	01410893          	addi	a7,sp,20
    3a50:	874a                	mv	a4,s2
    3a52:	780006b7          	lui	a3,0x78000
    3a56:	865e                	mv	a2,s7
    3a58:	85a2                	mv	a1,s0
    3a5a:	8526                	mv	a0,s1
    3a5c:	ca26                	sw	s1,20(sp)
    3a5e:	cc66                	sw	s9,24(sp)
    3a60:	ce4a                	sw	s2,28(sp)
    3a62:	a51ff0ef          	jal	ra,34b2 <lfs_dir_fetchmatch>
    3a66:	8aaa                	mv	s5,a0
    3a68:	f60544e3          	bltz	a0,39d0 <lfs_dir_find+0xcc>
    3a6c:	f559                	bnez	a0,39fa <lfs_dir_find+0xf6>
    3a6e:	387c                	lbu	a5,23(s0)
    3a70:	fbe9                	bnez	a5,3a42 <lfs_dir_find+0x13e>
    3a72:	5af9                	li	s5,-2
    3a74:	bfb1                	j	39d0 <lfs_dir_find+0xcc>
    3a76:	5ab1                	li	s5,-20
    3a78:	bfa1                	j	39d0 <lfs_dir_find+0xcc>

00003a7a <lfs_path_islast>:
    3a7a:	fb8fc2ef          	jal	t0,232 <__riscv_save_0>
    3a7e:	0000c937          	lui	s2,0xc
    3a82:	82890593          	addi	a1,s2,-2008 # b828 <defaults.4608+0x1dc>
    3a86:	842a                	mv	s0,a0
    3a88:	607050ef          	jal	ra,988e <strcspn>
    3a8c:	84aa                	mv	s1,a0
    3a8e:	82890593          	addi	a1,s2,-2008
    3a92:	9522                	add	a0,a0,s0
    3a94:	619050ef          	jal	ra,98ac <strspn>
    3a98:	9522                	add	a0,a0,s0
    3a9a:	9526                	add	a0,a0,s1
    3a9c:	00050503          	lb	a0,0(a0)
    3aa0:	00153513          	seqz	a0,a0
    3aa4:	fb2fc06f          	j	256 <__riscv_restore_0>

00003aa8 <lfs_tortoise_detectcycles>:
    3aa8:	4d18                	lw	a4,24(a0)
    3aaa:	419c                	lw	a5,0(a1)
    3aac:	41d4                	lw	a3,4(a1)
    3aae:	00f71563          	bne	a4,a5,3ab8 <lfs_tortoise_detectcycles+0x10>
    3ab2:	4d50                	lw	a2,28(a0)
    3ab4:	02d60763          	beq	a2,a3,3ae2 <lfs_tortoise_detectcycles+0x3a>
    3ab8:	00d71563          	bne	a4,a3,3ac2 <lfs_tortoise_detectcycles+0x1a>
    3abc:	4d54                	lw	a3,28(a0)
    3abe:	02d78263          	beq	a5,a3,3ae2 <lfs_tortoise_detectcycles+0x3a>
    3ac2:	45d4                	lw	a3,12(a1)
    3ac4:	459c                	lw	a5,8(a1)
    3ac6:	00d79963          	bne	a5,a3,3ad8 <lfs_tortoise_detectcycles+0x30>
    3aca:	c198                	sw	a4,0(a1)
    3acc:	4d58                	lw	a4,28(a0)
    3ace:	0786                	slli	a5,a5,0x1
    3ad0:	0005a423          	sw	zero,8(a1)
    3ad4:	c1d8                	sw	a4,4(a1)
    3ad6:	c5dc                	sw	a5,12(a1)
    3ad8:	459c                	lw	a5,8(a1)
    3ada:	4501                	li	a0,0
    3adc:	0785                	addi	a5,a5,1
    3ade:	c59c                	sw	a5,8(a1)
    3ae0:	8082                	ret
    3ae2:	f50fc2ef          	jal	t0,232 <__riscv_save_0>
    3ae6:	0000b6b7          	lui	a3,0xb
    3aea:	6605                	lui	a2,0x1
    3aec:	0000b5b7          	lui	a1,0xb
    3af0:	0000c537          	lui	a0,0xc
    3af4:	93c68693          	addi	a3,a3,-1732 # a93c <_exit+0x2f0>
    3af8:	17c60613          	addi	a2,a2,380 # 117c <os_hal_adc_core_init+0x28>
    3afc:	73458593          	addi	a1,a1,1844 # b734 <defaults.4608+0xe8>
    3b00:	33850513          	addi	a0,a0,824 # c338 <defaults.4608+0xcec>
    3b04:	3f3050ef          	jal	ra,96f6 <iprintf>
    3b08:	fac00513          	li	a0,-84
    3b0c:	f4afc06f          	j	256 <__riscv_restore_0>

00003b10 <lfs_fs_parent>:
    3b10:	f08fc2ef          	jal	t0,218 <__riscv_save_4>
    3b14:	1101                	addi	sp,sp,-32
    3b16:	4785                	li	a5,1
    3b18:	8aae                	mv	s5,a1
    3b1a:	65a9                	lui	a1,0xa
    3b1c:	8432                	mv	s0,a2
    3b1e:	00062c23          	sw	zero,24(a2)
    3b22:	ce5c                	sw	a5,28(a2)
    3b24:	8a2a                	mv	s4,a0
    3b26:	4641                	li	a2,16
    3b28:	65058593          	addi	a1,a1,1616 # a650 <_exit+0x4>
    3b2c:	0808                	addi	a0,sp,16
    3b2e:	200004b7          	lui	s1,0x20000
    3b32:	7ff00937          	lui	s2,0x7ff00
    3b36:	2e4050ef          	jal	ra,8e1a <memcpy>
    3b3a:	01840993          	addi	s3,s0,24
    3b3e:	00002b37          	lui	s6,0x2
    3b42:	04a1                	addi	s1,s1,8
    3b44:	3ff90913          	addi	s2,s2,1023 # 7ff003ff <_eusrstack+0x5fef83ff>
    3b48:	854e                	mv	a0,s3
    3b4a:	d10fe0ef          	jal	ra,205a <lfs_pair_isnull>
    3b4e:	c119                	beqz	a0,3b54 <lfs_fs_parent+0x44>
    3b50:	5579                	li	a0,-2
    3b52:	a835                	j	3b8e <lfs_fs_parent+0x7e>
    3b54:	080c                	addi	a1,sp,16
    3b56:	8522                	mv	a0,s0
    3b58:	f51ff0ef          	jal	ra,3aa8 <lfs_tortoise_detectcycles>
    3b5c:	02054963          	bltz	a0,3b8e <lfs_fs_parent+0x7e>
    3b60:	000aa783          	lw	a5,0(s5)
    3b64:	00410893          	addi	a7,sp,4
    3b68:	546b0813          	addi	a6,s6,1350 # 2546 <lfs_fs_parent_match>
    3b6c:	c43e                	sw	a5,8(sp)
    3b6e:	004aa783          	lw	a5,4(s5)
    3b72:	8726                	mv	a4,s1
    3b74:	86ca                	mv	a3,s2
    3b76:	c63e                	sw	a5,12(sp)
    3b78:	864e                	mv	a2,s3
    3b7a:	4781                	li	a5,0
    3b7c:	85a2                	mv	a1,s0
    3b7e:	8552                	mv	a0,s4
    3b80:	c252                	sw	s4,4(sp)
    3b82:	931ff0ef          	jal	ra,34b2 <lfs_dir_fetchmatch>
    3b86:	00250793          	addi	a5,a0,2
    3b8a:	9bf5                	andi	a5,a5,-3
    3b8c:	dfd5                	beqz	a5,3b48 <lfs_fs_parent+0x38>
    3b8e:	6105                	addi	sp,sp,32
    3b90:	ebcfc06f          	j	24c <__riscv_restore_4>

00003b94 <lfs_fs_pred>:
    3b94:	e84fc2ef          	jal	t0,218 <__riscv_save_4>
    3b98:	1141                	addi	sp,sp,-16
    3b9a:	4785                	li	a5,1
    3b9c:	89ae                	mv	s3,a1
    3b9e:	65a9                	lui	a1,0xa
    3ba0:	8432                	mv	s0,a2
    3ba2:	00062c23          	sw	zero,24(a2)
    3ba6:	ce5c                	sw	a5,28(a2)
    3ba8:	892a                	mv	s2,a0
    3baa:	4641                	li	a2,16
    3bac:	65058593          	addi	a1,a1,1616 # a650 <_exit+0x4>
    3bb0:	850a                	mv	a0,sp
    3bb2:	268050ef          	jal	ra,8e1a <memcpy>
    3bb6:	01840493          	addi	s1,s0,24
    3bba:	8526                	mv	a0,s1
    3bbc:	c9efe0ef          	jal	ra,205a <lfs_pair_isnull>
    3bc0:	c119                	beqz	a0,3bc6 <lfs_fs_pred+0x32>
    3bc2:	5579                	li	a0,-2
    3bc4:	a015                	j	3be8 <lfs_fs_pred+0x54>
    3bc6:	858a                	mv	a1,sp
    3bc8:	8522                	mv	a0,s0
    3bca:	edfff0ef          	jal	ra,3aa8 <lfs_tortoise_detectcycles>
    3bce:	02054063          	bltz	a0,3bee <lfs_fs_pred+0x5a>
    3bd2:	85ce                	mv	a1,s3
    3bd4:	8526                	mv	a0,s1
    3bd6:	c9afe0ef          	jal	ra,2070 <lfs_pair_cmp>
    3bda:	c519                	beqz	a0,3be8 <lfs_fs_pred+0x54>
    3bdc:	8626                	mv	a2,s1
    3bde:	85a2                	mv	a1,s0
    3be0:	854a                	mv	a0,s2
    3be2:	d0dff0ef          	jal	ra,38ee <lfs_dir_fetch>
    3be6:	d971                	beqz	a0,3bba <lfs_fs_pred+0x26>
    3be8:	0141                	addi	sp,sp,16
    3bea:	e62fc06f          	j	24c <__riscv_restore_4>
    3bee:	fac00513          	li	a0,-84
    3bf2:	bfdd                	j	3be8 <lfs_fs_pred+0x54>

00003bf4 <lfs_file_flushedread>:
    3bf4:	e0efc2ef          	jal	t0,202 <__riscv_save_12>
    3bf8:	59dc                	lw	a5,52(a1)
    3bfa:	02c5a903          	lw	s2,44(a1)
    3bfe:	0d27fe63          	bgeu	a5,s2,3cda <lfs_file_flushedread+0xe6>
    3c02:	40f90933          	sub	s2,s2,a5
    3c06:	8aaa                	mv	s5,a0
    3c08:	842e                	mv	s0,a1
    3c0a:	89b2                	mv	s3,a2
    3c0c:	0126f363          	bgeu	a3,s2,3c12 <lfs_file_flushedread+0x1e>
    3c10:	8936                	mv	s2,a3
    3c12:	8dca                	mv	s11,s2
    3c14:	04040a13          	addi	s4,s0,64
    3c18:	5b79                	li	s6,-2
    3c1a:	03c40b93          	addi	s7,s0,60
    3c1e:	03840c13          	addi	s8,s0,56
    3c22:	00840c93          	addi	s9,s0,8
    3c26:	20100d37          	lui	s10,0x20100
    3c2a:	000d9463          	bnez	s11,3c32 <lfs_file_flushedread+0x3e>
    3c2e:	854a                	mv	a0,s2
    3c30:	a815                	j	3c64 <lfs_file_flushedread+0x70>
    3c32:	581c                	lw	a5,48(s0)
    3c34:	00c79713          	slli	a4,a5,0xc
    3c38:	00075863          	bgez	a4,3c48 <lfs_file_flushedread+0x54>
    3c3c:	068aa703          	lw	a4,104(s5)
    3c40:	5c54                	lw	a3,60(s0)
    3c42:	4f58                	lw	a4,28(a4)
    3c44:	02e69a63          	bne	a3,a4,3c78 <lfs_file_flushedread+0x84>
    3c48:	00779693          	slli	a3,a5,0x7
    3c4c:	5858                	lw	a4,52(s0)
    3c4e:	0006cd63          	bltz	a3,3c68 <lfs_file_flushedread+0x74>
    3c52:	5454                	lw	a3,44(s0)
    3c54:	5410                	lw	a2,40(s0)
    3c56:	885e                	mv	a6,s7
    3c58:	87e2                	mv	a5,s8
    3c5a:	85d2                	mv	a1,s4
    3c5c:	8556                	mv	a0,s5
    3c5e:	ea5fe0ef          	jal	ra,2b02 <lfs_ctz_find.constprop.41>
    3c62:	c511                	beqz	a0,3c6e <lfs_file_flushedread+0x7a>
    3c64:	ddafc06f          	j	23e <__riscv_restore_12>
    3c68:	03642c23          	sw	s6,56(s0)
    3c6c:	dc58                	sw	a4,60(s0)
    3c6e:	581c                	lw	a5,48(s0)
    3c70:	00080737          	lui	a4,0x80
    3c74:	8fd9                	or	a5,a5,a4
    3c76:	d81c                	sw	a5,48(s0)
    3c78:	068aa783          	lw	a5,104(s5)
    3c7c:	4fd4                	lw	a3,28(a5)
    3c7e:	5c5c                	lw	a5,60(s0)
    3c80:	40f684b3          	sub	s1,a3,a5
    3c84:	009df363          	bgeu	s11,s1,3c8a <lfs_file_flushedread+0x96>
    3c88:	84ee                	mv	s1,s11
    3c8a:	5818                	lw	a4,48(s0)
    3c8c:	00771613          	slli	a2,a4,0x7
    3c90:	02065c63          	bgez	a2,3cc8 <lfs_file_flushedread+0xd4>
    3c94:	205a                	lhu	a4,4(s0)
    3c96:	00978633          	add	a2,a5,s1
    3c9a:	072a                	slli	a4,a4,0xa
    3c9c:	01a76733          	or	a4,a4,s10
    3ca0:	02c6ef63          	bltu	a3,a2,3cde <lfs_file_flushedread+0xea>
    3ca4:	88a6                	mv	a7,s1
    3ca6:	884e                	mv	a6,s3
    3ca8:	8652                	mv	a2,s4
    3caa:	85e6                	mv	a1,s9
    3cac:	8556                	mv	a0,s5
    3cae:	eebfe0ef          	jal	ra,2b98 <lfs_dir_getread.part.31.constprop.43>
    3cb2:	f94d                	bnez	a0,3c64 <lfs_file_flushedread+0x70>
    3cb4:	585c                	lw	a5,52(s0)
    3cb6:	99a6                	add	s3,s3,s1
    3cb8:	409d8db3          	sub	s11,s11,s1
    3cbc:	97a6                	add	a5,a5,s1
    3cbe:	d85c                	sw	a5,52(s0)
    3cc0:	5c5c                	lw	a5,60(s0)
    3cc2:	97a6                	add	a5,a5,s1
    3cc4:	dc5c                	sw	a5,60(s0)
    3cc6:	b795                	j	3c2a <lfs_file_flushedread+0x36>
    3cc8:	5c18                	lw	a4,56(s0)
    3cca:	88a6                	mv	a7,s1
    3ccc:	884e                	mv	a6,s3
    3cce:	8652                	mv	a2,s4
    3cd0:	4581                	li	a1,0
    3cd2:	8556                	mv	a0,s5
    3cd4:	d0cfe0ef          	jal	ra,21e0 <lfs_bd_read>
    3cd8:	bfe9                	j	3cb2 <lfs_file_flushedread+0xbe>
    3cda:	4501                	li	a0,0
    3cdc:	b761                	j	3c64 <lfs_file_flushedread+0x70>
    3cde:	fac00513          	li	a0,-84
    3ce2:	b749                	j	3c64 <lfs_file_flushedread+0x70>

00003ce4 <lfs_fs_traverse_>:
    3ce4:	d26fc2ef          	jal	t0,20a <__riscv_save_10>
    3ce8:	7139                	addi	sp,sp,-64
    3cea:	84aa                	mv	s1,a0
    3cec:	892e                	mv	s2,a1
    3cee:	89b2                	mv	s3,a2
    3cf0:	4581                	li	a1,0
    3cf2:	4671                	li	a2,28
    3cf4:	1008                	addi	a0,sp,32
    3cf6:	8b36                	mv	s6,a3
    3cf8:	d6afc0ef          	jal	ra,262 <memset>
    3cfc:	65a9                	lui	a1,0xa
    3cfe:	4785                	li	a5,1
    3d00:	4641                	li	a2,16
    3d02:	65058593          	addi	a1,a1,1616 # a650 <_exit+0x4>
    3d06:	0808                	addi	a0,sp,16
    3d08:	20000a37          	lui	s4,0x20000
    3d0c:	70100ab7          	lui	s5,0x70100
    3d10:	de3e                	sw	a5,60(sp)
    3d12:	0a21                	addi	s4,s4,8
    3d14:	106050ef          	jal	ra,8e1a <memcpy>
    3d18:	c00a8a93          	addi	s5,s5,-1024 # 700ffc00 <_eusrstack+0x500f7c00>
    3d1c:	1828                	addi	a0,sp,56
    3d1e:	b3cfe0ef          	jal	ra,205a <lfs_pair_isnull>
    3d22:	cd01                	beqz	a0,3d3a <lfs_fs_traverse_+0x56>
    3d24:	5480                	lw	s0,40(s1)
    3d26:	4a05                	li	s4,1
    3d28:	00030ab7          	lui	s5,0x30
    3d2c:	01040b37          	lui	s6,0x1040
    3d30:	00040bb7          	lui	s7,0x40
    3d34:	e045                	bnez	s0,3dd4 <lfs_fs_traverse_+0xf0>
    3d36:	4501                	li	a0,0
    3d38:	a8bd                	j	3db6 <lfs_fs_traverse_+0xd2>
    3d3a:	080c                	addi	a1,sp,16
    3d3c:	1008                	addi	a0,sp,32
    3d3e:	d6bff0ef          	jal	ra,3aa8 <lfs_tortoise_detectcycles>
    3d42:	0e054563          	bltz	a0,3e2c <lfs_fs_traverse_+0x148>
    3d46:	55e2                	lw	a1,56(sp)
    3d48:	854e                	mv	a0,s3
    3d4a:	9902                	jalr	s2
    3d4c:	e52d                	bnez	a0,3db6 <lfs_fs_traverse_+0xd2>
    3d4e:	55f2                	lw	a1,60(sp)
    3d50:	854e                	mv	a0,s3
    3d52:	9902                	jalr	s2
    3d54:	e12d                	bnez	a0,3db6 <lfs_fs_traverse_+0xd2>
    3d56:	1830                	addi	a2,sp,56
    3d58:	100c                	addi	a1,sp,32
    3d5a:	8526                	mv	a0,s1
    3d5c:	b93ff0ef          	jal	ra,38ee <lfs_dir_fetch>
    3d60:	e939                	bnez	a0,3db6 <lfs_fs_traverse_+0xd2>
    3d62:	4401                	li	s0,0
    3d64:	20200b93          	li	s7,514
    3d68:	20000c13          	li	s8,512
    3d6c:	5cf9                	li	s9,-2
    3d6e:	03415783          	lhu	a5,52(sp)
    3d72:	faf475e3          	bgeu	s0,a5,3d1c <lfs_fs_traverse_+0x38>
    3d76:	00a41693          	slli	a3,s0,0xa
    3d7a:	0038                	addi	a4,sp,8
    3d7c:	0146e6b3          	or	a3,a3,s4
    3d80:	8656                	mv	a2,s5
    3d82:	100c                	addi	a1,sp,32
    3d84:	8526                	mv	a0,s1
    3d86:	f78fe0ef          	jal	ra,24fe <lfs_dir_get>
    3d8a:	00055863          	bgez	a0,3d9a <lfs_fs_traverse_+0xb6>
    3d8e:	03951463          	bne	a0,s9,3db6 <lfs_fs_traverse_+0xd2>
    3d92:	0405                	addi	s0,s0,1
    3d94:	0442                	slli	s0,s0,0x10
    3d96:	8041                	srli	s0,s0,0x10
    3d98:	bfd9                	j	3d6e <lfs_fs_traverse_+0x8a>
    3d9a:	8151                	srli	a0,a0,0x14
    3d9c:	03751063          	bne	a0,s7,3dbc <lfs_fs_traverse_+0xd8>
    3da0:	4732                	lw	a4,12(sp)
    3da2:	db65                	beqz	a4,3d92 <lfs_fs_traverse_+0xae>
    3da4:	46a2                	lw	a3,8(sp)
    3da6:	884e                	mv	a6,s3
    3da8:	87ca                	mv	a5,s2
    3daa:	8626                	mv	a2,s1
    3dac:	4581                	li	a1,0
    3dae:	8526                	mv	a0,s1
    3db0:	cdbfe0ef          	jal	ra,2a8a <lfs_ctz_traverse.part.30>
    3db4:	dd79                	beqz	a0,3d92 <lfs_fs_traverse_+0xae>
    3db6:	6121                	addi	sp,sp,64
    3db8:	c8afc06f          	j	242 <__riscv_restore_10>
    3dbc:	fc0b0be3          	beqz	s6,3d92 <lfs_fs_traverse_+0xae>
    3dc0:	fd8519e3          	bne	a0,s8,3d92 <lfs_fs_traverse_+0xae>
    3dc4:	45a2                	lw	a1,8(sp)
    3dc6:	854e                	mv	a0,s3
    3dc8:	9902                	jalr	s2
    3dca:	f575                	bnez	a0,3db6 <lfs_fs_traverse_+0xd2>
    3dcc:	45b2                	lw	a1,12(sp)
    3dce:	854e                	mv	a0,s3
    3dd0:	9902                	jalr	s2
    3dd2:	b7cd                	j	3db4 <lfs_fs_traverse_+0xd0>
    3dd4:	207c                	lbu	a5,6(s0)
    3dd6:	01478463          	beq	a5,s4,3dde <lfs_fs_traverse_+0xfa>
    3dda:	4000                	lw	s0,0(s0)
    3ddc:	bfa1                	j	3d34 <lfs_fs_traverse_+0x50>
    3dde:	581c                	lw	a5,48(s0)
    3de0:	0157f733          	and	a4,a5,s5
    3de4:	e31d                	bnez	a4,3e0a <lfs_fs_traverse_+0x126>
    3de6:	581c                	lw	a5,48(s0)
    3de8:	00fb77b3          	and	a5,s6,a5
    3dec:	ff7797e3          	bne	a5,s7,3dda <lfs_fs_traverse_+0xf6>
    3df0:	5858                	lw	a4,52(s0)
    3df2:	d765                	beqz	a4,3dda <lfs_fs_traverse_+0xf6>
    3df4:	5c14                	lw	a3,56(s0)
    3df6:	884e                	mv	a6,s3
    3df8:	87ca                	mv	a5,s2
    3dfa:	8626                	mv	a2,s1
    3dfc:	04040593          	addi	a1,s0,64
    3e00:	8526                	mv	a0,s1
    3e02:	c89fe0ef          	jal	ra,2a8a <lfs_ctz_traverse.part.30>
    3e06:	d971                	beqz	a0,3dda <lfs_fs_traverse_+0xf6>
    3e08:	b77d                	j	3db6 <lfs_fs_traverse_+0xd2>
    3e0a:	00779713          	slli	a4,a5,0x7
    3e0e:	fc074ce3          	bltz	a4,3de6 <lfs_fs_traverse_+0x102>
    3e12:	5458                	lw	a4,44(s0)
    3e14:	db69                	beqz	a4,3de6 <lfs_fs_traverse_+0x102>
    3e16:	5414                	lw	a3,40(s0)
    3e18:	884e                	mv	a6,s3
    3e1a:	87ca                	mv	a5,s2
    3e1c:	8626                	mv	a2,s1
    3e1e:	04040593          	addi	a1,s0,64
    3e22:	8526                	mv	a0,s1
    3e24:	c67fe0ef          	jal	ra,2a8a <lfs_ctz_traverse.part.30>
    3e28:	dd5d                	beqz	a0,3de6 <lfs_fs_traverse_+0x102>
    3e2a:	b771                	j	3db6 <lfs_fs_traverse_+0xd2>
    3e2c:	fac00513          	li	a0,-84
    3e30:	b759                	j	3db6 <lfs_fs_traverse_+0xd2>

00003e32 <lfs_alloc_scan>:
    3e32:	c00fc2ef          	jal	t0,232 <__riscv_save_0>
    3e36:	4d78                	lw	a4,92(a0)
    3e38:	497c                	lw	a5,84(a0)
    3e3a:	04052e23          	sw	zero,92(a0)
    3e3e:	842a                	mv	s0,a0
    3e40:	97ba                	add	a5,a5,a4
    3e42:	5578                	lw	a4,108(a0)
    3e44:	02e7f7b3          	remu	a5,a5,a4
    3e48:	5138                	lw	a4,96(a0)
    3e4a:	c97c                	sw	a5,84(a0)
    3e4c:	553c                	lw	a5,104(a0)
    3e4e:	57d0                	lw	a2,44(a5)
    3e50:	00361793          	slli	a5,a2,0x3
    3e54:	00f77363          	bgeu	a4,a5,3e5a <lfs_alloc_scan+0x28>
    3e58:	87ba                	mv	a5,a4
    3e5a:	5068                	lw	a0,100(s0)
    3e5c:	4581                	li	a1,0
    3e5e:	cc3c                	sw	a5,88(s0)
    3e60:	c02fc0ef          	jal	ra,262 <memset>
    3e64:	000025b7          	lui	a1,0x2
    3e68:	4685                	li	a3,1
    3e6a:	8622                	mv	a2,s0
    3e6c:	10a58593          	addi	a1,a1,266 # 210a <lfs_alloc_lookahead>
    3e70:	8522                	mv	a0,s0
    3e72:	e73ff0ef          	jal	ra,3ce4 <lfs_fs_traverse_>
    3e76:	c519                	beqz	a0,3e84 <lfs_alloc_scan+0x52>
    3e78:	547c                	lw	a5,108(s0)
    3e7a:	04042c23          	sw	zero,88(s0)
    3e7e:	04042e23          	sw	zero,92(s0)
    3e82:	d03c                	sw	a5,96(s0)
    3e84:	bd2fc06f          	j	256 <__riscv_restore_0>

00003e88 <lfs_alloc>:
    3e88:	baafc2ef          	jal	t0,232 <__riscv_save_0>
    3e8c:	1141                	addi	sp,sp,-16
    3e8e:	842a                	mv	s0,a0
    3e90:	4c38                	lw	a4,88(s0)
    3e92:	4c74                	lw	a3,92(s0)
    3e94:	02e6ed63          	bltu	a3,a4,3ece <lfs_alloc+0x46>
    3e98:	503c                	lw	a5,96(s0)
    3e9a:	e7c9                	bnez	a5,3f24 <lfs_alloc+0x9c>
    3e9c:	487c                	lw	a5,84(s0)
    3e9e:	0000b737          	lui	a4,0xb
    3ea2:	0000b5b7          	lui	a1,0xb
    3ea6:	96be                	add	a3,a3,a5
    3ea8:	547c                	lw	a5,108(s0)
    3eaa:	0000b537          	lui	a0,0xb
    3eae:	93c70713          	addi	a4,a4,-1732 # a93c <_exit+0x2f0>
    3eb2:	02f6f6b3          	remu	a3,a3,a5
    3eb6:	2c000613          	li	a2,704
    3eba:	73458593          	addi	a1,a1,1844 # b734 <defaults.4608+0xe8>
    3ebe:	65850513          	addi	a0,a0,1624 # b658 <defaults.4608+0xc>
    3ec2:	035050ef          	jal	ra,96f6 <iprintf>
    3ec6:	5511                	li	a0,-28
    3ec8:	0141                	addi	sp,sp,16
    3eca:	b8cfc06f          	j	256 <__riscv_restore_0>
    3ece:	5070                	lw	a2,100(s0)
    3ed0:	0036d793          	srli	a5,a3,0x3
    3ed4:	0076f513          	andi	a0,a3,7
    3ed8:	97b2                	add	a5,a5,a2
    3eda:	239c                	lbu	a5,0(a5)
    3edc:	00a7d7b3          	srl	a5,a5,a0
    3ee0:	8b85                	andi	a5,a5,1
    3ee2:	eb9d                	bnez	a5,3f18 <lfs_alloc+0x90>
    3ee4:	487c                	lw	a5,84(s0)
    3ee6:	96be                	add	a3,a3,a5
    3ee8:	547c                	lw	a5,108(s0)
    3eea:	02f6f6b3          	remu	a3,a3,a5
    3eee:	c194                	sw	a3,0(a1)
    3ef0:	4c34                	lw	a3,88(s0)
    3ef2:	4c7c                	lw	a5,92(s0)
    3ef4:	5038                	lw	a4,96(s0)
    3ef6:	0785                	addi	a5,a5,1
    3ef8:	177d                	addi	a4,a4,-1
    3efa:	cc7c                	sw	a5,92(s0)
    3efc:	d038                	sw	a4,96(s0)
    3efe:	00d7fb63          	bgeu	a5,a3,3f14 <lfs_alloc+0x8c>
    3f02:	0037d713          	srli	a4,a5,0x3
    3f06:	9732                	add	a4,a4,a2
    3f08:	2318                	lbu	a4,0(a4)
    3f0a:	8b9d                	andi	a5,a5,7
    3f0c:	00f757b3          	srl	a5,a4,a5
    3f10:	8b85                	andi	a5,a5,1
    3f12:	f3e5                	bnez	a5,3ef2 <lfs_alloc+0x6a>
    3f14:	4501                	li	a0,0
    3f16:	bf4d                	j	3ec8 <lfs_alloc+0x40>
    3f18:	503c                	lw	a5,96(s0)
    3f1a:	0685                	addi	a3,a3,1
    3f1c:	cc74                	sw	a3,92(s0)
    3f1e:	17fd                	addi	a5,a5,-1
    3f20:	d03c                	sw	a5,96(s0)
    3f22:	bf85                	j	3e92 <lfs_alloc+0xa>
    3f24:	8522                	mv	a0,s0
    3f26:	c62e                	sw	a1,12(sp)
    3f28:	f0bff0ef          	jal	ra,3e32 <lfs_alloc_scan>
    3f2c:	45b2                	lw	a1,12(sp)
    3f2e:	d12d                	beqz	a0,3e90 <lfs_alloc+0x8>
    3f30:	bf61                	j	3ec8 <lfs_alloc+0x40>

00003f32 <lfs_dir_alloc.part.34>:
    3f32:	b00fc2ef          	jal	t0,232 <__riscv_save_0>
    3f36:	842e                	mv	s0,a1
    3f38:	0591                	addi	a1,a1,4
    3f3a:	892a                	mv	s2,a0
    3f3c:	f4dff0ef          	jal	ra,3e88 <lfs_alloc>
    3f40:	84aa                	mv	s1,a0
    3f42:	e12d                	bnez	a0,3fa4 <lfs_dir_alloc.part.34+0x72>
    3f44:	85a2                	mv	a1,s0
    3f46:	854a                	mv	a0,s2
    3f48:	f41ff0ef          	jal	ra,3e88 <lfs_alloc>
    3f4c:	84aa                	mv	s1,a0
    3f4e:	e939                	bnez	a0,3fa4 <lfs_dir_alloc.part.34+0x72>
    3f50:	4018                	lw	a4,0(s0)
    3f52:	00042423          	sw	zero,8(s0)
    3f56:	4891                	li	a7,4
    3f58:	00840813          	addi	a6,s0,8
    3f5c:	4781                	li	a5,0
    3f5e:	4691                	li	a3,4
    3f60:	864a                	mv	a2,s2
    3f62:	4581                	li	a1,0
    3f64:	854a                	mv	a0,s2
    3f66:	a7afe0ef          	jal	ra,21e0 <lfs_bd_read>
    3f6a:	c509                	beqz	a0,3f74 <lfs_dir_alloc.part.34+0x42>
    3f6c:	fac00793          	li	a5,-84
    3f70:	02f51d63          	bne	a0,a5,3faa <lfs_dir_alloc.part.34+0x78>
    3f74:	06892783          	lw	a5,104(s2)
    3f78:	53dc                	lw	a5,36(a5)
    3f7a:	00f05d63          	blez	a5,3f94 <lfs_dir_alloc.part.34+0x62>
    3f7e:	4418                	lw	a4,8(s0)
    3f80:	0785                	addi	a5,a5,1
    3f82:	0017e793          	ori	a5,a5,1
    3f86:	177d                	addi	a4,a4,-1
    3f88:	973e                	add	a4,a4,a5
    3f8a:	02f777b3          	remu	a5,a4,a5
    3f8e:	40f707b3          	sub	a5,a4,a5
    3f92:	c41c                	sw	a5,8(s0)
    3f94:	4791                	li	a5,4
    3f96:	c45c                	sw	a5,12(s0)
    3f98:	57fd                	li	a5,-1
    3f9a:	c81c                	sw	a5,16(s0)
    3f9c:	00042a23          	sw	zero,20(s0)
    3fa0:	cc1c                	sw	a5,24(s0)
    3fa2:	cc5c                	sw	a5,28(s0)
    3fa4:	8526                	mv	a0,s1
    3fa6:	ab0fc06f          	j	256 <__riscv_restore_0>
    3faa:	84aa                	mv	s1,a0
    3fac:	bfe5                	j	3fa4 <lfs_dir_alloc.part.34+0x72>

00003fae <lfs_file_relocate>:
    3fae:	a5cfc2ef          	jal	t0,20a <__riscv_save_10>
    3fb2:	1141                	addi	sp,sp,-16
    3fb4:	842a                	mv	s0,a0
    3fb6:	84ae                	mv	s1,a1
    3fb8:	04058a13          	addi	s4,a1,64
    3fbc:	00858a93          	addi	s5,a1,8
    3fc0:	01050b13          	addi	s6,a0,16
    3fc4:	006c                	addi	a1,sp,12
    3fc6:	8522                	mv	a0,s0
    3fc8:	ec1ff0ef          	jal	ra,3e88 <lfs_alloc>
    3fcc:	89aa                	mv	s3,a0
    3fce:	e919                	bnez	a0,3fe4 <lfs_file_relocate+0x36>
    3fd0:	45b2                	lw	a1,12(sp)
    3fd2:	8522                	mv	a0,s0
    3fd4:	ddcfe0ef          	jal	ra,25b0 <lfs_bd_erase>
    3fd8:	89aa                	mv	s3,a0
    3fda:	c169                	beqz	a0,409c <lfs_file_relocate+0xee>
    3fdc:	fac00793          	li	a5,-84
    3fe0:	0cf50263          	beq	a0,a5,40a4 <lfs_file_relocate+0xf6>
    3fe4:	854e                	mv	a0,s3
    3fe6:	0141                	addi	sp,sp,16
    3fe8:	a5afc06f          	j	242 <__riscv_restore_10>
    3fec:	589c                	lw	a5,48(s1)
    3fee:	412686b3          	sub	a3,a3,s2
    3ff2:	00779713          	slli	a4,a5,0x7
    3ff6:	04075863          	bgez	a4,4046 <lfs_file_relocate+0x98>
    3ffa:	5430                	lw	a2,104(s0)
    3ffc:	20da                	lhu	a4,4(s1)
    3ffe:	00190793          	addi	a5,s2,1
    4002:	4e50                	lw	a2,28(a2)
    4004:	072a                	slli	a4,a4,0xa
    4006:	01776733          	or	a4,a4,s7
    400a:	08f66663          	bltu	a2,a5,4096 <lfs_file_relocate+0xe8>
    400e:	4885                	li	a7,1
    4010:	00b10813          	addi	a6,sp,11
    4014:	87ca                	mv	a5,s2
    4016:	8652                	mv	a2,s4
    4018:	85d6                	mv	a1,s5
    401a:	8522                	mv	a0,s0
    401c:	b7dfe0ef          	jal	ra,2b98 <lfs_dir_getread.part.31.constprop.43>
    4020:	e10d                	bnez	a0,4042 <lfs_file_relocate+0x94>
    4022:	4732                	lw	a4,12(sp)
    4024:	4885                	li	a7,1
    4026:	00b10813          	addi	a6,sp,11
    402a:	87ca                	mv	a5,s2
    402c:	4685                	li	a3,1
    402e:	8622                	mv	a2,s0
    4030:	85da                	mv	a1,s6
    4032:	8522                	mv	a0,s0
    4034:	836ff0ef          	jal	ra,306a <lfs_bd_prog>
    4038:	c115                	beqz	a0,405c <lfs_file_relocate+0xae>
    403a:	fac00793          	li	a5,-84
    403e:	06f50363          	beq	a0,a5,40a4 <lfs_file_relocate+0xf6>
    4042:	89aa                	mv	s3,a0
    4044:	b745                	j	3fe4 <lfs_file_relocate+0x36>
    4046:	5c98                	lw	a4,56(s1)
    4048:	4885                	li	a7,1
    404a:	00b10813          	addi	a6,sp,11
    404e:	87ca                	mv	a5,s2
    4050:	8622                	mv	a2,s0
    4052:	85d2                	mv	a1,s4
    4054:	8522                	mv	a0,s0
    4056:	98afe0ef          	jal	ra,21e0 <lfs_bd_read>
    405a:	b7d9                	j	4020 <lfs_file_relocate+0x72>
    405c:	0905                	addi	s2,s2,1
    405e:	5cd4                	lw	a3,60(s1)
    4060:	f8d966e3          	bltu	s2,a3,3fec <lfs_file_relocate+0x3e>
    4064:	543c                	lw	a5,104(s0)
    4066:	4c4c                	lw	a1,28(s0)
    4068:	44e8                	lw	a0,76(s1)
    406a:	5790                	lw	a2,40(a5)
    406c:	5af040ef          	jal	ra,8e1a <memcpy>
    4070:	481c                	lw	a5,16(s0)
    4072:	5428                	lw	a0,104(s0)
    4074:	01040593          	addi	a1,s0,16
    4078:	c0bc                	sw	a5,64(s1)
    407a:	485c                	lw	a5,20(s0)
    407c:	c0fc                	sw	a5,68(s1)
    407e:	4c1c                	lw	a5,24(s0)
    4080:	c4bc                	sw	a5,72(s1)
    4082:	de4fe0ef          	jal	ra,2666 <lfs_cache_zero.isra.27>
    4086:	47b2                	lw	a5,12(sp)
    4088:	00040737          	lui	a4,0x40
    408c:	dc9c                	sw	a5,56(s1)
    408e:	589c                	lw	a5,48(s1)
    4090:	8fd9                	or	a5,a5,a4
    4092:	d89c                	sw	a5,48(s1)
    4094:	bf81                	j	3fe4 <lfs_file_relocate+0x36>
    4096:	fac00513          	li	a0,-84
    409a:	b765                	j	4042 <lfs_file_relocate+0x94>
    409c:	4901                	li	s2,0
    409e:	20100bb7          	lui	s7,0x20100
    40a2:	bf75                	j	405e <lfs_file_relocate+0xb0>
    40a4:	46b2                	lw	a3,12(sp)
    40a6:	0000b737          	lui	a4,0xb
    40aa:	6605                	lui	a2,0x1
    40ac:	0000b5b7          	lui	a1,0xb
    40b0:	0000c537          	lui	a0,0xc
    40b4:	93c70713          	addi	a4,a4,-1732 # a93c <_exit+0x2f0>
    40b8:	d0360613          	addi	a2,a2,-765 # d03 <NVIC_Init+0x57>
    40bc:	73458593          	addi	a1,a1,1844 # b734 <defaults.4608+0xe8>
    40c0:	a2050513          	addi	a0,a0,-1504 # ba20 <defaults.4608+0x3d4>
    40c4:	632050ef          	jal	ra,96f6 <iprintf>
    40c8:	57fd                	li	a5,-1
    40ca:	c81c                	sw	a5,16(s0)
    40cc:	bde5                	j	3fc4 <lfs_file_relocate+0x16>

000040ce <lfs_dir_compact>:
    40ce:	93cfc2ef          	jal	t0,20a <__riscv_save_10>
    40d2:	89be                	mv	s3,a5
    40d4:	553c                	lw	a5,104(a0)
    40d6:	8bba                	mv	s7,a4
    40d8:	4598                	lw	a4,8(a1)
    40da:	53dc                	lw	a5,36(a5)
    40dc:	711d                	addi	sp,sp,-96
    40de:	842a                	mv	s0,a0
    40e0:	84ae                	mv	s1,a1
    40e2:	8ab2                	mv	s5,a2
    40e4:	8b36                	mv	s6,a3
    40e6:	8a42                	mv	s4,a6
    40e8:	0705                	addi	a4,a4,1
    40ea:	06f04063          	bgtz	a5,414a <lfs_dir_compact+0x7c>
    40ee:	c598                	sw	a4,8(a1)
    40f0:	4901                	li	s2,0
    40f2:	4c01                	li	s8,0
    40f4:	5438                	lw	a4,104(s0)
    40f6:	57fd                	li	a5,-1
    40f8:	40cc                	lw	a1,4(s1)
    40fa:	c8be                	sw	a5,80(sp)
    40fc:	cabe                	sw	a5,84(sp)
    40fe:	477c                	lw	a5,76(a4)
    4100:	c4ae                	sw	a1,72(sp)
    4102:	c682                	sw	zero,76(sp)
    4104:	cc82                	sw	zero,88(sp)
    4106:	c7bd                	beqz	a5,4174 <lfs_dir_compact+0xa6>
    4108:	17e1                	addi	a5,a5,-8
    410a:	8522                	mv	a0,s0
    410c:	cebe                	sw	a5,92(sp)
    410e:	ca2fe0ef          	jal	ra,25b0 <lfs_bd_erase>
    4112:	c13d                	beqz	a0,4178 <lfs_dir_compact+0xaa>
    4114:	fac00793          	li	a5,-84
    4118:	1af51163          	bne	a0,a5,42ba <lfs_dir_compact+0x1ec>
    411c:	57fd                	li	a5,-1
    411e:	c81c                	sw	a5,16(s0)
    4120:	1a091363          	bnez	s2,42c6 <lfs_dir_compact+0x1f8>
    4124:	40d4                	lw	a3,4(s1)
    4126:	0000b737          	lui	a4,0xb
    412a:	6605                	lui	a2,0x1
    412c:	0000b5b7          	lui	a1,0xb
    4130:	0000c537          	lui	a0,0xc
    4134:	93c70713          	addi	a4,a4,-1732 # a93c <_exit+0x2f0>
    4138:	83560613          	addi	a2,a2,-1995 # 835 <__stack_size+0x35>
    413c:	73458593          	addi	a1,a1,1844 # b734 <defaults.4608+0xe8>
    4140:	a2050513          	addi	a0,a0,-1504 # ba20 <defaults.4608+0x3d4>
    4144:	5b2050ef          	jal	ra,96f6 <iprintf>
    4148:	aabd                	j	42c6 <lfs_dir_compact+0x1f8>
    414a:	0785                	addi	a5,a5,1
    414c:	0017e793          	ori	a5,a5,1
    4150:	02f777b3          	remu	a5,a4,a5
    4154:	c598                	sw	a4,8(a1)
    4156:	ffc9                	bnez	a5,40f0 <lfs_dir_compact+0x22>
    4158:	4785                	li	a5,1
    415a:	104c                	addi	a1,sp,36
    415c:	8526                	mv	a0,s1
    415e:	d202                	sw	zero,36(sp)
    4160:	d43e                	sw	a5,40(sp)
    4162:	f0ffd0ef          	jal	ra,2070 <lfs_pair_cmp>
    4166:	14051d63          	bnez	a0,42c0 <lfs_dir_compact+0x1f2>
    416a:	4905                	li	s2,1
    416c:	b759                	j	40f2 <lfs_dir_compact+0x24>
    416e:	4901                	li	s2,0
    4170:	4c05                	li	s8,1
    4172:	b749                	j	40f4 <lfs_dir_compact+0x26>
    4174:	4f5c                	lw	a5,28(a4)
    4176:	bf49                	j	4108 <lfs_dir_compact+0x3a>
    4178:	04810c93          	addi	s9,sp,72
    417c:	4691                	li	a3,4
    417e:	00848613          	addi	a2,s1,8 # 20000008 <_data_vma+0x8>
    4182:	85e6                	mv	a1,s9
    4184:	8522                	mv	a0,s0
    4186:	fe5fe0ef          	jal	ra,316a <lfs_dir_commitprog>
    418a:	f549                	bnez	a0,4114 <lfs_dir_compact+0x46>
    418c:	107c                	addi	a5,sp,44
    418e:	c63e                	sw	a5,12(sp)
    4190:	000037b7          	lui	a5,0x3
    4194:	24878793          	addi	a5,a5,584 # 3248 <lfs_dir_commit_commit>
    4198:	c43e                	sw	a5,8(sp)
    419a:	413007b3          	neg	a5,s3
    419e:	07c2                	slli	a5,a5,0x10
    41a0:	87c1                	srai	a5,a5,0x10
    41a2:	40100837          	lui	a6,0x40100
    41a6:	c23e                	sw	a5,4(sp)
    41a8:	c052                	sw	s4,0(sp)
    41aa:	88ce                	mv	a7,s3
    41ac:	c0080813          	addi	a6,a6,-1024 # 400ffc00 <_eusrstack+0x200f7c00>
    41b0:	87da                	mv	a5,s6
    41b2:	8756                	mv	a4,s5
    41b4:	56fd                	li	a3,-1
    41b6:	4601                	li	a2,0
    41b8:	85de                	mv	a1,s7
    41ba:	8522                	mv	a0,s0
    41bc:	d622                	sw	s0,44(sp)
    41be:	d866                	sw	s9,48(sp)
    41c0:	a85fe0ef          	jal	ra,2c44 <lfs_dir_traverse.constprop.45>
    41c4:	f921                	bnez	a0,4114 <lfs_dir_compact+0x46>
    41c6:	01848693          	addi	a3,s1,24
    41ca:	8536                	mv	a0,a3
    41cc:	ce36                	sw	a3,28(sp)
    41ce:	e8dfd0ef          	jal	ra,205a <lfs_pair_isnull>
    41d2:	46f2                	lw	a3,28(sp)
    41d4:	ed19                	bnez	a0,41f2 <lfs_dir_compact+0x124>
    41d6:	38fc                	lbu	a5,23(s1)
    41d8:	00100637          	lui	a2,0x100
    41dc:	c0860613          	addi	a2,a2,-1016 # ffc08 <_data_lma+0xf34b4>
    41e0:	60078793          	addi	a5,a5,1536
    41e4:	07d2                	slli	a5,a5,0x14
    41e6:	8e5d                	or	a2,a2,a5
    41e8:	85e6                	mv	a1,s9
    41ea:	8522                	mv	a0,s0
    41ec:	fb9fe0ef          	jal	ra,31a4 <lfs_dir_commitattr>
    41f0:	f115                	bnez	a0,4114 <lfs_dir_compact+0x46>
    41f2:	de02                	sw	zero,60(sp)
    41f4:	c082                	sw	zero,64(sp)
    41f6:	c282                	sw	zero,68(sp)
    41f8:	000c1c63          	bnez	s8,4210 <lfs_dir_compact+0x142>
    41fc:	03c40593          	addi	a1,s0,60
    4200:	1868                	addi	a0,sp,60
    4202:	ea9fd0ef          	jal	ra,20aa <lfs_gstate_xor>
    4206:	03040593          	addi	a1,s0,48
    420a:	1868                	addi	a0,sp,60
    420c:	e9ffd0ef          	jal	ra,20aa <lfs_gstate_xor>
    4210:	04840593          	addi	a1,s0,72
    4214:	1868                	addi	a0,sp,60
    4216:	e95fd0ef          	jal	ra,20aa <lfs_gstate_xor>
    421a:	57f2                	lw	a5,60(sp)
    421c:	1870                	addi	a2,sp,60
    421e:	85a6                	mv	a1,s1
    4220:	c007f793          	andi	a5,a5,-1024
    4224:	8522                	mv	a0,s0
    4226:	de3e                	sw	a5,60(sp)
    4228:	aeafe0ef          	jal	ra,2512 <lfs_dir_getgstate>
    422c:	e559                	bnez	a0,42ba <lfs_dir_compact+0x1ec>
    422e:	1868                	addi	a0,sp,60
    4230:	e95fd0ef          	jal	ra,20c4 <lfs_gstate_iszero>
    4234:	ed01                	bnez	a0,424c <lfs_dir_compact+0x17e>
    4236:	80000637          	lui	a2,0x80000
    423a:	1874                	addi	a3,sp,60
    423c:	c0c64613          	xori	a2,a2,-1012
    4240:	85e6                	mv	a1,s9
    4242:	8522                	mv	a0,s0
    4244:	f61fe0ef          	jal	ra,31a4 <lfs_dir_commitattr>
    4248:	ec0516e3          	bnez	a0,4114 <lfs_dir_compact+0x46>
    424c:	85e6                	mv	a1,s9
    424e:	8522                	mv	a0,s0
    4250:	8a8ff0ef          	jal	ra,32f8 <lfs_dir_commitcrc>
    4254:	ec0510e3          	bnez	a0,4114 <lfs_dir_compact+0x46>
    4258:	543c                	lw	a5,104(s0)
    425a:	4736                	lw	a4,76(sp)
    425c:	4f9c                	lw	a5,24(a5)
    425e:	02f777b3          	remu	a5,a4,a5
    4262:	c38d                	beqz	a5,4284 <lfs_dir_compact+0x1b6>
    4264:	0000b6b7          	lui	a3,0xb
    4268:	662d                	lui	a2,0xb
    426a:	6585                	lui	a1,0x1
    426c:	0000b537          	lui	a0,0xb
    4270:	77868693          	addi	a3,a3,1912 # b778 <defaults.4608+0x12c>
    4274:	56c60613          	addi	a2,a2,1388 # b56c <__func__.4339>
    4278:	82358593          	addi	a1,a1,-2013 # 823 <__stack_size+0x23>
    427c:	73450513          	addi	a0,a0,1844 # b734 <defaults.4608+0xe8>
    4280:	2fb040ef          	jal	ra,8d7a <__assert_func>
    4284:	409c                	lw	a5,0(s1)
    4286:	40d4                	lw	a3,4(s1)
    4288:	413a09b3          	sub	s3,s4,s3
    428c:	c0dc                	sw	a5,4(s1)
    428e:	47c6                	lw	a5,80(sp)
    4290:	c094                	sw	a3,0(s1)
    4292:	01349a23          	sh	s3,20(s1)
    4296:	c4d8                	sw	a4,12(s1)
    4298:	c89c                	sw	a5,16(s1)
    429a:	04042423          	sw	zero,72(s0)
    429e:	04042623          	sw	zero,76(s0)
    42a2:	04042823          	sw	zero,80(s0)
    42a6:	000c1963          	bnez	s8,42b8 <lfs_dir_compact+0x1ea>
    42aa:	4631                	li	a2,12
    42ac:	03040593          	addi	a1,s0,48
    42b0:	03c40513          	addi	a0,s0,60
    42b4:	367040ef          	jal	ra,8e1a <memcpy>
    42b8:	8562                	mv	a0,s8
    42ba:	6125                	addi	sp,sp,96
    42bc:	f87fb06f          	j	242 <__riscv_restore_10>
    42c0:	57fd                	li	a5,-1
    42c2:	c81c                	sw	a5,16(s0)
    42c4:	4905                	li	s2,1
    42c6:	4785                	li	a5,1
    42c8:	184c                	addi	a1,sp,52
    42ca:	8526                	mv	a0,s1
    42cc:	da02                	sw	zero,52(sp)
    42ce:	dc3e                	sw	a5,56(sp)
    42d0:	da1fd0ef          	jal	ra,2070 <lfs_pair_cmp>
    42d4:	e50d                	bnez	a0,42fe <lfs_dir_compact+0x230>
    42d6:	40d4                	lw	a3,4(s1)
    42d8:	0000b737          	lui	a4,0xb
    42dc:	6605                	lui	a2,0x1
    42de:	0000b5b7          	lui	a1,0xb
    42e2:	0000b537          	lui	a0,0xb
    42e6:	93c70713          	addi	a4,a4,-1732 # a93c <_exit+0x2f0>
    42ea:	83b60613          	addi	a2,a2,-1989 # 83b <__stack_size+0x3b>
    42ee:	73458593          	addi	a1,a1,1844 # b734 <defaults.4608+0xe8>
    42f2:	7a050513          	addi	a0,a0,1952 # b7a0 <defaults.4608+0x154>
    42f6:	400050ef          	jal	ra,96f6 <iprintf>
    42fa:	5511                	li	a0,-28
    42fc:	bf7d                	j	42ba <lfs_dir_compact+0x1ec>
    42fe:	00448593          	addi	a1,s1,4
    4302:	8522                	mv	a0,s0
    4304:	b85ff0ef          	jal	ra,3e88 <lfs_alloc>
    4308:	e60503e3          	beqz	a0,416e <lfs_dir_compact+0xa0>
    430c:	5791                	li	a5,-28
    430e:	faf516e3          	bne	a0,a5,42ba <lfs_dir_compact+0x1ec>
    4312:	fa0904e3          	beqz	s2,42ba <lfs_dir_compact+0x1ec>
    4316:	8c4a                	mv	s8,s2
    4318:	4901                	li	s2,0
    431a:	bbe9                	j	40f4 <lfs_dir_compact+0x26>

0000431c <lfs_dir_split>:
    431c:	efdfb2ef          	jal	t0,218 <__riscv_save_4>
    4320:	7179                	addi	sp,sp,-48
    4322:	842e                	mv	s0,a1
    4324:	080c                	addi	a1,sp,16
    4326:	84aa                	mv	s1,a0
    4328:	c632                	sw	a2,12(sp)
    432a:	c436                	sw	a3,8(sp)
    432c:	c23a                	sw	a4,4(sp)
    432e:	8abe                	mv	s5,a5
    4330:	c042                	sw	a6,0(sp)
    4332:	c01ff0ef          	jal	ra,3f32 <lfs_dir_alloc.part.34>
    4336:	892a                	mv	s2,a0
    4338:	e539                	bnez	a0,4386 <lfs_dir_split+0x6a>
    433a:	387c                	lbu	a5,23(s0)
    433c:	4802                	lw	a6,0(sp)
    433e:	4712                	lw	a4,4(sp)
    4340:	02f103a3          	sb	a5,39(sp)
    4344:	4c1c                	lw	a5,24(s0)
    4346:	46a2                	lw	a3,8(sp)
    4348:	4632                	lw	a2,12(sp)
    434a:	d43e                	sw	a5,40(sp)
    434c:	4c5c                	lw	a5,28(s0)
    434e:	080c                	addi	a1,sp,16
    4350:	8526                	mv	a0,s1
    4352:	d63e                	sw	a5,44(sp)
    4354:	87d6                	mv	a5,s5
    4356:	d79ff0ef          	jal	ra,40ce <lfs_dir_compact>
    435a:	02054a63          	bltz	a0,438e <lfs_dir_split+0x72>
    435e:	4a42                	lw	s4,16(sp)
    4360:	49d2                	lw	s3,20(sp)
    4362:	4785                	li	a5,1
    4364:	01442c23          	sw	s4,24(s0)
    4368:	01342e23          	sw	s3,28(s0)
    436c:	b87c                	sb	a5,23(s0)
    436e:	02048593          	addi	a1,s1,32
    4372:	8522                	mv	a0,s0
    4374:	cfdfd0ef          	jal	ra,2070 <lfs_pair_cmp>
    4378:	e519                	bnez	a0,4386 <lfs_dir_split+0x6a>
    437a:	000a9663          	bnez	s5,4386 <lfs_dir_split+0x6a>
    437e:	0344a023          	sw	s4,32(s1)
    4382:	0334a223          	sw	s3,36(s1)
    4386:	854a                	mv	a0,s2
    4388:	6145                	addi	sp,sp,48
    438a:	ec3fb06f          	j	24c <__riscv_restore_4>
    438e:	892a                	mv	s2,a0
    4390:	bfdd                	j	4386 <lfs_dir_split+0x6a>

00004392 <lfs_fs_size_>:
    4392:	ea1fb2ef          	jal	t0,232 <__riscv_save_0>
    4396:	1141                	addi	sp,sp,-16
    4398:	000025b7          	lui	a1,0x2
    439c:	4681                	li	a3,0
    439e:	0070                	addi	a2,sp,12
    43a0:	1d658593          	addi	a1,a1,470 # 21d6 <lfs_fs_size_count>
    43a4:	c602                	sw	zero,12(sp)
    43a6:	93fff0ef          	jal	ra,3ce4 <lfs_fs_traverse_>
    43aa:	e111                	bnez	a0,43ae <lfs_fs_size_+0x1c>
    43ac:	4532                	lw	a0,12(sp)
    43ae:	0141                	addi	sp,sp,16
    43b0:	ea7fb06f          	j	256 <__riscv_restore_0>

000043b4 <lfs_dir_relocatingcommit>:
    43b4:	e4ffb2ef          	jal	t0,202 <__riscv_save_12>
    43b8:	892a                	mv	s2,a0
    43ba:	00371513          	slli	a0,a4,0x3
    43be:	8b32                	mv	s6,a2
    43c0:	715d                	addi	sp,sp,-80
    43c2:	84ae                	mv	s1,a1
    43c4:	89b6                	mv	s3,a3
    43c6:	8a3a                	mv	s4,a4
    43c8:	8636                	mv	a2,a3
    43ca:	9536                	add	a0,a0,a3
    43cc:	4801                	li	a6,0
    43ce:	40100313          	li	t1,1025
    43d2:	4ff00e13          	li	t3,1279
    43d6:	60000e93          	li	t4,1536
    43da:	28da                	lhu	a4,20(s1)
    43dc:	12c51f63          	bne	a0,a2,451a <lfs_dir_relocatingcommit+0x166>
    43e0:	18081d63          	bnez	a6,457a <lfs_dir_relocatingcommit+0x1c6>
    43e4:	28fc                	lbu	a5,22(s1)
    43e6:	1c079d63          	bnez	a5,45c0 <lfs_dir_relocatingcommit+0x20c>
    43ea:	0144db83          	lhu	s7,20(s1)
    43ee:	57fd                	li	a5,-1
    43f0:	00002c37          	lui	s8,0x2
    43f4:	40100cb7          	lui	s9,0x40100
    43f8:	00f92823          	sw	a5,16(s2)
    43fc:	4d05                	li	s10,1
    43fe:	03810d93          	addi	s11,sp,56
    4402:	1bec0c13          	addi	s8,s8,446 # 21be <lfs_dir_commit_size>
    4406:	c00c8c93          	addi	s9,s9,-1024 # 400ffc00 <_eusrstack+0x200f7c00>
    440a:	4a81                	li	s5,0
    440c:	415b8333          	sub	t1,s7,s5
    4410:	2e6d6d63          	bltu	s10,t1,470a <lfs_dir_relocatingcommit+0x356>
    4414:	040a8763          	beqz	s5,4462 <lfs_dir_relocatingcommit+0xae>
    4418:	0ac2                	slli	s5,s5,0x10
    441a:	010ada93          	srli	s5,s5,0x10
    441e:	885e                	mv	a6,s7
    4420:	87d6                	mv	a5,s5
    4422:	8726                	mv	a4,s1
    4424:	86d2                	mv	a3,s4
    4426:	864e                	mv	a2,s3
    4428:	85a6                	mv	a1,s1
    442a:	854a                	mv	a0,s2
    442c:	ef1ff0ef          	jal	ra,431c <lfs_dir_split>
    4430:	842a                	mv	s0,a0
    4432:	2c050a63          	beqz	a0,4706 <lfs_dir_relocatingcommit+0x352>
    4436:	5791                	li	a5,-28
    4438:	0cf51e63          	bne	a0,a5,4514 <lfs_dir_relocatingcommit+0x160>
    443c:	40d8                	lw	a4,4(s1)
    443e:	4094                	lw	a3,0(s1)
    4440:	0000b7b7          	lui	a5,0xb
    4444:	6605                	lui	a2,0x1
    4446:	0000b5b7          	lui	a1,0xb
    444a:	0000c537          	lui	a0,0xc
    444e:	93c78793          	addi	a5,a5,-1732 # a93c <_exit+0x2f0>
    4452:	88f60613          	addi	a2,a2,-1905 # 88f <SystemCoreClockUpdate+0x37>
    4456:	73458593          	addi	a1,a1,1844 # b734 <defaults.4608+0xe8>
    445a:	8ec50513          	addi	a0,a0,-1812 # b8ec <defaults.4608+0x2a0>
    445e:	298050ef          	jal	ra,96f6 <iprintf>
    4462:	06892783          	lw	a5,104(s2)
    4466:	53dc                	lw	a5,36(a5)
    4468:	08f05c63          	blez	a5,4500 <lfs_dir_relocatingcommit+0x14c>
    446c:	4498                	lw	a4,8(s1)
    446e:	0785                	addi	a5,a5,1
    4470:	0017e793          	ori	a5,a5,1
    4474:	0705                	addi	a4,a4,1
    4476:	02f777b3          	remu	a5,a4,a5
    447a:	e3d9                	bnez	a5,4500 <lfs_dir_relocatingcommit+0x14c>
    447c:	4785                	li	a5,1
    447e:	182c                	addi	a1,sp,56
    4480:	8526                	mv	a0,s1
    4482:	dc02                	sw	zero,56(sp)
    4484:	de3e                	sw	a5,60(sp)
    4486:	bebfd0ef          	jal	ra,2070 <lfs_pair_cmp>
    448a:	e93d                	bnez	a0,4500 <lfs_dir_relocatingcommit+0x14c>
    448c:	854a                	mv	a0,s2
    448e:	f05ff0ef          	jal	ra,4392 <lfs_fs_size_>
    4492:	842a                	mv	s0,a0
    4494:	10054d63          	bltz	a0,45ae <lfs_dir_relocatingcommit+0x1fa>
    4498:	06c92783          	lw	a5,108(s2)
    449c:	40a78433          	sub	s0,a5,a0
    44a0:	838d                	srli	a5,a5,0x3
    44a2:	0487ff63          	bgeu	a5,s0,4500 <lfs_dir_relocatingcommit+0x14c>
    44a6:	4494                	lw	a3,8(s1)
    44a8:	0000bcb7          	lui	s9,0xb
    44ac:	6c05                	lui	s8,0x1
    44ae:	0000bab7          	lui	s5,0xb
    44b2:	0000c537          	lui	a0,0xc
    44b6:	93cc8713          	addi	a4,s9,-1732 # a93c <_exit+0x2f0>
    44ba:	8a4c0613          	addi	a2,s8,-1884 # 8a4 <SystemCoreClockUpdate+0x4c>
    44be:	734a8593          	addi	a1,s5,1844 # b734 <defaults.4608+0xe8>
    44c2:	91c50513          	addi	a0,a0,-1764 # b91c <defaults.4608+0x2d0>
    44c6:	230050ef          	jal	ra,96f6 <iprintf>
    44ca:	885e                	mv	a6,s7
    44cc:	4781                	li	a5,0
    44ce:	8726                	mv	a4,s1
    44d0:	86d2                	mv	a3,s4
    44d2:	864e                	mv	a2,s3
    44d4:	85a6                	mv	a1,s1
    44d6:	854a                	mv	a0,s2
    44d8:	e45ff0ef          	jal	ra,431c <lfs_dir_split>
    44dc:	842a                	mv	s0,a0
    44de:	28050f63          	beqz	a0,477c <lfs_dir_relocatingcommit+0x3c8>
    44e2:	5791                	li	a5,-28
    44e4:	02f51863          	bne	a0,a5,4514 <lfs_dir_relocatingcommit+0x160>
    44e8:	0000c537          	lui	a0,0xc
    44ec:	93cc8693          	addi	a3,s9,-1732
    44f0:	8aec0613          	addi	a2,s8,-1874
    44f4:	734a8593          	addi	a1,s5,1844
    44f8:	94c50513          	addi	a0,a0,-1716 # b94c <defaults.4608+0x300>
    44fc:	1fa050ef          	jal	ra,96f6 <iprintf>
    4500:	885e                	mv	a6,s7
    4502:	4781                	li	a5,0
    4504:	8726                	mv	a4,s1
    4506:	86d2                	mv	a3,s4
    4508:	864e                	mv	a2,s3
    450a:	85a6                	mv	a1,s1
    450c:	854a                	mv	a0,s2
    450e:	bc1ff0ef          	jal	ra,40ce <lfs_dir_compact>
    4512:	842a                	mv	s0,a0
    4514:	1a045f63          	bgez	s0,46d2 <lfs_dir_relocatingcommit+0x31e>
    4518:	a859                	j	45ae <lfs_dir_relocatingcommit+0x1fa>
    451a:	4214                	lw	a3,0(a2)
    451c:	82d1                	srli	a3,a3,0x14
    451e:	01069593          	slli	a1,a3,0x10
    4522:	81c1                	srli	a1,a1,0x10
    4524:	7ff5f893          	andi	a7,a1,2047
    4528:	00689663          	bne	a7,t1,4534 <lfs_dir_relocatingcommit+0x180>
    452c:	0705                	addi	a4,a4,1
    452e:	a8da                	sh	a4,20(s1)
    4530:	0621                	addi	a2,a2,8
    4532:	b565                	j	43da <lfs_dir_relocatingcommit+0x26>
    4534:	03c89763          	bne	a7,t3,4562 <lfs_dir_relocatingcommit+0x1ae>
    4538:	e30d                	bnez	a4,455a <lfs_dir_relocatingcommit+0x1a6>
    453a:	0000c6b7          	lui	a3,0xc
    453e:	662d                	lui	a2,0xb
    4540:	6585                	lui	a1,0x1
    4542:	8d468693          	addi	a3,a3,-1836 # b8d4 <defaults.4608+0x288>
    4546:	57c60613          	addi	a2,a2,1404 # b57c <__func__.4379>
    454a:	8c758593          	addi	a1,a1,-1849 # 8c7 <SystemCoreClockUpdate+0x6f>
    454e:	0000b537          	lui	a0,0xb
    4552:	73450513          	addi	a0,a0,1844 # b734 <defaults.4608+0xe8>
    4556:	025040ef          	jal	ra,8d7a <__assert_func>
    455a:	177d                	addi	a4,a4,-1
    455c:	a8da                	sh	a4,20(s1)
    455e:	4805                	li	a6,1
    4560:	bfc1                	j	4530 <lfs_dir_relocatingcommit+0x17c>
    4562:	7005f593          	andi	a1,a1,1792
    4566:	fdd595e3          	bne	a1,t4,4530 <lfs_dir_relocatingcommit+0x17c>
    456a:	4258                	lw	a4,4(a2)
    456c:	8a85                	andi	a3,a3,1
    456e:	430c                	lw	a1,0(a4)
    4570:	cc8c                	sw	a1,24(s1)
    4572:	4358                	lw	a4,4(a4)
    4574:	b8f4                	sb	a3,23(s1)
    4576:	ccd8                	sw	a4,28(s1)
    4578:	bf65                	j	4530 <lfs_dir_relocatingcommit+0x17c>
    457a:	e60715e3          	bnez	a4,43e4 <lfs_dir_relocatingcommit+0x30>
    457e:	ef81                	bnez	a5,4596 <lfs_dir_relocatingcommit+0x1e2>
    4580:	0000c6b7          	lui	a3,0xc
    4584:	662d                	lui	a2,0xb
    4586:	6585                	lui	a1,0x1
    4588:	8e468693          	addi	a3,a3,-1820 # b8e4 <defaults.4608+0x298>
    458c:	57c60613          	addi	a2,a2,1404 # b57c <__func__.4379>
    4590:	8d458593          	addi	a1,a1,-1836 # 8d4 <SystemCoreClockUpdate+0x7c>
    4594:	bf6d                	j	454e <lfs_dir_relocatingcommit+0x19a>
    4596:	863e                	mv	a2,a5
    4598:	85a6                	mv	a1,s1
    459a:	854a                	mv	a0,s2
    459c:	cc3e                	sw	a5,24(sp)
    459e:	df6ff0ef          	jal	ra,3b94 <lfs_fs_pred>
    45a2:	842a                	mv	s0,a0
    45a4:	47e2                	lw	a5,24(sp)
    45a6:	c901                	beqz	a0,45b6 <lfs_dir_relocatingcommit+0x202>
    45a8:	57f9                	li	a5,-2
    45aa:	e2f50de3          	beq	a0,a5,43e4 <lfs_dir_relocatingcommit+0x30>
    45ae:	8522                	mv	a0,s0
    45b0:	6161                	addi	sp,sp,80
    45b2:	c8dfb06f          	j	23e <__riscv_restore_12>
    45b6:	3bfc                	lbu	a5,23(a5)
    45b8:	e20786e3          	beqz	a5,43e4 <lfs_dir_relocatingcommit+0x30>
    45bc:	4409                	li	s0,2
    45be:	aa11                	j	46d2 <lfs_dir_relocatingcommit+0x31e>
    45c0:	28da                	lhu	a4,20(s1)
    45c2:	0fe00793          	li	a5,254
    45c6:	e2e7e2e3          	bltu	a5,a4,43ea <lfs_dir_relocatingcommit+0x36>
    45ca:	409c                	lw	a5,0(s1)
    45cc:	06892703          	lw	a4,104(s2)
    45d0:	44d0                	lw	a2,12(s1)
    45d2:	dc3e                	sw	a5,56(sp)
    45d4:	4894                	lw	a3,16(s1)
    45d6:	57fd                	li	a5,-1
    45d8:	c2be                	sw	a5,68(sp)
    45da:	477c                	lw	a5,76(a4)
    45dc:	de32                	sw	a2,60(sp)
    45de:	c0b6                	sw	a3,64(sp)
    45e0:	c4b2                	sw	a2,72(sp)
    45e2:	c3b1                	beqz	a5,4626 <lfs_dir_relocatingcommit+0x272>
    45e4:	17e1                	addi	a5,a5,-8
    45e6:	c6be                	sw	a5,76(sp)
    45e8:	105c                	addi	a5,sp,36
    45ea:	c63e                	sw	a5,12(sp)
    45ec:	000037b7          	lui	a5,0x3
    45f0:	24878793          	addi	a5,a5,584 # 3248 <lfs_dir_commit_commit>
    45f4:	c43e                	sw	a5,8(sp)
    45f6:	03810a93          	addi	s5,sp,56
    45fa:	c202                	sw	zero,4(sp)
    45fc:	c002                	sw	zero,0(sp)
    45fe:	4881                	li	a7,0
    4600:	4801                	li	a6,0
    4602:	87d2                	mv	a5,s4
    4604:	874e                	mv	a4,s3
    4606:	85a6                	mv	a1,s1
    4608:	854a                	mv	a0,s2
    460a:	d24a                	sw	s2,36(sp)
    460c:	d456                	sw	s5,40(sp)
    460e:	e36fe0ef          	jal	ra,2c44 <lfs_dir_traverse.constprop.45>
    4612:	842a                	mv	s0,a0
    4614:	c919                	beqz	a0,462a <lfs_dir_relocatingcommit+0x276>
    4616:	5791                	li	a5,-28
    4618:	dcf409e3          	beq	s0,a5,43ea <lfs_dir_relocatingcommit+0x36>
    461c:	fac00793          	li	a5,-84
    4620:	f8f417e3          	bne	s0,a5,45ae <lfs_dir_relocatingcommit+0x1fa>
    4624:	b3d9                	j	43ea <lfs_dir_relocatingcommit+0x36>
    4626:	4f5c                	lw	a5,28(a4)
    4628:	bf75                	j	45e4 <lfs_dir_relocatingcommit+0x230>
    462a:	03090c13          	addi	s8,s2,48
    462e:	85e2                	mv	a1,s8
    4630:	1068                	addi	a0,sp,44
    4632:	d602                	sw	zero,44(sp)
    4634:	d802                	sw	zero,48(sp)
    4636:	da02                	sw	zero,52(sp)
    4638:	03c90b93          	addi	s7,s2,60
    463c:	a6ffd0ef          	jal	ra,20aa <lfs_gstate_xor>
    4640:	85de                	mv	a1,s7
    4642:	1068                	addi	a0,sp,44
    4644:	a67fd0ef          	jal	ra,20aa <lfs_gstate_xor>
    4648:	1068                	addi	a0,sp,44
    464a:	04890593          	addi	a1,s2,72
    464e:	a5dfd0ef          	jal	ra,20aa <lfs_gstate_xor>
    4652:	57b2                	lw	a5,44(sp)
    4654:	1068                	addi	a0,sp,44
    4656:	c007f793          	andi	a5,a5,-1024
    465a:	d63e                	sw	a5,44(sp)
    465c:	a69fd0ef          	jal	ra,20c4 <lfs_gstate_iszero>
    4660:	e11d                	bnez	a0,4686 <lfs_dir_relocatingcommit+0x2d2>
    4662:	1070                	addi	a2,sp,44
    4664:	85a6                	mv	a1,s1
    4666:	854a                	mv	a0,s2
    4668:	eabfd0ef          	jal	ra,2512 <lfs_dir_getgstate>
    466c:	842a                	mv	s0,a0
    466e:	f121                	bnez	a0,45ae <lfs_dir_relocatingcommit+0x1fa>
    4670:	80000637          	lui	a2,0x80000
    4674:	1074                	addi	a3,sp,44
    4676:	c0c64613          	xori	a2,a2,-1012
    467a:	85d6                	mv	a1,s5
    467c:	854a                	mv	a0,s2
    467e:	b27fe0ef          	jal	ra,31a4 <lfs_dir_commitattr>
    4682:	842a                	mv	s0,a0
    4684:	f949                	bnez	a0,4616 <lfs_dir_relocatingcommit+0x262>
    4686:	85d6                	mv	a1,s5
    4688:	854a                	mv	a0,s2
    468a:	c6ffe0ef          	jal	ra,32f8 <lfs_dir_commitcrc>
    468e:	842a                	mv	s0,a0
    4690:	f159                	bnez	a0,4616 <lfs_dir_relocatingcommit+0x262>
    4692:	06892783          	lw	a5,104(s2)
    4696:	5772                	lw	a4,60(sp)
    4698:	4f9c                	lw	a5,24(a5)
    469a:	02f777b3          	remu	a5,a4,a5
    469e:	cf81                	beqz	a5,46b6 <lfs_dir_relocatingcommit+0x302>
    46a0:	0000b6b7          	lui	a3,0xb
    46a4:	662d                	lui	a2,0xb
    46a6:	6585                	lui	a1,0x1
    46a8:	77868693          	addi	a3,a3,1912 # b778 <defaults.4608+0x12c>
    46ac:	57c60613          	addi	a2,a2,1404 # b57c <__func__.4379>
    46b0:	91e58593          	addi	a1,a1,-1762 # 91e <SystemCoreClockUpdate+0xc6>
    46b4:	bd69                	j	454e <lfs_dir_relocatingcommit+0x19a>
    46b6:	4786                	lw	a5,64(sp)
    46b8:	c4d8                	sw	a4,12(s1)
    46ba:	4631                	li	a2,12
    46bc:	c89c                	sw	a5,16(s1)
    46be:	85e2                	mv	a1,s8
    46c0:	855e                	mv	a0,s7
    46c2:	758040ef          	jal	ra,8e1a <memcpy>
    46c6:	04092423          	sw	zero,72(s2)
    46ca:	04092623          	sw	zero,76(s2)
    46ce:	04092823          	sw	zero,80(s2)
    46d2:	000b2783          	lw	a5,0(s6) # 1040000 <_data_lma+0x10338ac>
    46d6:	02892c83          	lw	s9,40(s2)
    46da:	40100d13          	li	s10,1025
    46de:	d63e                	sw	a5,44(sp)
    46e0:	004b2783          	lw	a5,4(s6)
    46e4:	4b89                	li	s7,2
    46e6:	02090d93          	addi	s11,s2,32
    46ea:	d83e                	sw	a5,48(sp)
    46ec:	ec0c81e3          	beqz	s9,45ae <lfs_dir_relocatingcommit+0x1fa>
    46f0:	008c8a93          	addi	s5,s9,8
    46f4:	106c                	addi	a1,sp,44
    46f6:	8556                	mv	a0,s5
    46f8:	979fd0ef          	jal	ra,2070 <lfs_pair_cmp>
    46fc:	8c2a                	mv	s8,a0
    46fe:	c149                	beqz	a0,4780 <lfs_dir_relocatingcommit+0x3cc>
    4700:	000cac83          	lw	s9,0(s9)
    4704:	b7e5                	j	46ec <lfs_dir_relocatingcommit+0x338>
    4706:	8bd6                	mv	s7,s5
    4708:	b309                	j	440a <lfs_dir_relocatingcommit+0x56>
    470a:	010a9893          	slli	a7,s5,0x10
    470e:	0108d893          	srli	a7,a7,0x10
    4712:	411007b3          	neg	a5,a7
    4716:	07c2                	slli	a5,a5,0x10
    4718:	87c1                	srai	a5,a5,0x10
    471a:	c23e                	sw	a5,4(sp)
    471c:	c66e                	sw	s11,12(sp)
    471e:	c462                	sw	s8,8(sp)
    4720:	c05e                	sw	s7,0(sp)
    4722:	8866                	mv	a6,s9
    4724:	87d2                	mv	a5,s4
    4726:	874e                	mv	a4,s3
    4728:	56fd                	li	a3,-1
    472a:	4601                	li	a2,0
    472c:	85a6                	mv	a1,s1
    472e:	854a                	mv	a0,s2
    4730:	cc1a                	sw	t1,24(sp)
    4732:	dc02                	sw	zero,56(sp)
    4734:	d10fe0ef          	jal	ra,2c44 <lfs_dir_traverse.constprop.45>
    4738:	842a                	mv	s0,a0
    473a:	dc051de3          	bnez	a0,4514 <lfs_dir_relocatingcommit+0x160>
    473e:	06892783          	lw	a5,104(s2)
    4742:	4362                	lw	t1,24(sp)
    4744:	0fe00e13          	li	t3,254
    4748:	47f8                	lw	a4,76(a5)
    474a:	e311                	bnez	a4,474e <lfs_dir_relocatingcommit+0x39a>
    474c:	4fd8                	lw	a4,28(a5)
    474e:	026e6363          	bltu	t3,t1,4774 <lfs_dir_relocatingcommit+0x3c0>
    4752:	4f94                	lw	a3,24(a5)
    4754:	00175613          	srli	a2,a4,0x1
    4758:	fd870713          	addi	a4,a4,-40
    475c:	fff68793          	addi	a5,a3,-1
    4760:	97b2                	add	a5,a5,a2
    4762:	02d7f6b3          	remu	a3,a5,a3
    4766:	8f95                	sub	a5,a5,a3
    4768:	00f77363          	bgeu	a4,a5,476e <lfs_dir_relocatingcommit+0x3ba>
    476c:	87ba                	mv	a5,a4
    476e:	5762                	lw	a4,56(sp)
    4770:	cae7f2e3          	bgeu	a5,a4,4414 <lfs_dir_relocatingcommit+0x60>
    4774:	00135313          	srli	t1,t1,0x1
    4778:	9a9a                	add	s5,s5,t1
    477a:	b949                	j	440c <lfs_dir_relocatingcommit+0x58>
    477c:	4b85                	li	s7,1
    477e:	b349                	j	4500 <lfs_dir_relocatingcommit+0x14c>
    4780:	85a6                	mv	a1,s1
    4782:	02000613          	li	a2,32
    4786:	8556                	mv	a0,s5
    4788:	692040ef          	jal	ra,8e1a <memcpy>
    478c:	55fd                	li	a1,-1
    478e:	076a9b63          	bne	s5,s6,4804 <lfs_dir_relocatingcommit+0x450>
    4792:	020c8c13          	addi	s8,s9,32
    4796:	004cd703          	lhu	a4,4(s9)
    479a:	01ccd683          	lhu	a3,28(s9)
    479e:	f6d761e3          	bltu	a4,a3,4700 <lfs_dir_relocatingcommit+0x34c>
    47a2:	01fcc603          	lbu	a2,31(s9)
    47a6:	de29                	beqz	a2,4700 <lfs_dir_relocatingcommit+0x34c>
    47a8:	85ee                	mv	a1,s11
    47aa:	8562                	mv	a0,s8
    47ac:	ce36                	sw	a3,28(sp)
    47ae:	cc3a                	sw	a4,24(sp)
    47b0:	8c1fd0ef          	jal	ra,2070 <lfs_pair_cmp>
    47b4:	c511                	beqz	a0,47c0 <lfs_dir_relocatingcommit+0x40c>
    47b6:	4762                	lw	a4,24(sp)
    47b8:	46f2                	lw	a3,28(sp)
    47ba:	8f15                	sub	a4,a4,a3
    47bc:	00ec9223          	sh	a4,4(s9)
    47c0:	8662                	mv	a2,s8
    47c2:	85d6                	mv	a1,s5
    47c4:	854a                	mv	a0,s2
    47c6:	928ff0ef          	jal	ra,38ee <lfs_dir_fetch>
    47ca:	d571                	beqz	a0,4796 <lfs_dir_relocatingcommit+0x3e2>
    47cc:	842a                	mv	s0,a0
    47ce:	b3c5                	j	45ae <lfs_dir_relocatingcommit+0x1fa>
    47d0:	003c1713          	slli	a4,s8,0x3
    47d4:	974e                	add	a4,a4,s3
    47d6:	4318                	lw	a4,0(a4)
    47d8:	4ff00793          	li	a5,1279
    47dc:	01475613          	srli	a2,a4,0x14
    47e0:	7ff67613          	andi	a2,a2,2047
    47e4:	04f61463          	bne	a2,a5,482c <lfs_dir_relocatingcommit+0x478>
    47e8:	8329                	srli	a4,a4,0xa
    47ea:	3ff77713          	andi	a4,a4,1023
    47ee:	02d71063          	bne	a4,a3,480e <lfs_dir_relocatingcommit+0x45a>
    47f2:	006cc703          	lbu	a4,6(s9)
    47f6:	01770663          	beq	a4,s7,4802 <lfs_dir_relocatingcommit+0x44e>
    47fa:	00bca423          	sw	a1,8(s9)
    47fe:	00bca623          	sw	a1,12(s9)
    4802:	0c05                	addi	s8,s8,1
    4804:	004cd683          	lhu	a3,4(s9)
    4808:	fd4c14e3          	bne	s8,s4,47d0 <lfs_dir_relocatingcommit+0x41c>
    480c:	b759                	j	4792 <lfs_dir_relocatingcommit+0x3de>
    480e:	fed77ae3          	bgeu	a4,a3,4802 <lfs_dir_relocatingcommit+0x44e>
    4812:	006cc703          	lbu	a4,6(s9)
    4816:	16fd                	addi	a3,a3,-1
    4818:	00dc9223          	sh	a3,4(s9)
    481c:	ff7713e3          	bne	a4,s7,4802 <lfs_dir_relocatingcommit+0x44e>
    4820:	028ca703          	lw	a4,40(s9)
    4824:	177d                	addi	a4,a4,-1
    4826:	02eca423          	sw	a4,40(s9)
    482a:	bfe1                	j	4802 <lfs_dir_relocatingcommit+0x44e>
    482c:	fda61be3          	bne	a2,s10,4802 <lfs_dir_relocatingcommit+0x44e>
    4830:	8329                	srli	a4,a4,0xa
    4832:	3ff77713          	andi	a4,a4,1023
    4836:	fce6e6e3          	bltu	a3,a4,4802 <lfs_dir_relocatingcommit+0x44e>
    483a:	006cc703          	lbu	a4,6(s9)
    483e:	0685                	addi	a3,a3,1
    4840:	00dc9223          	sh	a3,4(s9)
    4844:	fb771fe3          	bne	a4,s7,4802 <lfs_dir_relocatingcommit+0x44e>
    4848:	028ca703          	lw	a4,40(s9)
    484c:	0705                	addi	a4,a4,1
    484e:	bfe1                	j	4826 <lfs_dir_relocatingcommit+0x472>

00004850 <lfs_file_flushedwrite>:
    4850:	9b3fb2ef          	jal	t0,202 <__riscv_save_12>
    4854:	599c                	lw	a5,48(a1)
    4856:	1101                	addi	sp,sp,-32
    4858:	8c2a                	mv	s8,a0
    485a:	00779713          	slli	a4,a5,0x7
    485e:	8cae                	mv	s9,a1
    4860:	8a32                	mv	s4,a2
    4862:	89b6                	mv	s3,a3
    4864:	04075063          	bgez	a4,48a4 <lfs_file_flushedwrite+0x54>
    4868:	59d8                	lw	a4,52(a1)
    486a:	55d4                	lw	a3,44(a1)
    486c:	013707b3          	add	a5,a4,s3
    4870:	00d7f363          	bgeu	a5,a3,4876 <lfs_file_flushedwrite+0x26>
    4874:	87b6                	mv	a5,a3
    4876:	07cc2683          	lw	a3,124(s8)
    487a:	02f6f563          	bgeu	a3,a5,48a4 <lfs_file_flushedwrite+0x54>
    487e:	06cc2783          	lw	a5,108(s8)
    4882:	02ecae23          	sw	a4,60(s9)
    4886:	85e6                	mv	a1,s9
    4888:	06fc2023          	sw	a5,96(s8)
    488c:	8562                	mv	a0,s8
    488e:	f20ff0ef          	jal	ra,3fae <lfs_file_relocate>
    4892:	030ca783          	lw	a5,48(s9)
    4896:	e13d                	bnez	a0,48fc <lfs_file_flushedwrite+0xac>
    4898:	ff000737          	lui	a4,0xff000
    489c:	177d                	addi	a4,a4,-1
    489e:	8ff9                	and	a5,a5,a4
    48a0:	02fca823          	sw	a5,48(s9)
    48a4:	844e                	mv	s0,s3
    48a6:	e019                	bnez	s0,48ac <lfs_file_flushedwrite+0x5c>
    48a8:	854e                	mv	a0,s3
    48aa:	a8b1                	j	4906 <lfs_file_flushedwrite+0xb6>
    48ac:	030ca683          	lw	a3,48(s9)
    48b0:	000407b7          	lui	a5,0x40
    48b4:	040c8493          	addi	s1,s9,64
    48b8:	8ff5                	and	a5,a5,a3
    48ba:	cb81                	beqz	a5,48ca <lfs_file_flushedwrite+0x7a>
    48bc:	068c2703          	lw	a4,104(s8)
    48c0:	03cca603          	lw	a2,60(s9)
    48c4:	4f58                	lw	a4,28(a4)
    48c6:	0ce61663          	bne	a2,a4,4992 <lfs_file_flushedwrite+0x142>
    48ca:	00769613          	slli	a2,a3,0x7
    48ce:	034ca703          	lw	a4,52(s9)
    48d2:	1c064663          	bltz	a2,4a9e <lfs_file_flushedwrite+0x24e>
    48d6:	e3a1                	bnez	a5,4916 <lfs_file_flushedwrite+0xc6>
    48d8:	cf1d                	beqz	a4,4916 <lfs_file_flushedwrite+0xc6>
    48da:	02cca683          	lw	a3,44(s9)
    48de:	028ca603          	lw	a2,40(s9)
    48e2:	01010813          	addi	a6,sp,16
    48e6:	038c8793          	addi	a5,s9,56
    48ea:	177d                	addi	a4,a4,-1
    48ec:	85a6                	mv	a1,s1
    48ee:	8562                	mv	a0,s8
    48f0:	c802                	sw	zero,16(sp)
    48f2:	a10fe0ef          	jal	ra,2b02 <lfs_ctz_find.constprop.41>
    48f6:	c919                	beqz	a0,490c <lfs_file_flushedwrite+0xbc>
    48f8:	030ca783          	lw	a5,48(s9)
    48fc:	00100737          	lui	a4,0x100
    4900:	8fd9                	or	a5,a5,a4
    4902:	02fca823          	sw	a5,48(s9)
    4906:	6105                	addi	sp,sp,32
    4908:	937fb06f          	j	23e <__riscv_restore_12>
    490c:	068c2503          	lw	a0,104(s8)
    4910:	85a6                	mv	a1,s1
    4912:	d55fd0ef          	jal	ra,2666 <lfs_cache_zero.isra.27>
    4916:	06cc2783          	lw	a5,108(s8)
    491a:	034cab03          	lw	s6,52(s9)
    491e:	038caa83          	lw	s5,56(s9)
    4922:	06fc2023          	sw	a5,96(s8)
    4926:	fffb0d93          	addi	s11,s6,-1
    492a:	084c                	addi	a1,sp,20
    492c:	8562                	mv	a0,s8
    492e:	d5aff0ef          	jal	ra,3e88 <lfs_alloc>
    4932:	f179                	bnez	a0,48f8 <lfs_file_flushedwrite+0xa8>
    4934:	45d2                	lw	a1,20(sp)
    4936:	8562                	mv	a0,s8
    4938:	c79fd0ef          	jal	ra,25b0 <lfs_bd_erase>
    493c:	c91d                	beqz	a0,4972 <lfs_file_flushedwrite+0x122>
    493e:	fac00793          	li	a5,-84
    4942:	faf51be3          	bne	a0,a5,48f8 <lfs_file_flushedwrite+0xa8>
    4946:	0000b7b7          	lui	a5,0xb
    494a:	93c78713          	addi	a4,a5,-1732 # a93c <_exit+0x2f0>
    494e:	46d2                	lw	a3,20(sp)
    4950:	0000b7b7          	lui	a5,0xb
    4954:	73478593          	addi	a1,a5,1844 # b734 <defaults.4608+0xe8>
    4958:	6605                	lui	a2,0x1
    495a:	0000c7b7          	lui	a5,0xc
    495e:	a2078513          	addi	a0,a5,-1504 # ba20 <defaults.4608+0x3d4>
    4962:	bc560613          	addi	a2,a2,-1083 # bc5 <ADC_BufferCmd+0x3>
    4966:	591040ef          	jal	ra,96f6 <iprintf>
    496a:	57fd                	li	a5,-1
    496c:	04fca023          	sw	a5,64(s9)
    4970:	bf6d                	j	492a <lfs_file_flushedwrite+0xda>
    4972:	068c2503          	lw	a0,104(s8)
    4976:	060b1163          	bnez	s6,49d8 <lfs_file_flushedwrite+0x188>
    497a:	47d2                	lw	a5,20(sp)
    497c:	020cae23          	sw	zero,60(s9)
    4980:	02fcac23          	sw	a5,56(s9)
    4984:	030ca783          	lw	a5,48(s9)
    4988:	00040737          	lui	a4,0x40
    498c:	8fd9                	or	a5,a5,a4
    498e:	02fca823          	sw	a5,48(s9)
    4992:	068c2783          	lw	a5,104(s8)
    4996:	01c7a903          	lw	s2,28(a5)
    499a:	03cca783          	lw	a5,60(s9)
    499e:	40f90933          	sub	s2,s2,a5
    49a2:	01247363          	bgeu	s0,s2,49a8 <lfs_file_flushedwrite+0x158>
    49a6:	8922                	mv	s2,s0
    49a8:	fac00a93          	li	s5,-84
    49ac:	03cca783          	lw	a5,60(s9)
    49b0:	038ca703          	lw	a4,56(s9)
    49b4:	88ca                	mv	a7,s2
    49b6:	8852                	mv	a6,s4
    49b8:	4685                	li	a3,1
    49ba:	8662                	mv	a2,s8
    49bc:	85a6                	mv	a1,s1
    49be:	8562                	mv	a0,s8
    49c0:	eaafe0ef          	jal	ra,306a <lfs_bd_prog>
    49c4:	0e050363          	beqz	a0,4aaa <lfs_file_flushedwrite+0x25a>
    49c8:	f35518e3          	bne	a0,s5,48f8 <lfs_file_flushedwrite+0xa8>
    49cc:	85e6                	mv	a1,s9
    49ce:	8562                	mv	a0,s8
    49d0:	ddeff0ef          	jal	ra,3fae <lfs_file_relocate>
    49d4:	dd61                	beqz	a0,49ac <lfs_file_flushedwrite+0x15c>
    49d6:	b70d                	j	48f8 <lfs_file_flushedwrite+0xa8>
    49d8:	082c                	addi	a1,sp,24
    49da:	cc6e                	sw	s11,24(sp)
    49dc:	866fe0ef          	jal	ra,2a42 <lfs_ctz_index.isra.29>
    49e0:	068c2703          	lw	a4,104(s8)
    49e4:	47e2                	lw	a5,24(sp)
    49e6:	4901                	li	s2,0
    49e8:	4f58                	lw	a4,28(a4)
    49ea:	0785                	addi	a5,a5,1
    49ec:	cc3e                	sw	a5,24(sp)
    49ee:	08e79263          	bne	a5,a4,4a72 <lfs_file_flushedwrite+0x222>
    49f2:	0505                	addi	a0,a0,1
    49f4:	1c7010ef          	jal	ra,63ba <__ctzsi2>
    49f8:	8baa                	mv	s7,a0
    49fa:	00150913          	addi	s2,a0,1
    49fe:	ce56                	sw	s5,28(sp)
    4a00:	4d01                	li	s10,0
    4a02:	4752                	lw	a4,20(sp)
    4a04:	002d1f13          	slli	t5,s10,0x2
    4a08:	87fa                	mv	a5,t5
    4a0a:	4891                	li	a7,4
    4a0c:	01c10813          	addi	a6,sp,28
    4a10:	4685                	li	a3,1
    4a12:	8662                	mv	a2,s8
    4a14:	85a6                	mv	a1,s1
    4a16:	8562                	mv	a0,s8
    4a18:	c67a                	sw	t5,12(sp)
    4a1a:	e50fe0ef          	jal	ra,306a <lfs_bd_prog>
    4a1e:	4f32                	lw	t5,12(sp)
    4a20:	fd19                	bnez	a0,493e <lfs_file_flushedwrite+0xee>
    4a22:	07ab9163          	bne	s7,s10,4a84 <lfs_file_flushedwrite+0x234>
    4a26:	0d05                	addi	s10,s10,1
    4a28:	fd2d6de3          	bltu	s10,s2,4a02 <lfs_file_flushedwrite+0x1b2>
    4a2c:	47d2                	lw	a5,20(sp)
    4a2e:	090a                	slli	s2,s2,0x2
    4a30:	032cae23          	sw	s2,60(s9)
    4a34:	02fcac23          	sw	a5,56(s9)
    4a38:	b7b1                	j	4984 <lfs_file_flushedwrite+0x134>
    4a3a:	4885                	li	a7,1
    4a3c:	01c10813          	addi	a6,sp,28
    4a40:	87ca                	mv	a5,s2
    4a42:	8756                	mv	a4,s5
    4a44:	412686b3          	sub	a3,a3,s2
    4a48:	8662                	mv	a2,s8
    4a4a:	4581                	li	a1,0
    4a4c:	8562                	mv	a0,s8
    4a4e:	f92fd0ef          	jal	ra,21e0 <lfs_bd_read>
    4a52:	ea0513e3          	bnez	a0,48f8 <lfs_file_flushedwrite+0xa8>
    4a56:	4752                	lw	a4,20(sp)
    4a58:	4885                	li	a7,1
    4a5a:	01c10813          	addi	a6,sp,28
    4a5e:	87ca                	mv	a5,s2
    4a60:	4685                	li	a3,1
    4a62:	8662                	mv	a2,s8
    4a64:	85a6                	mv	a1,s1
    4a66:	8562                	mv	a0,s8
    4a68:	e02fe0ef          	jal	ra,306a <lfs_bd_prog>
    4a6c:	ec0519e3          	bnez	a0,493e <lfs_file_flushedwrite+0xee>
    4a70:	0905                	addi	s2,s2,1
    4a72:	46e2                	lw	a3,24(sp)
    4a74:	fcd963e3          	bltu	s2,a3,4a3a <lfs_file_flushedwrite+0x1ea>
    4a78:	47d2                	lw	a5,20(sp)
    4a7a:	02dcae23          	sw	a3,60(s9)
    4a7e:	02fcac23          	sw	a5,56(s9)
    4a82:	b709                	j	4984 <lfs_file_flushedwrite+0x134>
    4a84:	4772                	lw	a4,28(sp)
    4a86:	4891                	li	a7,4
    4a88:	01c10813          	addi	a6,sp,28
    4a8c:	87fa                	mv	a5,t5
    4a8e:	4691                	li	a3,4
    4a90:	8662                	mv	a2,s8
    4a92:	4581                	li	a1,0
    4a94:	8562                	mv	a0,s8
    4a96:	f4afd0ef          	jal	ra,21e0 <lfs_bd_read>
    4a9a:	d551                	beqz	a0,4a26 <lfs_file_flushedwrite+0x1d6>
    4a9c:	bdb1                	j	48f8 <lfs_file_flushedwrite+0xa8>
    4a9e:	57f9                	li	a5,-2
    4aa0:	02fcac23          	sw	a5,56(s9)
    4aa4:	02ecae23          	sw	a4,60(s9)
    4aa8:	bdf1                	j	4984 <lfs_file_flushedwrite+0x134>
    4aaa:	034ca783          	lw	a5,52(s9)
    4aae:	9a4a                	add	s4,s4,s2
    4ab0:	41240433          	sub	s0,s0,s2
    4ab4:	97ca                	add	a5,a5,s2
    4ab6:	02fcaa23          	sw	a5,52(s9)
    4aba:	03cca783          	lw	a5,60(s9)
    4abe:	97ca                	add	a5,a5,s2
    4ac0:	02fcae23          	sw	a5,60(s9)
    4ac4:	06cc2783          	lw	a5,108(s8)
    4ac8:	06fc2023          	sw	a5,96(s8)
    4acc:	bbe9                	j	48a6 <lfs_file_flushedwrite+0x56>

00004ace <lfs_file_flush>:
    4ace:	f3cfb2ef          	jal	t0,20a <__riscv_save_10>
    4ad2:	599c                	lw	a5,48(a1)
    4ad4:	711d                	addi	sp,sp,-96
    4ad6:	84aa                	mv	s1,a0
    4ad8:	00c79713          	slli	a4,a5,0xc
    4adc:	00075d63          	bgez	a4,4af6 <lfs_file_flush+0x28>
    4ae0:	00779713          	slli	a4,a5,0x7
    4ae4:	00074463          	bltz	a4,4aec <lfs_file_flush+0x1e>
    4ae8:	577d                	li	a4,-1
    4aea:	c1b8                	sw	a4,64(a1)
    4aec:	fff80737          	lui	a4,0xfff80
    4af0:	177d                	addi	a4,a4,-1
    4af2:	8ff9                	and	a5,a5,a4
    4af4:	d99c                	sw	a5,48(a1)
    4af6:	599c                	lw	a5,48(a1)
    4af8:	4501                	li	a0,0
    4afa:	00d79713          	slli	a4,a5,0xd
    4afe:	08075863          	bgez	a4,4b8e <lfs_file_flush+0xc0>
    4b02:	00779713          	slli	a4,a5,0x7
    4b06:	842e                	mv	s0,a1
    4b08:	0345a903          	lw	s2,52(a1)
    4b0c:	02c5a983          	lw	s3,44(a1)
    4b10:	0a074b63          	bltz	a4,4bc6 <lfs_file_flush+0xf8>
    4b14:	05400613          	li	a2,84
    4b18:	4581                	li	a1,0
    4b1a:	0068                	addi	a0,sp,12
    4b1c:	f46fb0ef          	jal	ra,262 <memset>
    4b20:	541c                	lw	a5,40(s0)
    4b22:	4641                	li	a2,16
    4b24:	85a6                	mv	a1,s1
    4b26:	da3e                	sw	a5,52(sp)
    4b28:	00e8                	addi	a0,sp,76
    4b2a:	4785                	li	a5,1
    4b2c:	dc4e                	sw	s3,56(sp)
    4b2e:	de3e                	sw	a5,60(sp)
    4b30:	c0ca                	sw	s2,64(sp)
    4b32:	2e8040ef          	jal	ra,8e1a <memcpy>
    4b36:	57fd                	li	a5,-1
    4b38:	c09c                	sw	a5,0(s1)
    4b3a:	59fd                	li	s3,-1
    4b3c:	5858                	lw	a4,52(s0)
    4b3e:	545c                	lw	a5,44(s0)
    4b40:	04f76a63          	bltu	a4,a5,4b94 <lfs_file_flush+0xc6>
    4b44:	6985                	lui	s3,0x1
    4b46:	04040b93          	addi	s7,s0,64
    4b4a:	fac00c13          	li	s8,-84
    4b4e:	0000bb37          	lui	s6,0xb
    4b52:	d5298993          	addi	s3,s3,-686 # d52 <RCC_GetClocksFreq+0x38>
    4b56:	0000bab7          	lui	s5,0xb
    4b5a:	0000ca37          	lui	s4,0xc
    4b5e:	4685                	li	a3,1
    4b60:	8626                	mv	a2,s1
    4b62:	85de                	mv	a1,s7
    4b64:	8526                	mv	a0,s1
    4b66:	c48fe0ef          	jal	ra,2fae <lfs_bd_flush>
    4b6a:	c13d                	beqz	a0,4bd0 <lfs_file_flush+0x102>
    4b6c:	03851163          	bne	a0,s8,4b8e <lfs_file_flush+0xc0>
    4b70:	5c14                	lw	a3,56(s0)
    4b72:	734a8593          	addi	a1,s5,1844 # b734 <defaults.4608+0xe8>
    4b76:	93cb0713          	addi	a4,s6,-1732 # a93c <_exit+0x2f0>
    4b7a:	864e                	mv	a2,s3
    4b7c:	a20a0513          	addi	a0,s4,-1504 # ba20 <defaults.4608+0x3d4>
    4b80:	377040ef          	jal	ra,96f6 <iprintf>
    4b84:	85a2                	mv	a1,s0
    4b86:	8526                	mv	a0,s1
    4b88:	c26ff0ef          	jal	ra,3fae <lfs_file_relocate>
    4b8c:	d969                	beqz	a0,4b5e <lfs_file_flush+0x90>
    4b8e:	6125                	addi	sp,sp,96
    4b90:	eb2fb06f          	j	242 <__riscv_restore_10>
    4b94:	4685                	li	a3,1
    4b96:	00b10613          	addi	a2,sp,11
    4b9a:	006c                	addi	a1,sp,12
    4b9c:	8526                	mv	a0,s1
    4b9e:	856ff0ef          	jal	ra,3bf4 <lfs_file_flushedread>
    4ba2:	fe0546e3          	bltz	a0,4b8e <lfs_file_flush+0xc0>
    4ba6:	4685                	li	a3,1
    4ba8:	00b10613          	addi	a2,sp,11
    4bac:	85a2                	mv	a1,s0
    4bae:	8526                	mv	a0,s1
    4bb0:	ca1ff0ef          	jal	ra,4850 <lfs_file_flushedwrite>
    4bb4:	fc054de3          	bltz	a0,4b8e <lfs_file_flush+0xc0>
    4bb8:	409c                	lw	a5,0(s1)
    4bba:	f93781e3          	beq	a5,s3,4b3c <lfs_file_flush+0x6e>
    4bbe:	c6ce                	sw	s3,76(sp)
    4bc0:	0134a023          	sw	s3,0(s1)
    4bc4:	bfa5                	j	4b3c <lfs_file_flush+0x6e>
    4bc6:	87ca                	mv	a5,s2
    4bc8:	01397363          	bgeu	s2,s3,4bce <lfs_file_flush+0x100>
    4bcc:	87ce                	mv	a5,s3
    4bce:	d85c                	sw	a5,52(s0)
    4bd0:	5c1c                	lw	a5,56(s0)
    4bd2:	fffc0737          	lui	a4,0xfffc0
    4bd6:	177d                	addi	a4,a4,-1
    4bd8:	d41c                	sw	a5,40(s0)
    4bda:	585c                	lw	a5,52(s0)
    4bdc:	4501                	li	a0,0
    4bde:	03242a23          	sw	s2,52(s0)
    4be2:	d45c                	sw	a5,44(s0)
    4be4:	581c                	lw	a5,48(s0)
    4be6:	8ff9                	and	a5,a5,a4
    4be8:	6741                	lui	a4,0x10
    4bea:	8fd9                	or	a5,a5,a4
    4bec:	d81c                	sw	a5,48(s0)
    4bee:	b745                	j	4b8e <lfs_file_flush+0xc0>

00004bf0 <lfs_file_seek_>:
    4bf0:	e28fb2ef          	jal	t0,218 <__riscv_save_4>
    4bf4:	1141                	addi	sp,sp,-16
    4bf6:	892a                	mv	s2,a0
    4bf8:	59dc                	lw	a5,52(a1)
    4bfa:	8432                	mv	s0,a2
    4bfc:	c695                	beqz	a3,4c28 <lfs_file_seek_+0x38>
    4bfe:	4705                	li	a4,1
    4c00:	00f60433          	add	s0,a2,a5
    4c04:	02e68263          	beq	a3,a4,4c28 <lfs_file_seek_+0x38>
    4c08:	4709                	li	a4,2
    4c0a:	843e                	mv	s0,a5
    4c0c:	00e69e63          	bne	a3,a4,4c28 <lfs_file_seek_+0x38>
    4c10:	5994                	lw	a3,48(a1)
    4c12:	55d8                	lw	a4,44(a1)
    4c14:	00d69513          	slli	a0,a3,0xd
    4c18:	843a                	mv	s0,a4
    4c1a:	00055663          	bgez	a0,4c26 <lfs_file_seek_+0x36>
    4c1e:	843e                	mv	s0,a5
    4c20:	00e7f363          	bgeu	a5,a4,4c26 <lfs_file_seek_+0x36>
    4c24:	843a                	mv	s0,a4
    4c26:	9432                	add	s0,s0,a2
    4c28:	07492703          	lw	a4,116(s2)
    4c2c:	5529                	li	a0,-22
    4c2e:	00876563          	bltu	a4,s0,4c38 <lfs_file_seek_+0x48>
    4c32:	00f41663          	bne	s0,a5,4c3e <lfs_file_seek_+0x4e>
    4c36:	8522                	mv	a0,s0
    4c38:	0141                	addi	sp,sp,16
    4c3a:	e12fb06f          	j	24c <__riscv_restore_4>
    4c3e:	5998                	lw	a4,48(a1)
    4c40:	84ae                	mv	s1,a1
    4c42:	00c71693          	slli	a3,a4,0xc
    4c46:	0406d063          	bgez	a3,4c86 <lfs_file_seek_+0x96>
    4c4a:	06892503          	lw	a0,104(s2)
    4c4e:	5dd4                	lw	a3,60(a1)
    4c50:	4d58                	lw	a4,28(a0)
    4c52:	02e68a63          	beq	a3,a4,4c86 <lfs_file_seek_+0x96>
    4c56:	002c                	addi	a1,sp,8
    4c58:	c43e                	sw	a5,8(sp)
    4c5a:	de9fd0ef          	jal	ra,2a42 <lfs_ctz_index.isra.29>
    4c5e:	89aa                	mv	s3,a0
    4c60:	06892503          	lw	a0,104(s2)
    4c64:	006c                	addi	a1,sp,12
    4c66:	c622                	sw	s0,12(sp)
    4c68:	ddbfd0ef          	jal	ra,2a42 <lfs_ctz_index.isra.29>
    4c6c:	00a99d63          	bne	s3,a0,4c86 <lfs_file_seek_+0x96>
    4c70:	40fc                	lw	a5,68(s1)
    4c72:	4732                	lw	a4,12(sp)
    4c74:	00f76963          	bltu	a4,a5,4c86 <lfs_file_seek_+0x96>
    4c78:	44b4                	lw	a3,72(s1)
    4c7a:	97b6                	add	a5,a5,a3
    4c7c:	00f77563          	bgeu	a4,a5,4c86 <lfs_file_seek_+0x96>
    4c80:	d8c0                	sw	s0,52(s1)
    4c82:	dcd8                	sw	a4,60(s1)
    4c84:	bf4d                	j	4c36 <lfs_file_seek_+0x46>
    4c86:	85a6                	mv	a1,s1
    4c88:	854a                	mv	a0,s2
    4c8a:	e45ff0ef          	jal	ra,4ace <lfs_file_flush>
    4c8e:	f54d                	bnez	a0,4c38 <lfs_file_seek_+0x48>
    4c90:	d8c0                	sw	s0,52(s1)
    4c92:	b755                	j	4c36 <lfs_file_seek_+0x46>

00004c94 <lfs_dir_orphaningcommit>:
    4c94:	d6efb2ef          	jal	t0,202 <__riscv_save_12>
    4c98:	02852983          	lw	s3,40(a0)
    4c9c:	ff000a37          	lui	s4,0xff000
    4ca0:	7119                	addi	sp,sp,-128
    4ca2:	842a                	mv	s0,a0
    4ca4:	892e                	mv	s2,a1
    4ca6:	8ab2                	mv	s5,a2
    4ca8:	8b36                	mv	s6,a3
    4caa:	4b85                	li	s7,1
    4cac:	1a7d                	addi	s4,s4,-1
    4cae:	0c099563          	bnez	s3,4d78 <lfs_dir_orphaningcommit+0xe4>
    4cb2:	00092783          	lw	a5,0(s2)
    4cb6:	02000613          	li	a2,32
    4cba:	85ca                	mv	a1,s2
    4cbc:	c43e                	sw	a5,8(sp)
    4cbe:	00492783          	lw	a5,4(s2)
    4cc2:	0088                	addi	a0,sp,64
    4cc4:	c63e                	sw	a5,12(sp)
    4cc6:	154040ef          	jal	ra,8e1a <memcpy>
    4cca:	109c                	addi	a5,sp,96
    4ccc:	875a                	mv	a4,s6
    4cce:	86d6                	mv	a3,s5
    4cd0:	864a                	mv	a2,s2
    4cd2:	008c                	addi	a1,sp,64
    4cd4:	8522                	mv	a0,s0
    4cd6:	edeff0ef          	jal	ra,43b4 <lfs_dir_relocatingcommit>
    4cda:	84aa                	mv	s1,a0
    4cdc:	10054163          	bltz	a0,4dde <lfs_dir_orphaningcommit+0x14a>
    4ce0:	002c                	addi	a1,sp,8
    4ce2:	854a                	mv	a0,s2
    4ce4:	b8cfd0ef          	jal	ra,2070 <lfs_pair_cmp>
    4ce8:	e519                	bnez	a0,4cf6 <lfs_dir_orphaningcommit+0x62>
    4cea:	02000613          	li	a2,32
    4cee:	008c                	addi	a1,sp,64
    4cf0:	854a                	mv	a0,s2
    4cf2:	128040ef          	jal	ra,8e1a <memcpy>
    4cf6:	4789                	li	a5,2
    4cf8:	04f49c63          	bne	s1,a5,4d50 <lfs_dir_orphaningcommit+0xbc>
    4cfc:	04840613          	addi	a2,s0,72
    4d00:	85ca                	mv	a1,s2
    4d02:	8522                	mv	a0,s0
    4d04:	80ffd0ef          	jal	ra,2512 <lfs_dir_getgstate>
    4d08:	84aa                	mv	s1,a0
    4d0a:	e971                	bnez	a0,4dde <lfs_dir_orphaningcommit+0x14a>
    4d0c:	5786                	lw	a5,96(sp)
    4d0e:	00100737          	lui	a4,0x100
    4d12:	c0870713          	addi	a4,a4,-1016 # ffc08 <_data_lma+0xf34b4>
    4d16:	c43e                	sw	a5,8(sp)
    4d18:	5796                	lw	a5,100(sp)
    4d1a:	0961                	addi	s2,s2,24
    4d1c:	0814                	addi	a3,sp,16
    4d1e:	c63e                	sw	a5,12(sp)
    4d20:	fff94783          	lbu	a5,-1(s2)
    4d24:	0030                	addi	a2,sp,8
    4d26:	108c                	addi	a1,sp,96
    4d28:	60078793          	addi	a5,a5,1536
    4d2c:	07d2                	slli	a5,a5,0x14
    4d2e:	8fd9                	or	a5,a5,a4
    4d30:	c83e                	sw	a5,16(sp)
    4d32:	4705                	li	a4,1
    4d34:	4781                	li	a5,0
    4d36:	8522                	mv	a0,s0
    4d38:	ca4a                	sw	s2,20(sp)
    4d3a:	e7aff0ef          	jal	ra,43b4 <lfs_dir_relocatingcommit>
    4d3e:	84aa                	mv	s1,a0
    4d40:	08054f63          	bltz	a0,4dde <lfs_dir_orphaningcommit+0x14a>
    4d44:	02000613          	li	a2,32
    4d48:	108c                	addi	a1,sp,96
    4d4a:	0088                	addi	a0,sp,64
    4d4c:	0ce040ef          	jal	ra,8e1a <memcpy>
    4d50:	8d26                	mv	s10,s1
    4d52:	4a81                	li	s5,0
    4d54:	0000ba37          	lui	s4,0xb
    4d58:	0000b9b7          	lui	s3,0xb
    4d5c:	0000cbb7          	lui	s7,0xc
    4d60:	0000cb37          	lui	s6,0xc
    4d64:	02040c13          	addi	s8,s0,32
    4d68:	4785                	li	a5,1
    4d6a:	2cfd1363          	bne	s10,a5,5030 <lfs_dir_orphaningcommit+0x39c>
    4d6e:	80000cb7          	lui	s9,0x80000
    4d72:	3ffc8c93          	addi	s9,s9,1023 # 800003ff <_eusrstack+0x5fff83ff>
    4d76:	aab1                	j	4ed2 <lfs_dir_orphaningcommit+0x23e>
    4d78:	00898513          	addi	a0,s3,8 # b008 <F8X16+0x160>
    4d7c:	01251563          	bne	a0,s2,4d86 <lfs_dir_orphaningcommit+0xf2>
    4d80:	0009a983          	lw	s3,0(s3)
    4d84:	b72d                	j	4cae <lfs_dir_orphaningcommit+0x1a>
    4d86:	85ca                	mv	a1,s2
    4d88:	ae8fd0ef          	jal	ra,2070 <lfs_pair_cmp>
    4d8c:	f975                	bnez	a0,4d80 <lfs_dir_orphaningcommit+0xec>
    4d8e:	0069c783          	lbu	a5,6(s3)
    4d92:	ff7797e3          	bne	a5,s7,4d80 <lfs_dir_orphaningcommit+0xec>
    4d96:	0309a783          	lw	a5,48(s3)
    4d9a:	00779713          	slli	a4,a5,0x7
    4d9e:	fe0751e3          	bgez	a4,4d80 <lfs_dir_orphaningcommit+0xec>
    4da2:	543c                	lw	a5,104(s0)
    4da4:	02c9a703          	lw	a4,44(s3)
    4da8:	579c                	lw	a5,40(a5)
    4daa:	fce7fbe3          	bgeu	a5,a4,4d80 <lfs_dir_orphaningcommit+0xec>
    4dae:	0349a783          	lw	a5,52(s3)
    4db2:	85ce                	mv	a1,s3
    4db4:	8522                	mv	a0,s0
    4db6:	02f9ae23          	sw	a5,60(s3)
    4dba:	547c                	lw	a5,108(s0)
    4dbc:	d03c                	sw	a5,96(s0)
    4dbe:	9f0ff0ef          	jal	ra,3fae <lfs_file_relocate>
    4dc2:	84aa                	mv	s1,a0
    4dc4:	ed09                	bnez	a0,4dde <lfs_dir_orphaningcommit+0x14a>
    4dc6:	0309a783          	lw	a5,48(s3)
    4dca:	85ce                	mv	a1,s3
    4dcc:	8522                	mv	a0,s0
    4dce:	0147f7b3          	and	a5,a5,s4
    4dd2:	02f9a823          	sw	a5,48(s3)
    4dd6:	cf9ff0ef          	jal	ra,4ace <lfs_file_flush>
    4dda:	84aa                	mv	s1,a0
    4ddc:	d155                	beqz	a0,4d80 <lfs_dir_orphaningcommit+0xec>
    4dde:	8526                	mv	a0,s1
    4de0:	6109                	addi	sp,sp,128
    4de2:	c5cfb06f          	j	23e <__riscv_restore_12>
    4de6:	00848593          	addi	a1,s1,8
    4dea:	0028                	addi	a0,sp,8
    4dec:	a84fd0ef          	jal	ra,2070 <lfs_pair_cmp>
    4df0:	e509                	bnez	a0,4dfa <lfs_dir_orphaningcommit+0x166>
    4df2:	01a4a423          	sw	s10,8(s1)
    4df6:	0124a623          	sw	s2,12(s1)
    4dfa:	20fc                	lbu	a5,6(s1)
    4dfc:	01b79c63          	bne	a5,s11,4e14 <lfs_dir_orphaningcommit+0x180>
    4e00:	02c48593          	addi	a1,s1,44
    4e04:	0028                	addi	a0,sp,8
    4e06:	a6afd0ef          	jal	ra,2070 <lfs_pair_cmp>
    4e0a:	e509                	bnez	a0,4e14 <lfs_dir_orphaningcommit+0x180>
    4e0c:	03a4a623          	sw	s10,44(s1)
    4e10:	0324a823          	sw	s2,48(s1)
    4e14:	4084                	lw	s1,0(s1)
    4e16:	a8d5                	j	4f0a <lfs_dir_orphaningcommit+0x276>
    4e18:	03040493          	addi	s1,s0,48
    4e1c:	4585                	li	a1,1
    4e1e:	8526                	mv	a0,s1
    4e20:	fdafd0ef          	jal	ra,25fa <lfs_fs_preporphans.isra.25>
    4e24:	8d2a                	mv	s10,a0
    4e26:	12051e63          	bnez	a0,4f62 <lfs_dir_orphaningcommit+0x2ce>
    4e2a:	108c                	addi	a1,sp,96
    4e2c:	8526                	mv	a0,s1
    4e2e:	aacfd0ef          	jal	ra,20da <lfs_gstate_hasmovehere>
    4e32:	12050463          	beqz	a0,4f5a <lfs_dir_orphaningcommit+0x2c6>
    4e36:	5804                	lw	s1,48(s0)
    4e38:	5716                	lw	a4,100(sp)
    4e3a:	5686                	lw	a3,96(sp)
    4e3c:	80a9                	srli	s1,s1,0xa
    4e3e:	3ff4f493          	andi	s1,s1,1023
    4e42:	6605                	lui	a2,0x1
    4e44:	87a6                	mv	a5,s1
    4e46:	93ca0813          	addi	a6,s4,-1732 # a93c <_exit+0x2f0>
    4e4a:	9da60613          	addi	a2,a2,-1574 # 9da <handle_reset+0x52>
    4e4e:	73498593          	addi	a1,s3,1844
    4e52:	868b0513          	addi	a0,s6,-1944 # b868 <defaults.4608+0x21c>
    4e56:	0a1040ef          	jal	ra,96f6 <iprintf>
    4e5a:	581c                	lw	a5,48(s0)
    4e5c:	02042a23          	sw	zero,52(s0)
    4e60:	02042c23          	sw	zero,56(s0)
    4e64:	0197f7b3          	and	a5,a5,s9
    4e68:	d81c                	sw	a5,48(s0)
    4e6a:	00a95793          	srli	a5,s2,0xa
    4e6e:	3ff7f793          	andi	a5,a5,1023
    4e72:	874a                	mv	a4,s2
    4e74:	00f4f463          	bgeu	s1,a5,4e7c <lfs_dir_orphaningcommit+0x1e8>
    4e78:	c0090713          	addi	a4,s2,-1024
    4e7c:	5786                	lw	a5,96(sp)
    4e7e:	3ff00693          	li	a3,1023
    4e82:	cc3e                	sw	a5,24(sp)
    4e84:	5796                	lw	a5,100(sp)
    4e86:	ce3e                	sw	a5,28(sp)
    4e88:	4781                	li	a5,0
    4e8a:	00d48663          	beq	s1,a3,4e96 <lfs_dir_orphaningcommit+0x202>
    4e8e:	04aa                	slli	s1,s1,0xa
    4e90:	4ff007b7          	lui	a5,0x4ff00
    4e94:	8fc5                	or	a5,a5,s1
    4e96:	d03e                	sw	a5,32(sp)
    4e98:	009c                	addi	a5,sp,64
    4e9a:	d43a                	sw	a4,40(sp)
    4e9c:	d63e                	sw	a5,44(sp)
    4e9e:	4709                	li	a4,2
    4ea0:	4781                	li	a5,0
    4ea2:	1014                	addi	a3,sp,32
    4ea4:	0830                	addi	a2,sp,24
    4ea6:	108c                	addi	a1,sp,96
    4ea8:	8522                	mv	a0,s0
    4eaa:	d202                	sw	zero,36(sp)
    4eac:	d08ff0ef          	jal	ra,43b4 <lfs_dir_relocatingcommit>
    4eb0:	8d2a                	mv	s10,a0
    4eb2:	0a054863          	bltz	a0,4f62 <lfs_dir_orphaningcommit+0x2ce>
    4eb6:	4785                	li	a5,1
    4eb8:	06f51763          	bne	a0,a5,4f26 <lfs_dir_orphaningcommit+0x292>
    4ebc:	47e2                	lw	a5,24(sp)
    4ebe:	02000613          	li	a2,32
    4ec2:	108c                	addi	a1,sp,96
    4ec4:	c43e                	sw	a5,8(sp)
    4ec6:	47f2                	lw	a5,28(sp)
    4ec8:	0088                	addi	a0,sp,64
    4eca:	4a85                	li	s5,1
    4ecc:	c63e                	sw	a5,12(sp)
    4ece:	74d030ef          	jal	ra,8e1a <memcpy>
    4ed2:	4816                	lw	a6,68(sp)
    4ed4:	4786                	lw	a5,64(sp)
    4ed6:	4732                	lw	a4,12(sp)
    4ed8:	46a2                	lw	a3,8(sp)
    4eda:	6605                	lui	a2,0x1
    4edc:	93ca0893          	addi	a7,s4,-1732
    4ee0:	9ad60613          	addi	a2,a2,-1619 # 9ad <handle_reset+0x25>
    4ee4:	73498593          	addi	a1,s3,1844
    4ee8:	82cb8513          	addi	a0,s7,-2004 # b82c <defaults.4608+0x1e0>
    4eec:	00b040ef          	jal	ra,96f6 <iprintf>
    4ef0:	85e2                	mv	a1,s8
    4ef2:	0028                	addi	a0,sp,8
    4ef4:	97cfd0ef          	jal	ra,2070 <lfs_pair_cmp>
    4ef8:	4916                	lw	s2,68(sp)
    4efa:	4d06                	lw	s10,64(sp)
    4efc:	e509                	bnez	a0,4f06 <lfs_dir_orphaningcommit+0x272>
    4efe:	03a42023          	sw	s10,32(s0)
    4f02:	03242223          	sw	s2,36(s0)
    4f06:	5404                	lw	s1,40(s0)
    4f08:	4d89                	li	s11,2
    4f0a:	ec049ee3          	bnez	s1,4de6 <lfs_dir_orphaningcommit+0x152>
    4f0e:	1090                	addi	a2,sp,96
    4f10:	002c                	addi	a1,sp,8
    4f12:	8522                	mv	a0,s0
    4f14:	bfdfe0ef          	jal	ra,3b10 <lfs_fs_parent>
    4f18:	892a                	mv	s2,a0
    4f1a:	ee055fe3          	bgez	a0,4e18 <lfs_dir_orphaningcommit+0x184>
    4f1e:	57f9                	li	a5,-2
    4f20:	10f51d63          	bne	a0,a5,503a <lfs_dir_orphaningcommit+0x3a6>
    4f24:	4d01                	li	s10,0
    4f26:	1090                	addi	a2,sp,96
    4f28:	002c                	addi	a1,sp,8
    4f2a:	8522                	mv	a0,s0
    4f2c:	c69fe0ef          	jal	ra,3b94 <lfs_fs_pred>
    4f30:	84aa                	mv	s1,a0
    4f32:	c915                	beqz	a0,4f66 <lfs_dir_orphaningcommit+0x2d2>
    4f34:	57f9                	li	a5,-2
    4f36:	eaf514e3          	bne	a0,a5,4dde <lfs_dir_orphaningcommit+0x14a>
    4f3a:	e2a907e3          	beq	s2,a0,4d68 <lfs_dir_orphaningcommit+0xd4>
    4f3e:	0000c6b7          	lui	a3,0xc
    4f42:	662d                	lui	a2,0xb
    4f44:	6585                	lui	a1,0x1
    4f46:	8ac68693          	addi	a3,a3,-1876 # b8ac <defaults.4608+0x260>
    4f4a:	59860613          	addi	a2,a2,1432 # b598 <__func__.4436>
    4f4e:	9fb58593          	addi	a1,a1,-1541 # 9fb <handle_reset+0x73>
    4f52:	73498513          	addi	a0,s3,1844
    4f56:	625030ef          	jal	ra,8d7a <__assert_func>
    4f5a:	874a                	mv	a4,s2
    4f5c:	3ff00493          	li	s1,1023
    4f60:	bf31                	j	4e7c <lfs_dir_orphaningcommit+0x1e8>
    4f62:	84ea                	mv	s1,s10
    4f64:	bdad                	j	4dde <lfs_dir_orphaningcommit+0x14a>
    4f66:	581c                	lw	a5,48(s0)
    4f68:	03040c93          	addi	s9,s0,48
    4f6c:	3ff7f793          	andi	a5,a5,1023
    4f70:	e7c5                	bnez	a5,5018 <lfs_dir_orphaningcommit+0x384>
    4f72:	108c                	addi	a1,sp,96
    4f74:	8566                	mv	a0,s9
    4f76:	964fd0ef          	jal	ra,20da <lfs_gstate_hasmovehere>
    4f7a:	3ff00493          	li	s1,1023
    4f7e:	cd15                	beqz	a0,4fba <lfs_dir_orphaningcommit+0x326>
    4f80:	5804                	lw	s1,48(s0)
    4f82:	5716                	lw	a4,100(sp)
    4f84:	5686                	lw	a3,96(sp)
    4f86:	80a9                	srli	s1,s1,0xa
    4f88:	3ff4f493          	andi	s1,s1,1023
    4f8c:	6605                	lui	a2,0x1
    4f8e:	87a6                	mv	a5,s1
    4f90:	93ca0813          	addi	a6,s4,-1732
    4f94:	a0e60613          	addi	a2,a2,-1522 # a0e <handle_reset+0x86>
    4f98:	73498593          	addi	a1,s3,1844
    4f9c:	868b0513          	addi	a0,s6,-1944
    4fa0:	756040ef          	jal	ra,96f6 <iprintf>
    4fa4:	581c                	lw	a5,48(s0)
    4fa6:	80000737          	lui	a4,0x80000
    4faa:	3ff70713          	addi	a4,a4,1023 # 800003ff <_eusrstack+0x5fff83ff>
    4fae:	8ff9                	and	a5,a5,a4
    4fb0:	d81c                	sw	a5,48(s0)
    4fb2:	02042a23          	sw	zero,52(s0)
    4fb6:	02042c23          	sw	zero,56(s0)
    4fba:	5786                	lw	a5,96(sp)
    4fbc:	3ff00713          	li	a4,1023
    4fc0:	c43e                	sw	a5,8(sp)
    4fc2:	5796                	lw	a5,100(sp)
    4fc4:	c63e                	sw	a5,12(sp)
    4fc6:	4781                	li	a5,0
    4fc8:	00e48663          	beq	s1,a4,4fd4 <lfs_dir_orphaningcommit+0x340>
    4fcc:	04aa                	slli	s1,s1,0xa
    4fce:	4ff007b7          	lui	a5,0x4ff00
    4fd2:	8fc5                	or	a5,a5,s1
    4fd4:	d83e                	sw	a5,48(sp)
    4fd6:	07714783          	lbu	a5,119(sp)
    4fda:	00100737          	lui	a4,0x100
    4fde:	c0870713          	addi	a4,a4,-1016 # ffc08 <_data_lma+0xf34b4>
    4fe2:	60078793          	addi	a5,a5,1536 # 4ff00600 <_eusrstack+0x2fef8600>
    4fe6:	07d2                	slli	a5,a5,0x14
    4fe8:	8fd9                	or	a5,a5,a4
    4fea:	dc3e                	sw	a5,56(sp)
    4fec:	009c                	addi	a5,sp,64
    4fee:	de3e                	sw	a5,60(sp)
    4ff0:	4709                	li	a4,2
    4ff2:	4781                	li	a5,0
    4ff4:	1814                	addi	a3,sp,48
    4ff6:	0030                	addi	a2,sp,8
    4ff8:	108c                	addi	a1,sp,96
    4ffa:	8522                	mv	a0,s0
    4ffc:	da02                	sw	zero,52(sp)
    4ffe:	bb6ff0ef          	jal	ra,43b4 <lfs_dir_relocatingcommit>
    5002:	84aa                	mv	s1,a0
    5004:	dc054de3          	bltz	a0,4dde <lfs_dir_orphaningcommit+0x14a>
    5008:	02000613          	li	a2,32
    500c:	108c                	addi	a1,sp,96
    500e:	0088                	addi	a0,sp,64
    5010:	60b030ef          	jal	ra,8e1a <memcpy>
    5014:	8d26                	mv	s10,s1
    5016:	bb89                	j	4d68 <lfs_dir_orphaningcommit+0xd4>
    5018:	00290593          	addi	a1,s2,2
    501c:	00b035b3          	snez	a1,a1
    5020:	40b005b3          	neg	a1,a1
    5024:	8566                	mv	a0,s9
    5026:	dd4fd0ef          	jal	ra,25fa <lfs_fs_preporphans.isra.25>
    502a:	84aa                	mv	s1,a0
    502c:	d139                	beqz	a0,4f72 <lfs_dir_orphaningcommit+0x2de>
    502e:	bb45                	j	4dde <lfs_dir_orphaningcommit+0x14a>
    5030:	448d                	li	s1,3
    5032:	da0a96e3          	bnez	s5,4dde <lfs_dir_orphaningcommit+0x14a>
    5036:	4481                	li	s1,0
    5038:	b35d                	j	4dde <lfs_dir_orphaningcommit+0x14a>
    503a:	84aa                	mv	s1,a0
    503c:	b34d                	j	4dde <lfs_dir_orphaningcommit+0x14a>

0000503e <lfs_fs_deorphan.part.36>:
    503e:	9c4fb2ef          	jal	t0,202 <__riscv_save_12>
    5042:	7119                	addi	sp,sp,-128
    5044:	842a                	mv	s0,a0
    5046:	8b2e                	mv	s6,a1
    5048:	4781                	li	a5,0
    504a:	0000b9b7          	lui	s3,0xb
    504e:	0000ba37          	lui	s4,0xb
    5052:	0000cc37          	lui	s8,0xc
    5056:	84be                	mv	s1,a5
    5058:	0000ccb7          	lui	s9,0xc
    505c:	4671                	li	a2,28
    505e:	4581                	li	a1,0
    5060:	1008                	addi	a0,sp,32
    5062:	a00fb0ef          	jal	ra,262 <memset>
    5066:	4785                	li	a5,1
    5068:	02f10ba3          	sb	a5,55(sp)
    506c:	80000bb7          	lui	s7,0x80000
    5070:	4785                	li	a5,1
    5072:	60100ab7          	lui	s5,0x60100
    5076:	de3e                	sw	a5,60(sp)
    5078:	4901                	li	s2,0
    507a:	c08a8a93          	addi	s5,s5,-1016 # 600ffc08 <_eusrstack+0x400f7c08>
    507e:	3ffb8d13          	addi	s10,s7,1023 # 800003ff <_eusrstack+0x5fff83ff>
    5082:	1828                	addi	a0,sp,56
    5084:	fd7fc0ef          	jal	ra,205a <lfs_pair_isnull>
    5088:	c509                	beqz	a0,5092 <lfs_fs_deorphan.part.36+0x54>
    508a:	10090163          	beqz	s2,518c <lfs_fs_deorphan.part.36+0x14e>
    508e:	4481                	li	s1,0
    5090:	b7f1                	j	505c <lfs_fs_deorphan.part.36+0x1e>
    5092:	1830                	addi	a2,sp,56
    5094:	008c                	addi	a1,sp,64
    5096:	8522                	mv	a0,s0
    5098:	857fe0ef          	jal	ra,38ee <lfs_dir_fetch>
    509c:	ed11                	bnez	a0,50b8 <lfs_fs_deorphan.part.36+0x7a>
    509e:	03714783          	lbu	a5,55(sp)
    50a2:	eff1                	bnez	a5,517e <lfs_fs_deorphan.part.36+0x140>
    50a4:	1090                	addi	a2,sp,96
    50a6:	182c                	addi	a1,sp,56
    50a8:	8522                	mv	a0,s0
    50aa:	a67fe0ef          	jal	ra,3b10 <lfs_fs_parent>
    50ae:	00055863          	bgez	a0,50be <lfs_fs_deorphan.part.36+0x80>
    50b2:	57f9                	li	a5,-2
    50b4:	0ef50963          	beq	a0,a5,51a6 <lfs_fs_deorphan.part.36+0x168>
    50b8:	6109                	addi	sp,sp,128
    50ba:	984fb06f          	j	23e <__riscv_restore_12>
    50be:	e0e1                	bnez	s1,517e <lfs_fs_deorphan.part.36+0x140>
    50c0:	86aa                	mv	a3,a0
    50c2:	870a                	mv	a4,sp
    50c4:	c00bc613          	xori	a2,s7,-1024
    50c8:	108c                	addi	a1,sp,96
    50ca:	8522                	mv	a0,s0
    50cc:	c32fd0ef          	jal	ra,24fe <lfs_dir_get>
    50d0:	fe0544e3          	bltz	a0,50b8 <lfs_fs_deorphan.part.36+0x7a>
    50d4:	4782                	lw	a5,0(sp)
    50d6:	56e2                	lw	a3,56(sp)
    50d8:	4812                	lw	a6,4(sp)
    50da:	5772                	lw	a4,60(sp)
    50dc:	00d79463          	bne	a5,a3,50e4 <lfs_fs_deorphan.part.36+0xa6>
    50e0:	08e80f63          	beq	a6,a4,517e <lfs_fs_deorphan.part.36+0x140>
    50e4:	00f71463          	bne	a4,a5,50ec <lfs_fs_deorphan.part.36+0xae>
    50e8:	08d80b63          	beq	a6,a3,517e <lfs_fs_deorphan.part.36+0x140>
    50ec:	6305                	lui	t1,0x1
    50ee:	3ba30613          	addi	a2,t1,954 # 13ba <os_hal_spi_rw_byte+0xa>
    50f2:	93c98893          	addi	a7,s3,-1732 # a93c <_exit+0x2f0>
    50f6:	734a0593          	addi	a1,s4,1844 # b734 <defaults.4608+0xe8>
    50fa:	a98c0513          	addi	a0,s8,-1384 # ba98 <defaults.4608+0x44c>
    50fe:	5f8040ef          	jal	ra,96f6 <iprintf>
    5102:	100c                	addi	a1,sp,32
    5104:	03040513          	addi	a0,s0,48
    5108:	fd3fc0ef          	jal	ra,20da <lfs_gstate_hasmovehere>
    510c:	6305                	lui	t1,0x1
    510e:	e11d                	bnez	a0,5134 <lfs_fs_deorphan.part.36+0xf6>
    5110:	4d81                	li	s11,0
    5112:	4689                	li	a3,2
    5114:	0810                	addi	a2,sp,16
    5116:	100c                	addi	a1,sp,32
    5118:	8522                	mv	a0,s0
    511a:	c86e                	sw	s11,16(sp)
    511c:	ca02                	sw	zero,20(sp)
    511e:	cc56                	sw	s5,24(sp)
    5120:	ce0a                	sw	sp,28(sp)
    5122:	b73ff0ef          	jal	ra,4c94 <lfs_dir_orphaningcommit>
    5126:	f80549e3          	bltz	a0,50b8 <lfs_fs_deorphan.part.36+0x7a>
    512a:	478d                	li	a5,3
    512c:	f4f51be3          	bne	a0,a5,5082 <lfs_fs_deorphan.part.36+0x44>
    5130:	4905                	li	s2,1
    5132:	bf81                	j	5082 <lfs_fs_deorphan.part.36+0x44>
    5134:	03042d83          	lw	s11,48(s0)
    5138:	5712                	lw	a4,36(sp)
    513a:	5682                	lw	a3,32(sp)
    513c:	00addd93          	srli	s11,s11,0xa
    5140:	3ffdfd93          	andi	s11,s11,1023
    5144:	87ee                	mv	a5,s11
    5146:	93c98813          	addi	a6,s3,-1732
    514a:	3c430613          	addi	a2,t1,964 # 13c4 <os_hal_spi_rw_byte+0x14>
    514e:	734a0593          	addi	a1,s4,1844
    5152:	adcc8513          	addi	a0,s9,-1316 # badc <defaults.4608+0x490>
    5156:	5a0040ef          	jal	ra,96f6 <iprintf>
    515a:	581c                	lw	a5,48(s0)
    515c:	02042a23          	sw	zero,52(s0)
    5160:	02042c23          	sw	zero,56(s0)
    5164:	01a7f7b3          	and	a5,a5,s10
    5168:	d81c                	sw	a5,48(s0)
    516a:	3ff00793          	li	a5,1023
    516e:	fafd81e3          	beq	s11,a5,5110 <lfs_fs_deorphan.part.36+0xd2>
    5172:	0daa                	slli	s11,s11,0xa
    5174:	4ff007b7          	lui	a5,0x4ff00
    5178:	00fdedb3          	or	s11,s11,a5
    517c:	bf59                	j	5112 <lfs_fs_deorphan.part.36+0xd4>
    517e:	02000613          	li	a2,32
    5182:	008c                	addi	a1,sp,64
    5184:	1008                	addi	a0,sp,32
    5186:	495030ef          	jal	ra,8e1a <memcpy>
    518a:	bde5                	j	5082 <lfs_fs_deorphan.part.36+0x44>
    518c:	4785                	li	a5,1
    518e:	ec0484e3          	beqz	s1,5056 <lfs_fs_deorphan.part.36+0x18>
    5192:	580c                	lw	a1,48(s0)
    5194:	03040513          	addi	a0,s0,48
    5198:	40b005b3          	neg	a1,a1
    519c:	05e2                	slli	a1,a1,0x18
    519e:	85e1                	srai	a1,a1,0x18
    51a0:	c5afd0ef          	jal	ra,25fa <lfs_fs_preporphans.isra.25>
    51a4:	bf11                	j	50b8 <lfs_fs_deorphan.part.36+0x7a>
    51a6:	dce1                	beqz	s1,517e <lfs_fs_deorphan.part.36+0x140>
    51a8:	fc0b0be3          	beqz	s6,517e <lfs_fs_deorphan.part.36+0x140>
    51ac:	5772                	lw	a4,60(sp)
    51ae:	56e2                	lw	a3,56(sp)
    51b0:	6605                	lui	a2,0x1
    51b2:	0000c537          	lui	a0,0xc
    51b6:	3e360613          	addi	a2,a2,995 # 13e3 <oled_write+0x3>
    51ba:	734a0593          	addi	a1,s4,1844
    51be:	93c98793          	addi	a5,s3,-1732
    51c2:	b2450513          	addi	a0,a0,-1244 # bb24 <defaults.4608+0x4d8>
    51c6:	530040ef          	jal	ra,96f6 <iprintf>
    51ca:	04840613          	addi	a2,s0,72
    51ce:	008c                	addi	a1,sp,64
    51d0:	8522                	mv	a0,s0
    51d2:	b40fd0ef          	jal	ra,2512 <lfs_dir_getgstate>
    51d6:	ee0511e3          	bnez	a0,50b8 <lfs_fs_deorphan.part.36+0x7a>
    51da:	05714783          	lbu	a5,87(sp)
    51de:	00100737          	lui	a4,0x100
    51e2:	c0870713          	addi	a4,a4,-1016 # ffc08 <_data_lma+0xf34b4>
    51e6:	60078793          	addi	a5,a5,1536 # 4ff00600 <_eusrstack+0x2fef8600>
    51ea:	07d2                	slli	a5,a5,0x14
    51ec:	8fd9                	or	a5,a5,a4
    51ee:	c43e                	sw	a5,8(sp)
    51f0:	4685                	li	a3,1
    51f2:	08bc                	addi	a5,sp,88
    51f4:	0030                	addi	a2,sp,8
    51f6:	100c                	addi	a1,sp,32
    51f8:	8522                	mv	a0,s0
    51fa:	c63e                	sw	a5,12(sp)
    51fc:	a99ff0ef          	jal	ra,4c94 <lfs_dir_orphaningcommit>
    5200:	ea054ce3          	bltz	a0,50b8 <lfs_fs_deorphan.part.36+0x7a>
    5204:	478d                	li	a5,3
    5206:	e6f51ee3          	bne	a0,a5,5082 <lfs_fs_deorphan.part.36+0x44>
    520a:	895a                	mv	s2,s6
    520c:	bd9d                	j	5082 <lfs_fs_deorphan.part.36+0x44>

0000520e <lfs_dir_commit>:
    520e:	824fb2ef          	jal	t0,232 <__riscv_save_0>
    5212:	842a                	mv	s0,a0
    5214:	a81ff0ef          	jal	ra,4c94 <lfs_dir_orphaningcommit>
    5218:	00054c63          	bltz	a0,5230 <lfs_dir_commit+0x22>
    521c:	c911                	beqz	a0,5230 <lfs_dir_commit+0x22>
    521e:	581c                	lw	a5,48(s0)
    5220:	4501                	li	a0,0
    5222:	3ff7f793          	andi	a5,a5,1023
    5226:	c789                	beqz	a5,5230 <lfs_dir_commit+0x22>
    5228:	4581                	li	a1,0
    522a:	8522                	mv	a0,s0
    522c:	e13ff0ef          	jal	ra,503e <lfs_fs_deorphan.part.36>
    5230:	826fb06f          	j	256 <__riscv_restore_0>

00005234 <lfs_fs_forceconsistency>:
    5234:	ffffa2ef          	jal	t0,232 <__riscv_save_0>
    5238:	591c                	lw	a5,48(a0)
    523a:	7139                	addi	sp,sp,-64
    523c:	842a                	mv	s0,a0
    523e:	83a5                	srli	a5,a5,0x9
    5240:	8b85                	andi	a5,a5,1
    5242:	cbbd                	beqz	a5,52b8 <lfs_fs_forceconsistency+0x84>
    5244:	5158                	lw	a4,36(a0)
    5246:	5114                	lw	a3,32(a0)
    5248:	0000b7b7          	lui	a5,0xb
    524c:	6605                	lui	a2,0x1
    524e:	0000b5b7          	lui	a1,0xb
    5252:	0000c537          	lui	a0,0xc
    5256:	34460613          	addi	a2,a2,836 # 1344 <os_hal_spi_init+0x64>
    525a:	73458593          	addi	a1,a1,1844 # b734 <defaults.4608+0xe8>
    525e:	93c78793          	addi	a5,a5,-1732 # a93c <_exit+0x2f0>
    5262:	b5450513          	addi	a0,a0,-1196 # bb54 <defaults.4608+0x508>
    5266:	490040ef          	jal	ra,96f6 <iprintf>
    526a:	02040613          	addi	a2,s0,32
    526e:	100c                	addi	a1,sp,32
    5270:	8522                	mv	a0,s0
    5272:	e7cfe0ef          	jal	ra,38ee <lfs_dir_fetch>
    5276:	ed21                	bnez	a0,52ce <lfs_fs_forceconsistency+0x9a>
    5278:	000207b7          	lui	a5,0x20
    527c:	0785                	addi	a5,a5,1
    527e:	c43e                	sw	a5,8(sp)
    5280:	543c                	lw	a5,104(s0)
    5282:	4685                	li	a3,1
    5284:	860a                	mv	a2,sp
    5286:	4fdc                	lw	a5,28(a5)
    5288:	100c                	addi	a1,sp,32
    528a:	8522                	mv	a0,s0
    528c:	c63e                	sw	a5,12(sp)
    528e:	547c                	lw	a5,108(s0)
    5290:	c83e                	sw	a5,16(sp)
    5292:	583c                	lw	a5,112(s0)
    5294:	ca3e                	sw	a5,20(sp)
    5296:	587c                	lw	a5,116(s0)
    5298:	cc3e                	sw	a5,24(sp)
    529a:	5c3c                	lw	a5,120(s0)
    529c:	ce3e                	sw	a5,28(sp)
    529e:	201007b7          	lui	a5,0x20100
    52a2:	07e1                	addi	a5,a5,24
    52a4:	c03e                	sw	a5,0(sp)
    52a6:	003c                	addi	a5,sp,8
    52a8:	c23e                	sw	a5,4(sp)
    52aa:	f65ff0ef          	jal	ra,520e <lfs_dir_commit>
    52ae:	e105                	bnez	a0,52ce <lfs_fs_forceconsistency+0x9a>
    52b0:	581c                	lw	a5,48(s0)
    52b2:	dff7f793          	andi	a5,a5,-513
    52b6:	d81c                	sw	a5,48(s0)
    52b8:	5c5c                	lw	a5,60(s0)
    52ba:	0147d713          	srli	a4,a5,0x14
    52be:	70077713          	andi	a4,a4,1792
    52c2:	eb09                	bnez	a4,52d4 <lfs_fs_forceconsistency+0xa0>
    52c4:	581c                	lw	a5,48(s0)
    52c6:	4501                	li	a0,0
    52c8:	3ff7f793          	andi	a5,a5,1023
    52cc:	e3dd                	bnez	a5,5372 <lfs_fs_forceconsistency+0x13e>
    52ce:	6121                	addi	sp,sp,64
    52d0:	f87fa06f          	j	256 <__riscv_restore_0>
    52d4:	4078                	lw	a4,68(s0)
    52d6:	4034                	lw	a3,64(s0)
    52d8:	83a9                	srli	a5,a5,0xa
    52da:	0000b837          	lui	a6,0xb
    52de:	6905                	lui	s2,0x1
    52e0:	0000b4b7          	lui	s1,0xb
    52e4:	0000c537          	lui	a0,0xc
    52e8:	3ff7f793          	andi	a5,a5,1023
    52ec:	93c80813          	addi	a6,a6,-1732 # a93c <_exit+0x2f0>
    52f0:	36d90613          	addi	a2,s2,877 # 136d <os_hal_spi_init+0x8d>
    52f4:	73448593          	addi	a1,s1,1844 # b734 <defaults.4608+0xe8>
    52f8:	b8850513          	addi	a0,a0,-1144 # bb88 <defaults.4608+0x53c>
    52fc:	3fa040ef          	jal	ra,96f6 <iprintf>
    5300:	5c5c                	lw	a5,60(s0)
    5302:	4ff00713          	li	a4,1279
    5306:	83d1                	srli	a5,a5,0x14
    5308:	7ff7f793          	andi	a5,a5,2047
    530c:	00e78f63          	beq	a5,a4,532a <lfs_fs_forceconsistency+0xf6>
    5310:	0000c6b7          	lui	a3,0xc
    5314:	662d                	lui	a2,0xb
    5316:	bbc68693          	addi	a3,a3,-1092 # bbbc <defaults.4608+0x570>
    531a:	5fc60613          	addi	a2,a2,1532 # b5fc <__func__.5001>
    531e:	37190593          	addi	a1,s2,881
    5322:	73448513          	addi	a0,s1,1844
    5326:	255030ef          	jal	ra,8d7a <__assert_func>
    532a:	04040613          	addi	a2,s0,64
    532e:	100c                	addi	a1,sp,32
    5330:	8522                	mv	a0,s0
    5332:	dbcfe0ef          	jal	ra,38ee <lfs_dir_fetch>
    5336:	fd41                	bnez	a0,52ce <lfs_fs_forceconsistency+0x9a>
    5338:	5c5c                	lw	a5,60(s0)
    533a:	5818                	lw	a4,48(s0)
    533c:	800006b7          	lui	a3,0x80000
    5340:	3ff68693          	addi	a3,a3,1023 # 800003ff <_eusrstack+0x5fff83ff>
    5344:	83a9                	srli	a5,a5,0xa
    5346:	8f75                	and	a4,a4,a3
    5348:	3ff7f793          	andi	a5,a5,1023
    534c:	d818                	sw	a4,48(s0)
    534e:	07aa                	slli	a5,a5,0xa
    5350:	4ff00737          	lui	a4,0x4ff00
    5354:	8fd9                	or	a5,a5,a4
    5356:	02042a23          	sw	zero,52(s0)
    535a:	02042c23          	sw	zero,56(s0)
    535e:	4685                	li	a3,1
    5360:	0030                	addi	a2,sp,8
    5362:	100c                	addi	a1,sp,32
    5364:	8522                	mv	a0,s0
    5366:	c43e                	sw	a5,8(sp)
    5368:	c602                	sw	zero,12(sp)
    536a:	ea5ff0ef          	jal	ra,520e <lfs_dir_commit>
    536e:	d939                	beqz	a0,52c4 <lfs_fs_forceconsistency+0x90>
    5370:	bfb9                	j	52ce <lfs_fs_forceconsistency+0x9a>
    5372:	4585                	li	a1,1
    5374:	8522                	mv	a0,s0
    5376:	cc9ff0ef          	jal	ra,503e <lfs_fs_deorphan.part.36>
    537a:	bf91                	j	52ce <lfs_fs_forceconsistency+0x9a>

0000537c <lfs_file_sync_.part.40>:
    537c:	e9dfa2ef          	jal	t0,218 <__riscv_save_4>
    5380:	0305a983          	lw	s3,48(a1)
    5384:	1101                	addi	sp,sp,-32
    5386:	84aa                	mv	s1,a0
    5388:	00f99793          	slli	a5,s3,0xf
    538c:	842e                	mv	s0,a1
    538e:	0807d863          	bgez	a5,541e <lfs_file_sync_.part.40+0xa2>
    5392:	00858913          	addi	s2,a1,8
    5396:	854a                	mv	a0,s2
    5398:	cc3fc0ef          	jal	ra,205a <lfs_pair_isnull>
    539c:	e149                	bnez	a0,541e <lfs_file_sync_.part.40+0xa2>
    539e:	00799793          	slli	a5,s3,0x7
    53a2:	0407d563          	bgez	a5,53ec <lfs_file_sync_.part.40+0x70>
    53a6:	4470                	lw	a2,76(s0)
    53a8:	5454                	lw	a3,44(s0)
    53aa:	20100713          	li	a4,513
    53ae:	205e                	lhu	a5,4(s0)
    53b0:	0752                	slli	a4,a4,0x14
    53b2:	ca32                	sw	a2,20(sp)
    53b4:	07aa                	slli	a5,a5,0xa
    53b6:	8edd                	or	a3,a3,a5
    53b8:	8f55                	or	a4,a4,a3
    53ba:	c83a                	sw	a4,16(sp)
    53bc:	4838                	lw	a4,80(s0)
    53be:	0810                	addi	a2,sp,16
    53c0:	85ca                	mv	a1,s2
    53c2:	4714                	lw	a3,8(a4)
    53c4:	8526                	mv	a0,s1
    53c6:	8fd5                	or	a5,a5,a3
    53c8:	102006b7          	lui	a3,0x10200
    53cc:	8fd5                	or	a5,a5,a3
    53ce:	cc3e                	sw	a5,24(sp)
    53d0:	435c                	lw	a5,4(a4)
    53d2:	4689                	li	a3,2
    53d4:	ce3e                	sw	a5,28(sp)
    53d6:	e39ff0ef          	jal	ra,520e <lfs_dir_commit>
    53da:	581c                	lw	a5,48(s0)
    53dc:	cd0d                	beqz	a0,5416 <lfs_file_sync_.part.40+0x9a>
    53de:	00100737          	lui	a4,0x100
    53e2:	8fd9                	or	a5,a5,a4
    53e4:	d81c                	sw	a5,48(s0)
    53e6:	6105                	addi	sp,sp,32
    53e8:	e65fa06f          	j	24c <__riscv_restore_4>
    53ec:	8626                	mv	a2,s1
    53ee:	01048593          	addi	a1,s1,16
    53f2:	8526                	mv	a0,s1
    53f4:	e69fd0ef          	jal	ra,325c <lfs_bd_sync.constprop.46>
    53f8:	f57d                	bnez	a0,53e6 <lfs_file_sync_.part.40+0x6a>
    53fa:	581c                	lw	a5,48(s0)
    53fc:	00779713          	slli	a4,a5,0x7
    5400:	fa0743e3          	bltz	a4,53a6 <lfs_file_sync_.part.40+0x2a>
    5404:	541c                	lw	a5,40(s0)
    5406:	46a1                	li	a3,8
    5408:	0030                	addi	a2,sp,8
    540a:	c43e                	sw	a5,8(sp)
    540c:	545c                	lw	a5,44(s0)
    540e:	20200713          	li	a4,514
    5412:	c63e                	sw	a5,12(sp)
    5414:	bf69                	j	53ae <lfs_file_sync_.part.40+0x32>
    5416:	7741                	lui	a4,0xffff0
    5418:	177d                	addi	a4,a4,-1
    541a:	8ff9                	and	a5,a5,a4
    541c:	d81c                	sw	a5,48(s0)
    541e:	5484                	lw	s1,40(s1)
    5420:	4905                	li	s2,1
    5422:	00840993          	addi	s3,s0,8
    5426:	00020a37          	lui	s4,0x20
    542a:	e889                	bnez	s1,543c <lfs_file_sync_.part.40+0xc0>
    542c:	581c                	lw	a5,48(s0)
    542e:	ffee0737          	lui	a4,0xffee0
    5432:	177d                	addi	a4,a4,-1
    5434:	8ff9                	and	a5,a5,a4
    5436:	d81c                	sw	a5,48(s0)
    5438:	4501                	li	a0,0
    543a:	b775                	j	53e6 <lfs_file_sync_.part.40+0x6a>
    543c:	02940363          	beq	s0,s1,5462 <lfs_file_sync_.part.40+0xe6>
    5440:	20fc                	lbu	a5,6(s1)
    5442:	03279063          	bne	a5,s2,5462 <lfs_file_sync_.part.40+0xe6>
    5446:	85ce                	mv	a1,s3
    5448:	00848513          	addi	a0,s1,8
    544c:	c25fc0ef          	jal	ra,2070 <lfs_pair_cmp>
    5450:	e909                	bnez	a0,5462 <lfs_file_sync_.part.40+0xe6>
    5452:	20da                	lhu	a4,4(s1)
    5454:	205e                	lhu	a5,4(s0)
    5456:	00f71663          	bne	a4,a5,5462 <lfs_file_sync_.part.40+0xe6>
    545a:	589c                	lw	a5,48(s1)
    545c:	0147e7b3          	or	a5,a5,s4
    5460:	d89c                	sw	a5,48(s1)
    5462:	4084                	lw	s1,0(s1)
    5464:	b7d9                	j	542a <lfs_file_sync_.part.40+0xae>

00005466 <lfs_file_close_>:
    5466:	dcdfa2ef          	jal	t0,232 <__riscv_save_0>
    546a:	599c                	lw	a5,48(a1)
    546c:	892a                	mv	s2,a0
    546e:	842e                	mv	s0,a1
    5470:	00b79713          	slli	a4,a5,0xb
    5474:	4481                	li	s1,0
    5476:	00074b63          	bltz	a4,548c <lfs_file_close_+0x26>
    547a:	e54ff0ef          	jal	ra,4ace <lfs_file_flush>
    547e:	84aa                	mv	s1,a0
    5480:	c905                	beqz	a0,54b0 <lfs_file_close_+0x4a>
    5482:	581c                	lw	a5,48(s0)
    5484:	00100737          	lui	a4,0x100
    5488:	8fd9                	or	a5,a5,a4
    548a:	d81c                	sw	a5,48(s0)
    548c:	02892783          	lw	a5,40(s2)
    5490:	02890713          	addi	a4,s2,40
    5494:	c789                	beqz	a5,549e <lfs_file_close_+0x38>
    5496:	4394                	lw	a3,0(a5)
    5498:	02f41263          	bne	s0,a5,54bc <lfs_file_close_+0x56>
    549c:	c314                	sw	a3,0(a4)
    549e:	483c                	lw	a5,80(s0)
    54a0:	439c                	lw	a5,0(a5)
    54a2:	e781                	bnez	a5,54aa <lfs_file_close_+0x44>
    54a4:	4468                	lw	a0,76(s0)
    54a6:	147030ef          	jal	ra,8dec <free>
    54aa:	8526                	mv	a0,s1
    54ac:	dabfa06f          	j	256 <__riscv_restore_0>
    54b0:	85a2                	mv	a1,s0
    54b2:	854a                	mv	a0,s2
    54b4:	ec9ff0ef          	jal	ra,537c <lfs_file_sync_.part.40>
    54b8:	84aa                	mv	s1,a0
    54ba:	bfc9                	j	548c <lfs_file_close_+0x26>
    54bc:	873e                	mv	a4,a5
    54be:	87b6                	mv	a5,a3
    54c0:	bfd1                	j	5494 <lfs_file_close_+0x2e>

000054c2 <lfs_file_opencfg_>:
    54c2:	d49fa2ef          	jal	t0,20a <__riscv_save_10>
    54c6:	7179                	addi	sp,sp,-48
    54c8:	c632                	sw	a2,12(sp)
    54ca:	0026f793          	andi	a5,a3,2
    54ce:	892a                	mv	s2,a0
    54d0:	84ae                	mv	s1,a1
    54d2:	89b6                	mv	s3,a3
    54d4:	eba1                	bnez	a5,5524 <lfs_file_opencfg_+0x62>
    54d6:	00848a13          	addi	s4,s1,8
    54da:	c8b8                	sw	a4,80(s1)
    54dc:	0334a823          	sw	s3,48(s1)
    54e0:	0204aa23          	sw	zero,52(s1)
    54e4:	0204ae23          	sw	zero,60(s1)
    54e8:	0404a623          	sw	zero,76(s1)
    54ec:	00448693          	addi	a3,s1,4
    54f0:	0070                	addi	a2,sp,12
    54f2:	85d2                	mv	a1,s4
    54f4:	854a                	mv	a0,s2
    54f6:	c0efe0ef          	jal	ra,3904 <lfs_dir_find>
    54fa:	842a                	mv	s0,a0
    54fc:	02055e63          	bgez	a0,5538 <lfs_file_opencfg_+0x76>
    5500:	57f9                	li	a5,-2
    5502:	00f51763          	bne	a0,a5,5510 <lfs_file_opencfg_+0x4e>
    5506:	4532                	lw	a0,12(sp)
    5508:	d72fe0ef          	jal	ra,3a7a <lfs_path_islast>
    550c:	e515                	bnez	a0,5538 <lfs_file_opencfg_+0x76>
    550e:	5479                	li	s0,-2
    5510:	589c                	lw	a5,48(s1)
    5512:	00100737          	lui	a4,0x100
    5516:	85a6                	mv	a1,s1
    5518:	8fd9                	or	a5,a5,a4
    551a:	d89c                	sw	a5,48(s1)
    551c:	854a                	mv	a0,s2
    551e:	f49ff0ef          	jal	ra,5466 <lfs_file_close_>
    5522:	a039                	j	5530 <lfs_file_opencfg_+0x6e>
    5524:	c43a                	sw	a4,8(sp)
    5526:	d0fff0ef          	jal	ra,5234 <lfs_fs_forceconsistency>
    552a:	842a                	mv	s0,a0
    552c:	4722                	lw	a4,8(sp)
    552e:	d545                	beqz	a0,54d6 <lfs_file_opencfg_+0x14>
    5530:	8522                	mv	a0,s0
    5532:	6145                	addi	sp,sp,48
    5534:	d0ffa06f          	j	242 <__riscv_restore_10>
    5538:	4785                	li	a5,1
    553a:	a0fc                	sb	a5,6(s1)
    553c:	02892783          	lw	a5,40(s2)
    5540:	c09c                	sw	a5,0(s1)
    5542:	02992423          	sw	s1,40(s2)
    5546:	57f9                	li	a5,-2
    5548:	0af41863          	bne	s0,a5,55f8 <lfs_file_opencfg_+0x136>
    554c:	1009f993          	andi	s3,s3,256
    5550:	fa098fe3          	beqz	s3,550e <lfs_file_opencfg_+0x4c>
    5554:	4432                	lw	s0,12(sp)
    5556:	0000c5b7          	lui	a1,0xc
    555a:	82858593          	addi	a1,a1,-2008 # b828 <defaults.4608+0x1dc>
    555e:	8522                	mv	a0,s0
    5560:	32e040ef          	jal	ra,988e <strcspn>
    5564:	00a407b3          	add	a5,s0,a0
    5568:	00078783          	lb	a5,0(a5) # 20100000 <_eusrstack+0xf8000>
    556c:	1a079363          	bnez	a5,5712 <lfs_file_opencfg_+0x250>
    5570:	07092783          	lw	a5,112(s2)
    5574:	00a7f563          	bgeu	a5,a0,557e <lfs_file_opencfg_+0xbc>
    5578:	fdc00413          	li	s0,-36
    557c:	bf51                	j	5510 <lfs_file_opencfg_+0x4e>
    557e:	20de                	lhu	a5,4(s1)
    5580:	40100737          	lui	a4,0x40100
    5584:	468d                	li	a3,3
    5586:	07aa                	slli	a5,a5,0xa
    5588:	8f5d                	or	a4,a4,a5
    558a:	cc3a                	sw	a4,24(sp)
    558c:	8d5d                	or	a0,a0,a5
    558e:	00100737          	lui	a4,0x100
    5592:	8d59                	or	a0,a0,a4
    5594:	20100737          	lui	a4,0x20100
    5598:	8fd9                	or	a5,a5,a4
    559a:	d02a                	sw	a0,32(sp)
    559c:	0830                	addi	a2,sp,24
    559e:	85d2                	mv	a1,s4
    55a0:	854a                	mv	a0,s2
    55a2:	d222                	sw	s0,36(sp)
    55a4:	d43e                	sw	a5,40(sp)
    55a6:	ce02                	sw	zero,28(sp)
    55a8:	d602                	sw	zero,44(sp)
    55aa:	c65ff0ef          	jal	ra,520e <lfs_dir_commit>
    55ae:	5791                	li	a5,-28
    55b0:	842a                	mv	s0,a0
    55b2:	fcf503e3          	beq	a0,a5,5578 <lfs_file_opencfg_+0xb6>
    55b6:	fd29                	bnez	a0,5510 <lfs_file_opencfg_+0x4e>
    55b8:	20100437          	lui	s0,0x20100
    55bc:	80000ab7          	lui	s5,0x80000
    55c0:	4981                	li	s3,0
    55c2:	4b31                	li	s6,12
    55c4:	c00aca93          	xori	s5,s5,-1024
    55c8:	5bf9                	li	s7,-2
    55ca:	6c41                	lui	s8,0x10
    55cc:	48bc                	lw	a5,80(s1)
    55ce:	4798                	lw	a4,8(a5)
    55d0:	06e9ee63          	bltu	s3,a4,564c <lfs_file_opencfg_+0x18a>
    55d4:	439c                	lw	a5,0(a5)
    55d6:	06892983          	lw	s3,104(s2)
    55da:	cbe9                	beqz	a5,56ac <lfs_file_opencfg_+0x1ea>
    55dc:	c4fc                	sw	a5,76(s1)
    55de:	04048593          	addi	a1,s1,64
    55e2:	854e                	mv	a0,s3
    55e4:	882fd0ef          	jal	ra,2666 <lfs_cache_zero.isra.27>
    55e8:	01445793          	srli	a5,s0,0x14
    55ec:	20100713          	li	a4,513
    55f0:	0ce78663          	beq	a5,a4,56bc <lfs_file_opencfg_+0x1fa>
    55f4:	4401                	li	s0,0
    55f6:	bf2d                	j	5530 <lfs_file_opencfg_+0x6e>
    55f8:	2009f793          	andi	a5,s3,512
    55fc:	10079d63          	bnez	a5,5716 <lfs_file_opencfg_+0x254>
    5600:	8051                	srli	s0,s0,0x14
    5602:	7ff47413          	andi	s0,s0,2047
    5606:	4785                	li	a5,1
    5608:	10f41963          	bne	s0,a5,571a <lfs_file_opencfg_+0x258>
    560c:	20c2                	lhu	s0,4(s1)
    560e:	4009f993          	andi	s3,s3,1024
    5612:	042a                	slli	s0,s0,0xa
    5614:	00098a63          	beqz	s3,5628 <lfs_file_opencfg_+0x166>
    5618:	589c                	lw	a5,48(s1)
    561a:	6741                	lui	a4,0x10
    561c:	201006b7          	lui	a3,0x20100
    5620:	8fd9                	or	a5,a5,a4
    5622:	8c55                	or	s0,s0,a3
    5624:	d89c                	sw	a5,48(s1)
    5626:	bf59                	j	55bc <lfs_file_opencfg_+0xfa>
    5628:	200006b7          	lui	a3,0x20000
    562c:	06a1                	addi	a3,a3,8
    562e:	70100637          	lui	a2,0x70100
    5632:	8ec1                	or	a3,a3,s0
    5634:	02848713          	addi	a4,s1,40
    5638:	c0060613          	addi	a2,a2,-1024 # 700ffc00 <_eusrstack+0x500f7c00>
    563c:	85d2                	mv	a1,s4
    563e:	854a                	mv	a0,s2
    5640:	ebffc0ef          	jal	ra,24fe <lfs_dir_get>
    5644:	842a                	mv	s0,a0
    5646:	f6055be3          	bgez	a0,55bc <lfs_file_opencfg_+0xfa>
    564a:	b5d9                	j	5510 <lfs_file_opencfg_+0x4e>
    564c:	5898                	lw	a4,48(s1)
    564e:	8b05                	andi	a4,a4,1
    5650:	e719                	bnez	a4,565e <lfs_file_opencfg_+0x19c>
    5652:	589c                	lw	a5,48(s1)
    5654:	0027f713          	andi	a4,a5,2
    5658:	ef05                	bnez	a4,5690 <lfs_file_opencfg_+0x1ce>
    565a:	0985                	addi	s3,s3,1
    565c:	bf85                	j	55cc <lfs_file_opencfg_+0x10a>
    565e:	03698733          	mul	a4,s3,s6
    5662:	43dc                	lw	a5,4(a5)
    5664:	20d6                	lhu	a3,4(s1)
    5666:	8656                	mv	a2,s5
    5668:	85d2                	mv	a1,s4
    566a:	06aa                	slli	a3,a3,0xa
    566c:	854a                	mv	a0,s2
    566e:	973e                	add	a4,a4,a5
    5670:	471c                	lw	a5,8(a4)
    5672:	8edd                	or	a3,a3,a5
    5674:	231c                	lbu	a5,0(a4)
    5676:	4358                	lw	a4,4(a4)
    5678:	30078793          	addi	a5,a5,768
    567c:	07d2                	slli	a5,a5,0x14
    567e:	8edd                	or	a3,a3,a5
    5680:	e7ffc0ef          	jal	ra,24fe <lfs_dir_get>
    5684:	fc0557e3          	bgez	a0,5652 <lfs_file_opencfg_+0x190>
    5688:	fd7505e3          	beq	a0,s7,5652 <lfs_file_opencfg_+0x190>
    568c:	842a                	mv	s0,a0
    568e:	b549                	j	5510 <lfs_file_opencfg_+0x4e>
    5690:	036986b3          	mul	a3,s3,s6
    5694:	48b8                	lw	a4,80(s1)
    5696:	4358                	lw	a4,4(a4)
    5698:	9736                	add	a4,a4,a3
    569a:	4714                	lw	a3,8(a4)
    569c:	07892703          	lw	a4,120(s2)
    56a0:	06d76f63          	bltu	a4,a3,571e <lfs_file_opencfg_+0x25c>
    56a4:	0187e7b3          	or	a5,a5,s8
    56a8:	d89c                	sw	a5,48(s1)
    56aa:	bf45                	j	565a <lfs_file_opencfg_+0x198>
    56ac:	0289a503          	lw	a0,40(s3)
    56b0:	732030ef          	jal	ra,8de2 <malloc>
    56b4:	c4e8                	sw	a0,76(s1)
    56b6:	f505                	bnez	a0,55de <lfs_file_opencfg_+0x11c>
    56b8:	5451                	li	s0,-12
    56ba:	bd99                	j	5510 <lfs_file_opencfg_+0x4e>
    56bc:	589c                	lw	a5,48(s1)
    56be:	010006b7          	lui	a3,0x1000
    56c2:	5779                	li	a4,-2
    56c4:	8fd5                	or	a5,a5,a3
    56c6:	d89c                	sw	a5,48(s1)
    56c8:	06892783          	lw	a5,104(s2)
    56cc:	3ff47413          	andi	s0,s0,1023
    56d0:	d498                	sw	a4,40(s1)
    56d2:	5794                	lw	a3,40(a5)
    56d4:	d4c0                	sw	s0,44(s1)
    56d6:	c0b8                	sw	a4,64(s1)
    56d8:	0404a223          	sw	zero,68(s1)
    56dc:	c4b4                	sw	a3,72(s1)
    56de:	d819                	beqz	s0,55f4 <lfs_file_opencfg_+0x132>
    56e0:	20de                	lhu	a5,4(s1)
    56e2:	3fe00613          	li	a2,1022
    56e6:	44f8                	lw	a4,76(s1)
    56e8:	07aa                	slli	a5,a5,0xa
    56ea:	00d67463          	bgeu	a2,a3,56f2 <lfs_file_opencfg_+0x230>
    56ee:	3fe00693          	li	a3,1022
    56f2:	8edd                	or	a3,a3,a5
    56f4:	70100637          	lui	a2,0x70100
    56f8:	200007b7          	lui	a5,0x20000
    56fc:	8edd                	or	a3,a3,a5
    56fe:	c0060613          	addi	a2,a2,-1024 # 700ffc00 <_eusrstack+0x500f7c00>
    5702:	85d2                	mv	a1,s4
    5704:	854a                	mv	a0,s2
    5706:	df9fc0ef          	jal	ra,24fe <lfs_dir_get>
    570a:	842a                	mv	s0,a0
    570c:	ee0554e3          	bgez	a0,55f4 <lfs_file_opencfg_+0x132>
    5710:	b501                	j	5510 <lfs_file_opencfg_+0x4e>
    5712:	5431                	li	s0,-20
    5714:	bbf5                	j	5510 <lfs_file_opencfg_+0x4e>
    5716:	543d                	li	s0,-17
    5718:	bbe5                	j	5510 <lfs_file_opencfg_+0x4e>
    571a:	542d                	li	s0,-21
    571c:	bbd5                	j	5510 <lfs_file_opencfg_+0x4e>
    571e:	5411                	li	s0,-28
    5720:	bbc5                	j	5510 <lfs_file_opencfg_+0x4e>

00005722 <lfs_file_write_>:
    5722:	af7fa2ef          	jal	t0,218 <__riscv_save_4>
    5726:	599c                	lw	a5,48(a1)
    5728:	1141                	addi	sp,sp,-16
    572a:	0027f713          	andi	a4,a5,2
    572e:	e30d                	bnez	a4,5750 <lfs_file_write_+0x2e>
    5730:	0000c6b7          	lui	a3,0xc
    5734:	662d                	lui	a2,0xb
    5736:	6585                	lui	a1,0x1
    5738:	0000b537          	lui	a0,0xb
    573c:	a4468693          	addi	a3,a3,-1468 # ba44 <defaults.4608+0x3f8>
    5740:	5c060613          	addi	a2,a2,1472 # b5c0 <__func__.4712>
    5744:	e5258593          	addi	a1,a1,-430 # e52 <RCC_GetClocksFreq+0x138>
    5748:	73450513          	addi	a0,a0,1844 # b734 <defaults.4608+0xe8>
    574c:	62e030ef          	jal	ra,8d7a <__assert_func>
    5750:	00c79713          	slli	a4,a5,0xc
    5754:	84aa                	mv	s1,a0
    5756:	842e                	mv	s0,a1
    5758:	8a32                	mv	s4,a2
    575a:	89b6                	mv	s3,a3
    575c:	04074263          	bltz	a4,57a0 <lfs_file_write_+0x7e>
    5760:	581c                	lw	a5,48(s0)
    5762:	01479713          	slli	a4,a5,0x14
    5766:	04074363          	bltz	a4,57ac <lfs_file_write_+0x8a>
    576a:	03442903          	lw	s2,52(s0) # 20100034 <_eusrstack+0xf8034>
    576e:	58f8                	lw	a4,116(s1)
    5770:	5515                	li	a0,-27
    5772:	013906b3          	add	a3,s2,s3
    5776:	02d76863          	bltu	a4,a3,57a6 <lfs_file_write_+0x84>
    577a:	00d79713          	slli	a4,a5,0xd
    577e:	02075d63          	bgez	a4,57b8 <lfs_file_write_+0x96>
    5782:	86ce                	mv	a3,s3
    5784:	8652                	mv	a2,s4
    5786:	85a2                	mv	a1,s0
    5788:	8526                	mv	a0,s1
    578a:	8c6ff0ef          	jal	ra,4850 <lfs_file_flushedwrite>
    578e:	00054c63          	bltz	a0,57a6 <lfs_file_write_+0x84>
    5792:	581c                	lw	a5,48(s0)
    5794:	ffee0737          	lui	a4,0xffee0
    5798:	177d                	addi	a4,a4,-1
    579a:	8ff9                	and	a5,a5,a4
    579c:	d81c                	sw	a5,48(s0)
    579e:	a021                	j	57a6 <lfs_file_write_+0x84>
    57a0:	b2eff0ef          	jal	ra,4ace <lfs_file_flush>
    57a4:	dd55                	beqz	a0,5760 <lfs_file_write_+0x3e>
    57a6:	0141                	addi	sp,sp,16
    57a8:	aa5fa06f          	j	24c <__riscv_restore_4>
    57ac:	5458                	lw	a4,44(s0)
    57ae:	5854                	lw	a3,52(s0)
    57b0:	fae6fde3          	bgeu	a3,a4,576a <lfs_file_write_+0x48>
    57b4:	d858                	sw	a4,52(s0)
    57b6:	bf55                	j	576a <lfs_file_write_+0x48>
    57b8:	545c                	lw	a5,44(s0)
    57ba:	fd27f4e3          	bgeu	a5,s2,5782 <lfs_file_write_+0x60>
    57be:	d85c                	sw	a5,52(s0)
    57c0:	4685                	li	a3,1
    57c2:	00f10613          	addi	a2,sp,15
    57c6:	85a2                	mv	a1,s0
    57c8:	8526                	mv	a0,s1
    57ca:	000107a3          	sb	zero,15(sp)
    57ce:	882ff0ef          	jal	ra,4850 <lfs_file_flushedwrite>
    57d2:	fc054ae3          	bltz	a0,57a6 <lfs_file_write_+0x84>
    57d6:	585c                	lw	a5,52(s0)
    57d8:	ff27e4e3          	bltu	a5,s2,57c0 <lfs_file_write_+0x9e>
    57dc:	b75d                	j	5782 <lfs_file_write_+0x60>

000057de <lfs_format>:
    57de:	a55fa2ef          	jal	t0,232 <__riscv_save_0>
    57e2:	711d                	addi	sp,sp,-96
    57e4:	842a                	mv	s0,a0
    57e6:	892e                	mv	s2,a1
    57e8:	e99fc0ef          	jal	ra,2680 <lfs_init>
    57ec:	0e051263          	bnez	a0,58d0 <lfs_format+0xf2>
    57f0:	02092783          	lw	a5,32(s2)
    57f4:	e38d                	bnez	a5,5816 <lfs_format+0x38>
    57f6:	0000c6b7          	lui	a3,0xc
    57fa:	662d                	lui	a2,0xb
    57fc:	6585                	lui	a1,0x1
    57fe:	0000b537          	lui	a0,0xb
    5802:	a7468693          	addi	a3,a3,-1420 # ba74 <defaults.4608+0x428>
    5806:	5dc60613          	addi	a2,a2,1500 # b5dc <__func__.4859>
    580a:	13758593          	addi	a1,a1,311 # 1137 <USART_Cmd+0xb>
    580e:	73450513          	addi	a0,a0,1844 # b734 <defaults.4608+0xe8>
    5812:	568030ef          	jal	ra,8d7a <__assert_func>
    5816:	543c                	lw	a5,104(s0)
    5818:	5068                	lw	a0,100(s0)
    581a:	4581                	li	a1,0
    581c:	57d0                	lw	a2,44(a5)
    581e:	a45fa0ef          	jal	ra,262 <memset>
    5822:	543c                	lw	a5,104(s0)
    5824:	5478                	lw	a4,108(s0)
    5826:	04042a23          	sw	zero,84(s0)
    582a:	57dc                	lw	a5,44(a5)
    582c:	078e                	slli	a5,a5,0x3
    582e:	00f77363          	bgeu	a4,a5,5834 <lfs_format+0x56>
    5832:	87ba                	mv	a5,a4
    5834:	cc3c                	sw	a5,88(s0)
    5836:	04042e23          	sw	zero,92(s0)
    583a:	d038                	sw	a4,96(s0)
    583c:	008c                	addi	a1,sp,64
    583e:	8522                	mv	a0,s0
    5840:	ef2fe0ef          	jal	ra,3f32 <lfs_dir_alloc.part.34>
    5844:	84aa                	mv	s1,a0
    5846:	ed35                	bnez	a0,58c2 <lfs_format+0xe4>
    5848:	000207b7          	lui	a5,0x20
    584c:	0785                	addi	a5,a5,1
    584e:	c83e                	sw	a5,16(sp)
    5850:	543c                	lw	a5,104(s0)
    5852:	468d                	li	a3,3
    5854:	1030                	addi	a2,sp,40
    5856:	4fdc                	lw	a5,28(a5)
    5858:	008c                	addi	a1,sp,64
    585a:	8522                	mv	a0,s0
    585c:	ca3e                	sw	a5,20(sp)
    585e:	547c                	lw	a5,108(s0)
    5860:	d602                	sw	zero,44(sp)
    5862:	cc3e                	sw	a5,24(sp)
    5864:	583c                	lw	a5,112(s0)
    5866:	ce3e                	sw	a5,28(sp)
    5868:	587c                	lw	a5,116(s0)
    586a:	d03e                	sw	a5,32(sp)
    586c:	5c3c                	lw	a5,120(s0)
    586e:	d23e                	sw	a5,36(sp)
    5870:	401007b7          	lui	a5,0x40100
    5874:	d43e                	sw	a5,40(sp)
    5876:	0ff007b7          	lui	a5,0xff00
    587a:	07a1                	addi	a5,a5,8
    587c:	d83e                	sw	a5,48(sp)
    587e:	0000c7b7          	lui	a5,0xc
    5882:	a8c78793          	addi	a5,a5,-1396 # ba8c <defaults.4608+0x440>
    5886:	da3e                	sw	a5,52(sp)
    5888:	201007b7          	lui	a5,0x20100
    588c:	07e1                	addi	a5,a5,24
    588e:	dc3e                	sw	a5,56(sp)
    5890:	081c                	addi	a5,sp,16
    5892:	de3e                	sw	a5,60(sp)
    5894:	97bff0ef          	jal	ra,520e <lfs_dir_commit>
    5898:	84aa                	mv	s1,a0
    589a:	e505                	bnez	a0,58c2 <lfs_format+0xe4>
    589c:	4681                	li	a3,0
    589e:	4601                	li	a2,0
    58a0:	008c                	addi	a1,sp,64
    58a2:	8522                	mv	a0,s0
    58a4:	04010b23          	sb	zero,86(sp)
    58a8:	967ff0ef          	jal	ra,520e <lfs_dir_commit>
    58ac:	84aa                	mv	s1,a0
    58ae:	e911                	bnez	a0,58c2 <lfs_format+0xe4>
    58b0:	4785                	li	a5,1
    58b2:	0030                	addi	a2,sp,8
    58b4:	008c                	addi	a1,sp,64
    58b6:	8522                	mv	a0,s0
    58b8:	c402                	sw	zero,8(sp)
    58ba:	c63e                	sw	a5,12(sp)
    58bc:	832fe0ef          	jal	ra,38ee <lfs_dir_fetch>
    58c0:	84aa                	mv	s1,a0
    58c2:	8522                	mv	a0,s0
    58c4:	cbdfc0ef          	jal	ra,2580 <lfs_deinit>
    58c8:	8526                	mv	a0,s1
    58ca:	6125                	addi	sp,sp,96
    58cc:	98bfa06f          	j	256 <__riscv_restore_0>
    58d0:	84aa                	mv	s1,a0
    58d2:	bfdd                	j	58c8 <lfs_format+0xea>

000058d4 <lfs_unmount>:
    58d4:	95ffa2ef          	jal	t0,232 <__riscv_save_0>
    58d8:	ca9fc0ef          	jal	ra,2580 <lfs_deinit>
    58dc:	97bfa06f          	j	256 <__riscv_restore_0>

000058e0 <lfs_mount>:
    58e0:	92bfa2ef          	jal	t0,20a <__riscv_save_10>
    58e4:	711d                	addi	sp,sp,-96
    58e6:	842a                	mv	s0,a0
    58e8:	d99fc0ef          	jal	ra,2680 <lfs_init>
    58ec:	892a                	mv	s2,a0
    58ee:	e14d                	bnez	a0,5990 <lfs_mount+0xb0>
    58f0:	4671                	li	a2,28
    58f2:	4581                	li	a1,0
    58f4:	0088                	addi	a0,sp,64
    58f6:	96dfa0ef          	jal	ra,262 <memset>
    58fa:	65a9                	lui	a1,0xa
    58fc:	4785                	li	a5,1
    58fe:	4641                	li	a2,16
    5900:	65058593          	addi	a1,a1,1616 # a650 <_exit+0x4>
    5904:	0828                	addi	a0,sp,24
    5906:	0000c9b7          	lui	s3,0xc
    590a:	6a41                	lui	s4,0x10
    590c:	cebe                	sw	a5,92(sp)
    590e:	a8c98993          	addi	s3,s3,-1396 # ba8c <defaults.4608+0x440>
    5912:	508030ef          	jal	ra,8e1a <memcpy>
    5916:	00003ab7          	lui	s5,0x3
    591a:	1a7d                	addi	s4,s4,-1
    591c:	0000bb37          	lui	s6,0xb
    5920:	0000bbb7          	lui	s7,0xb
    5924:	0000cc37          	lui	s8,0xc
    5928:	08a8                	addi	a0,sp,88
    592a:	f30fc0ef          	jal	ra,205a <lfs_pair_isnull>
    592e:	8caa                	mv	s9,a0
    5930:	c525                	beqz	a0,5998 <lfs_mount+0xb8>
    5932:	03040493          	addi	s1,s0,48
    5936:	8526                	mv	a0,s1
    5938:	f8cfc0ef          	jal	ra,20c4 <lfs_gstate_iszero>
    593c:	e50d                	bnez	a0,5966 <lfs_mount+0x86>
    593e:	5c1c                	lw	a5,56(s0)
    5940:	5858                	lw	a4,52(s0)
    5942:	5814                	lw	a3,48(s0)
    5944:	0000b837          	lui	a6,0xb
    5948:	6605                	lui	a2,0x1
    594a:	0000b5b7          	lui	a1,0xb
    594e:	0000c537          	lui	a0,0xc
    5952:	93c80813          	addi	a6,a6,-1732 # a93c <_exit+0x2f0>
    5956:	21e60613          	addi	a2,a2,542 # 121e <os_hal_adc_channel_init+0x22>
    595a:	73458593          	addi	a1,a1,1844 # b734 <defaults.4608+0xe8>
    595e:	30050513          	addi	a0,a0,768 # c300 <defaults.4608+0xcb4>
    5962:	595030ef          	jal	ra,96f6 <iprintf>
    5966:	5818                	lw	a4,48(s0)
    5968:	4631                	li	a2,12
    596a:	85a6                	mv	a1,s1
    596c:	01f75793          	srli	a5,a4,0x1f
    5970:	97ba                	add	a5,a5,a4
    5972:	d81c                	sw	a5,48(s0)
    5974:	03c40513          	addi	a0,s0,60
    5978:	4a2030ef          	jal	ra,8e1a <memcpy>
    597c:	5478                	lw	a4,108(s0)
    597e:	545c                	lw	a5,44(s0)
    5980:	04042c23          	sw	zero,88(s0)
    5984:	04042e23          	sw	zero,92(s0)
    5988:	02e7f7b3          	remu	a5,a5,a4
    598c:	d038                	sw	a4,96(s0)
    598e:	c87c                	sw	a5,84(s0)
    5990:	854a                	mv	a0,s2
    5992:	6125                	addi	sp,sp,96
    5994:	8affa06f          	j	242 <__riscv_restore_10>
    5998:	082c                	addi	a1,sp,24
    599a:	0088                	addi	a0,sp,64
    599c:	90cfe0ef          	jal	ra,3aa8 <lfs_tortoise_detectcycles>
    59a0:	84aa                	mv	s1,a0
    59a2:	0a054563          	bltz	a0,5a4c <lfs_mount+0x16c>
    59a6:	47a1                	li	a5,8
    59a8:	0ff00737          	lui	a4,0xff00
    59ac:	80000d37          	lui	s10,0x80000
    59b0:	ca3e                	sw	a5,20(sp)
    59b2:	00c10893          	addi	a7,sp,12
    59b6:	f76a8813          	addi	a6,s5,-138 # 2f76 <lfs_dir_find_match>
    59ba:	4781                	li	a5,0
    59bc:	0721                	addi	a4,a4,8
    59be:	c00d4693          	xori	a3,s10,-1024
    59c2:	08b0                	addi	a2,sp,88
    59c4:	008c                	addi	a1,sp,64
    59c6:	8522                	mv	a0,s0
    59c8:	c622                	sw	s0,12(sp)
    59ca:	c84e                	sw	s3,16(sp)
    59cc:	ae7fd0ef          	jal	ra,34b2 <lfs_dir_fetchmatch>
    59d0:	84aa                	mv	s1,a0
    59d2:	06054d63          	bltz	a0,5a4c <lfs_mount+0x16c>
    59d6:	18050e63          	beqz	a0,5b72 <lfs_mount+0x292>
    59da:	01651493          	slli	s1,a0,0x16
    59de:	84d9                	srai	s1,s1,0x16
    59e0:	57fd                	li	a5,-1
    59e2:	18f48863          	beq	s1,a5,5b72 <lfs_mount+0x292>
    59e6:	4786                	lw	a5,64(sp)
    59e8:	201006b7          	lui	a3,0x20100
    59ec:	1038                	addi	a4,sp,40
    59ee:	d01c                	sw	a5,32(s0)
    59f0:	4796                	lw	a5,68(sp)
    59f2:	06e1                	addi	a3,a3,24
    59f4:	c00d4613          	xori	a2,s10,-1024
    59f8:	d05c                	sw	a5,36(s0)
    59fa:	008c                	addi	a1,sp,64
    59fc:	8522                	mv	a0,s0
    59fe:	b01fc0ef          	jal	ra,24fe <lfs_dir_get>
    5a02:	84aa                	mv	s1,a0
    5a04:	04054463          	bltz	a0,5a4c <lfs_mount+0x16c>
    5a08:	5722                	lw	a4,40(sp)
    5a0a:	4609                	li	a2,2
    5a0c:	01071793          	slli	a5,a4,0x10
    5a10:	01075693          	srli	a3,a4,0x10
    5a14:	83c1                	srli	a5,a5,0x10
    5a16:	00c69563          	bne	a3,a2,5a20 <lfs_mount+0x140>
    5a1a:	4605                	li	a2,1
    5a1c:	02f67d63          	bgeu	a2,a5,5a56 <lfs_mount+0x176>
    5a20:	0000b8b7          	lui	a7,0xb
    5a24:	0742                	slli	a4,a4,0x10
    5a26:	6605                	lui	a2,0x1
    5a28:	0000b5b7          	lui	a1,0xb
    5a2c:	0000c537          	lui	a0,0xc
    5a30:	93c88893          	addi	a7,a7,-1732 # a93c <_exit+0x2f0>
    5a34:	4805                	li	a6,1
    5a36:	4789                	li	a5,2
    5a38:	8341                	srli	a4,a4,0x10
    5a3a:	1c460613          	addi	a2,a2,452 # 11c4 <os_hal_adc_core_init+0x70>
    5a3e:	73458593          	addi	a1,a1,1844 # b734 <defaults.4608+0xe8>
    5a42:	18850513          	addi	a0,a0,392 # c188 <defaults.4608+0xb3c>
    5a46:	4b1030ef          	jal	ra,96f6 <iprintf>
    5a4a:	54a9                	li	s1,-22
    5a4c:	8522                	mv	a0,s0
    5a4e:	e87ff0ef          	jal	ra,58d4 <lfs_unmount>
    5a52:	8926                	mv	s2,s1
    5a54:	bf35                	j	5990 <lfs_mount+0xb0>
    5a56:	e395                	bnez	a5,5a7a <lfs_mount+0x19a>
    5a58:	6605                	lui	a2,0x1
    5a5a:	93cb0893          	addi	a7,s6,-1732 # a93c <_exit+0x2f0>
    5a5e:	4805                	li	a6,1
    5a60:	4789                	li	a5,2
    5a62:	01477733          	and	a4,a4,s4
    5a66:	4689                	li	a3,2
    5a68:	1d360613          	addi	a2,a2,467 # 11d3 <os_hal_adc_core_init+0x7f>
    5a6c:	734b8593          	addi	a1,s7,1844 # b734 <defaults.4608+0xe8>
    5a70:	1c0c0513          	addi	a0,s8,448 # c1c0 <defaults.4608+0xb74>
    5a74:	483030ef          	jal	ra,96f6 <iprintf>
    5a78:	4c85                	li	s9,1
    5a7a:	581c                	lw	a5,48(s0)
    5a7c:	0ca6                	slli	s9,s9,0x9
    5a7e:	56d2                	lw	a3,52(sp)
    5a80:	dff7f793          	andi	a5,a5,-513
    5a84:	0197ecb3          	or	s9,a5,s9
    5a88:	03942823          	sw	s9,48(s0)
    5a8c:	c69d                	beqz	a3,5aba <lfs_mount+0x1da>
    5a8e:	5838                	lw	a4,112(s0)
    5a90:	02d77463          	bgeu	a4,a3,5ab8 <lfs_mount+0x1d8>
    5a94:	0000b7b7          	lui	a5,0xb
    5a98:	6605                	lui	a2,0x1
    5a9a:	0000b5b7          	lui	a1,0xb
    5a9e:	0000c537          	lui	a0,0xc
    5aa2:	93c78793          	addi	a5,a5,-1732 # a93c <_exit+0x2f0>
    5aa6:	1de60613          	addi	a2,a2,478 # 11de <os_hal_adc_core_init+0x8a>
    5aaa:	73458593          	addi	a1,a1,1844 # b734 <defaults.4608+0xe8>
    5aae:	20050513          	addi	a0,a0,512 # c200 <defaults.4608+0xbb4>
    5ab2:	445030ef          	jal	ra,96f6 <iprintf>
    5ab6:	bf51                	j	5a4a <lfs_mount+0x16a>
    5ab8:	d834                	sw	a3,112(s0)
    5aba:	56e2                	lw	a3,56(sp)
    5abc:	c68d                	beqz	a3,5ae6 <lfs_mount+0x206>
    5abe:	5878                	lw	a4,116(s0)
    5ac0:	02d77263          	bgeu	a4,a3,5ae4 <lfs_mount+0x204>
    5ac4:	0000b7b7          	lui	a5,0xb
    5ac8:	6605                	lui	a2,0x1
    5aca:	0000b5b7          	lui	a1,0xb
    5ace:	0000c537          	lui	a0,0xc
    5ad2:	93c78793          	addi	a5,a5,-1732 # a93c <_exit+0x2f0>
    5ad6:	1e960613          	addi	a2,a2,489 # 11e9 <os_hal_adc_core_init+0x95>
    5ada:	73458593          	addi	a1,a1,1844 # b734 <defaults.4608+0xe8>
    5ade:	23450513          	addi	a0,a0,564 # c234 <defaults.4608+0xbe8>
    5ae2:	bfc1                	j	5ab2 <lfs_mount+0x1d2>
    5ae4:	d874                	sw	a3,116(s0)
    5ae6:	56f2                	lw	a3,60(sp)
    5ae8:	ca95                	beqz	a3,5b1c <lfs_mount+0x23c>
    5aea:	5c38                	lw	a4,120(s0)
    5aec:	02d77263          	bgeu	a4,a3,5b10 <lfs_mount+0x230>
    5af0:	0000b7b7          	lui	a5,0xb
    5af4:	6605                	lui	a2,0x1
    5af6:	0000b5b7          	lui	a1,0xb
    5afa:	0000c537          	lui	a0,0xc
    5afe:	93c78793          	addi	a5,a5,-1732 # a93c <_exit+0x2f0>
    5b02:	1f460613          	addi	a2,a2,500 # 11f4 <os_hal_adc_core_init+0xa0>
    5b06:	73458593          	addi	a1,a1,1844 # b734 <defaults.4608+0xe8>
    5b0a:	26850513          	addi	a0,a0,616 # c268 <defaults.4608+0xc1c>
    5b0e:	b755                	j	5ab2 <lfs_mount+0x1d2>
    5b10:	5c7c                	lw	a5,124(s0)
    5b12:	dc34                	sw	a3,120(s0)
    5b14:	00f6f363          	bgeu	a3,a5,5b1a <lfs_mount+0x23a>
    5b18:	87b6                	mv	a5,a3
    5b1a:	dc7c                	sw	a5,124(s0)
    5b1c:	543c                	lw	a5,104(s0)
    5b1e:	56c2                	lw	a3,48(sp)
    5b20:	5398                	lw	a4,32(a5)
    5b22:	c31d                	beqz	a4,5b48 <lfs_mount+0x268>
    5b24:	02d70263          	beq	a4,a3,5b48 <lfs_mount+0x268>
    5b28:	0000b7b7          	lui	a5,0xb
    5b2c:	6605                	lui	a2,0x1
    5b2e:	0000b5b7          	lui	a1,0xb
    5b32:	0000c537          	lui	a0,0xc
    5b36:	93c78793          	addi	a5,a5,-1732 # a93c <_exit+0x2f0>
    5b3a:	20360613          	addi	a2,a2,515 # 1203 <os_hal_adc_channel_init+0x7>
    5b3e:	73458593          	addi	a1,a1,1844 # b734 <defaults.4608+0xe8>
    5b42:	29c50513          	addi	a0,a0,668 # c29c <defaults.4608+0xc50>
    5b46:	b7b5                	j	5ab2 <lfs_mount+0x1d2>
    5b48:	d474                	sw	a3,108(s0)
    5b4a:	4fd8                	lw	a4,28(a5)
    5b4c:	56b2                	lw	a3,44(sp)
    5b4e:	02e68263          	beq	a3,a4,5b72 <lfs_mount+0x292>
    5b52:	0000b7b7          	lui	a5,0xb
    5b56:	6605                	lui	a2,0x1
    5b58:	0000b5b7          	lui	a1,0xb
    5b5c:	0000c537          	lui	a0,0xc
    5b60:	93c78793          	addi	a5,a5,-1732 # a93c <_exit+0x2f0>
    5b64:	20c60613          	addi	a2,a2,524 # 120c <os_hal_adc_channel_init+0x10>
    5b68:	73458593          	addi	a1,a1,1844 # b734 <defaults.4608+0xe8>
    5b6c:	2d050513          	addi	a0,a0,720 # c2d0 <defaults.4608+0xc84>
    5b70:	b789                	j	5ab2 <lfs_mount+0x1d2>
    5b72:	03040613          	addi	a2,s0,48
    5b76:	008c                	addi	a1,sp,64
    5b78:	8522                	mv	a0,s0
    5b7a:	999fc0ef          	jal	ra,2512 <lfs_dir_getgstate>
    5b7e:	84aa                	mv	s1,a0
    5b80:	da0504e3          	beqz	a0,5928 <lfs_mount+0x48>
    5b84:	b5e1                	j	5a4c <lfs_mount+0x16c>

00005b86 <lfs_file_open>:
    5b86:	eacfa2ef          	jal	t0,232 <__riscv_save_0>
    5b8a:	842a                	mv	s0,a0
    5b8c:	5508                	lw	a0,40(a0)
    5b8e:	1141                	addi	sp,sp,-16
    5b90:	c632                	sw	a2,12(sp)
    5b92:	c436                	sw	a3,8(sp)
    5b94:	84ae                	mv	s1,a1
    5b96:	d64fc0ef          	jal	ra,20fa <lfs_mlist_isopen>
    5b9a:	46a2                	lw	a3,8(sp)
    5b9c:	4632                	lw	a2,12(sp)
    5b9e:	c10d                	beqz	a0,5bc0 <lfs_file_open+0x3a>
    5ba0:	0000c6b7          	lui	a3,0xc
    5ba4:	662d                	lui	a2,0xb
    5ba6:	6589                	lui	a1,0x2
    5ba8:	0000b537          	lui	a0,0xb
    5bac:	9b868693          	addi	a3,a3,-1608 # b9b8 <defaults.4608+0x36c>
    5bb0:	60c60613          	addi	a2,a2,1548 # b60c <__func__.5132>
    5bb4:	80d58593          	addi	a1,a1,-2035 # 180d <drv_fs_init+0x7>
    5bb8:	73450513          	addi	a0,a0,1844 # b734 <defaults.4608+0xe8>
    5bbc:	1be030ef          	jal	ra,8d7a <__assert_func>
    5bc0:	672d                	lui	a4,0xb
    5bc2:	64c70713          	addi	a4,a4,1612 # b64c <defaults.4608>
    5bc6:	85a6                	mv	a1,s1
    5bc8:	8522                	mv	a0,s0
    5bca:	8f9ff0ef          	jal	ra,54c2 <lfs_file_opencfg_>
    5bce:	0141                	addi	sp,sp,16
    5bd0:	e86fa06f          	j	256 <__riscv_restore_0>

00005bd4 <lfs_file_close>:
    5bd4:	e5efa2ef          	jal	t0,232 <__riscv_save_0>
    5bd8:	842a                	mv	s0,a0
    5bda:	5508                	lw	a0,40(a0)
    5bdc:	84ae                	mv	s1,a1
    5bde:	d1cfc0ef          	jal	ra,20fa <lfs_mlist_isopen>
    5be2:	e10d                	bnez	a0,5c04 <lfs_file_close+0x30>
    5be4:	0000c6b7          	lui	a3,0xc
    5be8:	662d                	lui	a2,0xb
    5bea:	6589                	lui	a1,0x2
    5bec:	0000b537          	lui	a0,0xb
    5bf0:	98068693          	addi	a3,a3,-1664 # b980 <defaults.4608+0x334>
    5bf4:	61c60613          	addi	a2,a2,1564 # b61c <__func__.5147>
    5bf8:	83158593          	addi	a1,a1,-1999 # 1831 <drv_fs_init+0x2b>
    5bfc:	73450513          	addi	a0,a0,1844 # b734 <defaults.4608+0xe8>
    5c00:	17a030ef          	jal	ra,8d7a <__assert_func>
    5c04:	85a6                	mv	a1,s1
    5c06:	8522                	mv	a0,s0
    5c08:	85fff0ef          	jal	ra,5466 <lfs_file_close_>
    5c0c:	e4afa06f          	j	256 <__riscv_restore_0>

00005c10 <lfs_file_read>:
    5c10:	e22fa2ef          	jal	t0,232 <__riscv_save_0>
    5c14:	842a                	mv	s0,a0
    5c16:	5508                	lw	a0,40(a0)
    5c18:	1141                	addi	sp,sp,-16
    5c1a:	c632                	sw	a2,12(sp)
    5c1c:	c436                	sw	a3,8(sp)
    5c1e:	84ae                	mv	s1,a1
    5c20:	cdafc0ef          	jal	ra,20fa <lfs_mlist_isopen>
    5c24:	46a2                	lw	a3,8(sp)
    5c26:	4632                	lw	a2,12(sp)
    5c28:	e10d                	bnez	a0,5c4a <lfs_file_read+0x3a>
    5c2a:	0000c6b7          	lui	a3,0xc
    5c2e:	662d                	lui	a2,0xb
    5c30:	6589                	lui	a1,0x2
    5c32:	98068693          	addi	a3,a3,-1664 # b980 <defaults.4608+0x334>
    5c36:	62c60613          	addi	a2,a2,1580 # b62c <__func__.5161>
    5c3a:	85358593          	addi	a1,a1,-1965 # 1853 <drv_fs_init+0x4d>
    5c3e:	0000b537          	lui	a0,0xb
    5c42:	73450513          	addi	a0,a0,1844 # b734 <defaults.4608+0xe8>
    5c46:	134030ef          	jal	ra,8d7a <__assert_func>
    5c4a:	589c                	lw	a5,48(s1)
    5c4c:	0017f713          	andi	a4,a5,1
    5c50:	ef01                	bnez	a4,5c68 <lfs_file_read+0x58>
    5c52:	0000c6b7          	lui	a3,0xc
    5c56:	662d                	lui	a2,0xb
    5c58:	6585                	lui	a1,0x1
    5c5a:	9f068693          	addi	a3,a3,-1552 # b9f0 <defaults.4608+0x3a4>
    5c5e:	5b060613          	addi	a2,a2,1456 # b5b0 <__func__.4684>
    5c62:	deb58593          	addi	a1,a1,-533 # deb <RCC_GetClocksFreq+0xd1>
    5c66:	bfe1                	j	5c3e <lfs_file_read+0x2e>
    5c68:	00d79713          	slli	a4,a5,0xd
    5c6c:	00074963          	bltz	a4,5c7e <lfs_file_read+0x6e>
    5c70:	85a6                	mv	a1,s1
    5c72:	8522                	mv	a0,s0
    5c74:	f81fd0ef          	jal	ra,3bf4 <lfs_file_flushedread>
    5c78:	0141                	addi	sp,sp,16
    5c7a:	ddcfa06f          	j	256 <__riscv_restore_0>
    5c7e:	85a6                	mv	a1,s1
    5c80:	8522                	mv	a0,s0
    5c82:	c636                	sw	a3,12(sp)
    5c84:	c432                	sw	a2,8(sp)
    5c86:	e49fe0ef          	jal	ra,4ace <lfs_file_flush>
    5c8a:	4622                	lw	a2,8(sp)
    5c8c:	46b2                	lw	a3,12(sp)
    5c8e:	d16d                	beqz	a0,5c70 <lfs_file_read+0x60>
    5c90:	b7e5                	j	5c78 <lfs_file_read+0x68>

00005c92 <lfs_file_write>:
    5c92:	da0fa2ef          	jal	t0,232 <__riscv_save_0>
    5c96:	842a                	mv	s0,a0
    5c98:	5508                	lw	a0,40(a0)
    5c9a:	1141                	addi	sp,sp,-16
    5c9c:	c632                	sw	a2,12(sp)
    5c9e:	c436                	sw	a3,8(sp)
    5ca0:	84ae                	mv	s1,a1
    5ca2:	c58fc0ef          	jal	ra,20fa <lfs_mlist_isopen>
    5ca6:	46a2                	lw	a3,8(sp)
    5ca8:	4632                	lw	a2,12(sp)
    5caa:	e10d                	bnez	a0,5ccc <lfs_file_write+0x3a>
    5cac:	0000c6b7          	lui	a3,0xc
    5cb0:	662d                	lui	a2,0xb
    5cb2:	6589                	lui	a1,0x2
    5cb4:	0000b537          	lui	a0,0xb
    5cb8:	98068693          	addi	a3,a3,-1664 # b980 <defaults.4608+0x334>
    5cbc:	63c60613          	addi	a2,a2,1596 # b63c <__func__.5170>
    5cc0:	86558593          	addi	a1,a1,-1947 # 1865 <drv_fs_init+0x5f>
    5cc4:	73450513          	addi	a0,a0,1844 # b734 <defaults.4608+0xe8>
    5cc8:	0b2030ef          	jal	ra,8d7a <__assert_func>
    5ccc:	85a6                	mv	a1,s1
    5cce:	8522                	mv	a0,s0
    5cd0:	a53ff0ef          	jal	ra,5722 <lfs_file_write_>
    5cd4:	0141                	addi	sp,sp,16
    5cd6:	d80fa06f          	j	256 <__riscv_restore_0>

00005cda <lfs_file_rewind>:
    5cda:	d58fa2ef          	jal	t0,232 <__riscv_save_0>
    5cde:	4681                	li	a3,0
    5ce0:	4601                	li	a2,0
    5ce2:	f0ffe0ef          	jal	ra,4bf0 <lfs_file_seek_>
    5ce6:	00a05363          	blez	a0,5cec <lfs_file_rewind+0x12>
    5cea:	4501                	li	a0,0
    5cec:	d6afa06f          	j	256 <__riscv_restore_0>

00005cf0 <lfs_crc>:
    5cf0:	66b1                	lui	a3,0xc
    5cf2:	4701                	li	a4,0
    5cf4:	36468693          	addi	a3,a3,868 # c364 <rtable.3322>
    5cf8:	00c71363          	bne	a4,a2,5cfe <lfs_crc+0xe>
    5cfc:	8082                	ret
    5cfe:	00e587b3          	add	a5,a1,a4
    5d02:	239c                	lbu	a5,0(a5)
    5d04:	00455813          	srli	a6,a0,0x4
    5d08:	0705                	addi	a4,a4,1
    5d0a:	8d3d                	xor	a0,a0,a5
    5d0c:	893d                	andi	a0,a0,15
    5d0e:	050a                	slli	a0,a0,0x2
    5d10:	9536                	add	a0,a0,a3
    5d12:	4108                	lw	a0,0(a0)
    5d14:	8391                	srli	a5,a5,0x4
    5d16:	00a84833          	xor	a6,a6,a0
    5d1a:	0107c7b3          	xor	a5,a5,a6
    5d1e:	8bbd                	andi	a5,a5,15
    5d20:	078a                	slli	a5,a5,0x2
    5d22:	97b6                	add	a5,a5,a3
    5d24:	439c                	lw	a5,0(a5)
    5d26:	00485513          	srli	a0,a6,0x4
    5d2a:	8d3d                	xor	a0,a0,a5
    5d2c:	b7f1                	j	5cf8 <lfs_crc+0x8>

00005d2e <Delay_Init>:
    5d2e:	200007b7          	lui	a5,0x20000
    5d32:	0c07a783          	lw	a5,192(a5) # 200000c0 <SystemCoreClock>
    5d36:	007a1737          	lui	a4,0x7a1
    5d3a:	20070713          	addi	a4,a4,512 # 7a1200 <_data_lma+0x794aac>
    5d3e:	02e7d7b3          	divu	a5,a5,a4
    5d42:	0ff7f793          	andi	a5,a5,255
    5d46:	84f18f23          	sb	a5,-1954(gp) # 2000011e <p_us>
    5d4a:	3e800713          	li	a4,1000
    5d4e:	02e787b3          	mul	a5,a5,a4
    5d52:	84f19e23          	sh	a5,-1956(gp) # 2000011c <p_ms>
    5d56:	8082                	ret

00005d58 <Delay_Ms>:
    5d58:	e000f7b7          	lui	a5,0xe000f
    5d5c:	43d8                	lw	a4,4(a5)
    5d5e:	4681                	li	a3,0
    5d60:	9b79                	andi	a4,a4,-2
    5d62:	c3d8                	sw	a4,4(a5)
    5d64:	85c1d703          	lhu	a4,-1956(gp) # 2000011c <p_ms>
    5d68:	02a70633          	mul	a2,a4,a0
    5d6c:	cb90                	sw	a2,16(a5)
    5d6e:	cbd4                	sw	a3,20(a5)
    5d70:	4398                	lw	a4,0(a5)
    5d72:	01076713          	ori	a4,a4,16
    5d76:	c398                	sw	a4,0(a5)
    5d78:	4398                	lw	a4,0(a5)
    5d7a:	02176713          	ori	a4,a4,33
    5d7e:	c398                	sw	a4,0(a5)
    5d80:	43d8                	lw	a4,4(a5)
    5d82:	8b05                	andi	a4,a4,1
    5d84:	df75                	beqz	a4,5d80 <Delay_Ms+0x28>
    5d86:	4398                	lw	a4,0(a5)
    5d88:	9b79                	andi	a4,a4,-2
    5d8a:	c398                	sw	a4,0(a5)
    5d8c:	8082                	ret

00005d8e <USART_Printf_Init>:
    5d8e:	ca4fa2ef          	jal	t0,232 <__riscv_save_0>
    5d92:	842a                	mv	s0,a0
    5d94:	6511                	lui	a0,0x4
    5d96:	1101                	addi	sp,sp,-32
    5d98:	4585                	li	a1,1
    5d9a:	0511                	addi	a0,a0,4
    5d9c:	8f4fb0ef          	jal	ra,e90 <RCC_APB2PeriphClockCmd>
    5da0:	20000793          	li	a5,512
    5da4:	827c                	sh	a5,4(sp)
    5da6:	40011537          	lui	a0,0x40011
    5daa:	478d                	li	a5,3
    5dac:	c43e                	sw	a5,8(sp)
    5dae:	004c                	addi	a1,sp,4
    5db0:	47e1                	li	a5,24
    5db2:	80050513          	addi	a0,a0,-2048 # 40010800 <_eusrstack+0x20008800>
    5db6:	c63e                	sw	a5,12(sp)
    5db8:	e23fa0ef          	jal	ra,bda <GPIO_Init>
    5dbc:	c822                	sw	s0,16(sp)
    5dbe:	40014437          	lui	s0,0x40014
    5dc2:	000807b7          	lui	a5,0x80
    5dc6:	080c                	addi	a1,sp,16
    5dc8:	80040513          	addi	a0,s0,-2048 # 40013800 <_eusrstack+0x2000b800>
    5dcc:	cc3e                	sw	a5,24(sp)
    5dce:	ca02                	sw	zero,20(sp)
    5dd0:	00011e23          	sh	zero,28(sp)
    5dd4:	abcfb0ef          	jal	ra,1090 <USART_Init>
    5dd8:	4585                	li	a1,1
    5dda:	80040513          	addi	a0,s0,-2048
    5dde:	b4efb0ef          	jal	ra,112c <USART_Cmd>
    5de2:	6105                	addi	sp,sp,32
    5de4:	c72fa06f          	j	256 <__riscv_restore_0>

00005de8 <_write>:
    5de8:	c30fa2ef          	jal	t0,218 <__riscv_save_4>
    5dec:	400144b7          	lui	s1,0x40014
    5df0:	89ae                	mv	s3,a1
    5df2:	8932                	mv	s2,a2
    5df4:	4401                	li	s0,0
    5df6:	80048493          	addi	s1,s1,-2048 # 40013800 <_eusrstack+0x2000b800>
    5dfa:	01244563          	blt	s0,s2,5e04 <_write+0x1c>
    5dfe:	854a                	mv	a0,s2
    5e00:	c4cfa06f          	j	24c <__riscv_restore_4>
    5e04:	04000593          	li	a1,64
    5e08:	8526                	mv	a0,s1
    5e0a:	b40fb0ef          	jal	ra,114a <USART_GetFlagStatus>
    5e0e:	d97d                	beqz	a0,5e04 <_write+0x1c>
    5e10:	008987b3          	add	a5,s3,s0
    5e14:	00078583          	lb	a1,0(a5) # 80000 <_data_lma+0x738ac>
    5e18:	8526                	mv	a0,s1
    5e1a:	0405                	addi	s0,s0,1
    5e1c:	05c2                	slli	a1,a1,0x10
    5e1e:	81c1                	srli	a1,a1,0x10
    5e20:	b22fb0ef          	jal	ra,1142 <USART_SendData>
    5e24:	bfd9                	j	5dfa <_write+0x12>

00005e26 <_sbrk>:
    5e26:	80818713          	addi	a4,gp,-2040 # 200000c8 <curbrk.5280>
    5e2a:	431c                	lw	a5,0(a4)
    5e2c:	200026b7          	lui	a3,0x20002
    5e30:	22068693          	addi	a3,a3,544 # 20002220 <_ebss>
    5e34:	953e                	add	a0,a0,a5
    5e36:	00d56b63          	bltu	a0,a3,5e4c <_sbrk+0x26>
    5e3a:	200086b7          	lui	a3,0x20008
    5e3e:	80068693          	addi	a3,a3,-2048 # 20007800 <_heap_end>
    5e42:	00a6e563          	bltu	a3,a0,5e4c <_sbrk+0x26>
    5e46:	c308                	sw	a0,0(a4)
    5e48:	853e                	mv	a0,a5
    5e4a:	8082                	ret
    5e4c:	57fd                	li	a5,-1
    5e4e:	bfed                	j	5e48 <_sbrk+0x22>

00005e50 <log>:
    5e50:	715d                	addi	sp,sp,-80
    5e52:	c4a2                	sw	s0,72(sp)
    5e54:	c2a6                	sw	s1,68(sp)
    5e56:	c0ca                	sw	s2,64(sp)
    5e58:	de52                	sw	s4,60(sp)
    5e5a:	dc56                	sw	s5,56(sp)
    5e5c:	c686                	sw	ra,76(sp)
    5e5e:	842a                	mv	s0,a0
    5e60:	84ae                	mv	s1,a1
    5e62:	2201                	jal	5f62 <__ieee754_log>
    5e64:	80c18793          	addi	a5,gp,-2036 # 200000cc <__fdlib_version>
    5e68:	0007a903          	lw	s2,0(a5)
    5e6c:	57fd                	li	a5,-1
    5e6e:	8a2a                	mv	s4,a0
    5e70:	8aae                	mv	s5,a1
    5e72:	06f90d63          	beq	s2,a5,5eec <log+0x9c>
    5e76:	8622                	mv	a2,s0
    5e78:	86a6                	mv	a3,s1
    5e7a:	8522                	mv	a0,s0
    5e7c:	85a6                	mv	a1,s1
    5e7e:	7ff010ef          	jal	ra,7e7c <__unorddf2>
    5e82:	e52d                	bnez	a0,5eec <log+0x9c>
    5e84:	4601                	li	a2,0
    5e86:	4681                	li	a3,0
    5e88:	8522                	mv	a0,s0
    5e8a:	85a6                	mv	a1,s1
    5e8c:	34c010ef          	jal	ra,71d8 <__gedf2>
    5e90:	04a04e63          	bgtz	a0,5eec <log+0x9c>
    5e94:	00006797          	auipc	a5,0x6
    5e98:	52478793          	addi	a5,a5,1316 # c3b8 <rtable.3322+0x54>
    5e9c:	c63e                	sw	a5,12(sp)
    5e9e:	d402                	sw	zero,40(sp)
    5ea0:	c822                	sw	s0,16(sp)
    5ea2:	ca26                	sw	s1,20(sp)
    5ea4:	cc22                	sw	s0,24(sp)
    5ea6:	ce26                	sw	s1,28(sp)
    5ea8:	04090c63          	beqz	s2,5f00 <log+0xb0>
    5eac:	00006797          	auipc	a5,0x6
    5eb0:	4fc78793          	addi	a5,a5,1276 # c3a8 <rtable.3322+0x44>
    5eb4:	4398                	lw	a4,0(a5)
    5eb6:	43dc                	lw	a5,4(a5)
    5eb8:	4601                	li	a2,0
    5eba:	4681                	li	a3,0
    5ebc:	8522                	mv	a0,s0
    5ebe:	85a6                	mv	a1,s1
    5ec0:	d03a                	sw	a4,32(sp)
    5ec2:	d23e                	sw	a5,36(sp)
    5ec4:	2aa010ef          	jal	ra,716e <__eqdf2>
    5ec8:	e151                	bnez	a0,5f4c <log+0xfc>
    5eca:	4789                	li	a5,2
    5ecc:	c43e                	sw	a5,8(sp)
    5ece:	06f91b63          	bne	s2,a5,5f44 <log+0xf4>
    5ed2:	6e3020ef          	jal	ra,8db4 <__errno>
    5ed6:	02200793          	li	a5,34
    5eda:	c11c                	sw	a5,0(a0)
    5edc:	57a2                	lw	a5,40(sp)
    5ede:	cfb1                	beqz	a5,5f3a <log+0xea>
    5ee0:	6d5020ef          	jal	ra,8db4 <__errno>
    5ee4:	57a2                	lw	a5,40(sp)
    5ee6:	5a02                	lw	s4,32(sp)
    5ee8:	5a92                	lw	s5,36(sp)
    5eea:	c11c                	sw	a5,0(a0)
    5eec:	40b6                	lw	ra,76(sp)
    5eee:	4426                	lw	s0,72(sp)
    5ef0:	8552                	mv	a0,s4
    5ef2:	85d6                	mv	a1,s5
    5ef4:	4496                	lw	s1,68(sp)
    5ef6:	4906                	lw	s2,64(sp)
    5ef8:	5a72                	lw	s4,60(sp)
    5efa:	5ae2                	lw	s5,56(sp)
    5efc:	6161                	addi	sp,sp,80
    5efe:	8082                	ret
    5f00:	00006797          	auipc	a5,0x6
    5f04:	4b078793          	addi	a5,a5,1200 # c3b0 <rtable.3322+0x4c>
    5f08:	4398                	lw	a4,0(a5)
    5f0a:	43dc                	lw	a5,4(a5)
    5f0c:	4601                	li	a2,0
    5f0e:	4681                	li	a3,0
    5f10:	8522                	mv	a0,s0
    5f12:	85a6                	mv	a1,s1
    5f14:	d03a                	sw	a4,32(sp)
    5f16:	d23e                	sw	a5,36(sp)
    5f18:	256010ef          	jal	ra,716e <__eqdf2>
    5f1c:	c115                	beqz	a0,5f40 <log+0xf0>
    5f1e:	4785                	li	a5,1
    5f20:	c43e                	sw	a5,8(sp)
    5f22:	0028                	addi	a0,sp,8
    5f24:	2919                	jal	633a <matherr>
    5f26:	c905                	beqz	a0,5f56 <log+0x106>
    5f28:	00005517          	auipc	a0,0x5
    5f2c:	a1450513          	addi	a0,a0,-1516 # a93c <_exit+0x2f0>
    5f30:	2139                	jal	633e <nan>
    5f32:	d02a                	sw	a0,32(sp)
    5f34:	d22e                	sw	a1,36(sp)
    5f36:	57a2                	lw	a5,40(sp)
    5f38:	f7c5                	bnez	a5,5ee0 <log+0x90>
    5f3a:	5a02                	lw	s4,32(sp)
    5f3c:	5a92                	lw	s5,36(sp)
    5f3e:	b77d                	j	5eec <log+0x9c>
    5f40:	4789                	li	a5,2
    5f42:	c43e                	sw	a5,8(sp)
    5f44:	0028                	addi	a0,sp,8
    5f46:	2ed5                	jal	633a <matherr>
    5f48:	f57d                	bnez	a0,5f36 <log+0xe6>
    5f4a:	b761                	j	5ed2 <log+0x82>
    5f4c:	4785                	li	a5,1
    5f4e:	c43e                	sw	a5,8(sp)
    5f50:	4789                	li	a5,2
    5f52:	fcf918e3          	bne	s2,a5,5f22 <log+0xd2>
    5f56:	65f020ef          	jal	ra,8db4 <__errno>
    5f5a:	02100793          	li	a5,33
    5f5e:	c11c                	sw	a5,0(a0)
    5f60:	b7e1                	j	5f28 <log+0xd8>

00005f62 <__ieee754_log>:
    5f62:	715d                	addi	sp,sp,-80
    5f64:	c686                	sw	ra,76(sp)
    5f66:	c4a2                	sw	s0,72(sp)
    5f68:	c2a6                	sw	s1,68(sp)
    5f6a:	c0ca                	sw	s2,64(sp)
    5f6c:	de4e                	sw	s3,60(sp)
    5f6e:	dc52                	sw	s4,56(sp)
    5f70:	da56                	sw	s5,52(sp)
    5f72:	d85a                	sw	s6,48(sp)
    5f74:	d65e                	sw	s7,44(sp)
    5f76:	d462                	sw	s8,40(sp)
    5f78:	d266                	sw	s9,36(sp)
    5f7a:	d06a                	sw	s10,32(sp)
    5f7c:	ce6e                	sw	s11,28(sp)
    5f7e:	00100837          	lui	a6,0x100
    5f82:	872e                	mv	a4,a1
    5f84:	86aa                	mv	a3,a0
    5f86:	1305de63          	bge	a1,a6,60c2 <__ieee754_log+0x160>
    5f8a:	00159793          	slli	a5,a1,0x1
    5f8e:	8385                	srli	a5,a5,0x1
    5f90:	8fc9                	or	a5,a5,a0
    5f92:	2c078163          	beqz	a5,6254 <__ieee754_log+0x2f2>
    5f96:	3405cb63          	bltz	a1,62ec <__ieee754_log+0x38a>
    5f9a:	00006797          	auipc	a5,0x6
    5f9e:	42e78793          	addi	a5,a5,1070 # c3c8 <rtable.3322+0x64>
    5fa2:	4390                	lw	a2,0(a5)
    5fa4:	43d4                	lw	a3,4(a5)
    5fa6:	2e0010ef          	jal	ra,7286 <__muldf3>
    5faa:	87ae                	mv	a5,a1
    5fac:	7ff00637          	lui	a2,0x7ff00
    5fb0:	86aa                	mv	a3,a0
    5fb2:	872e                	mv	a4,a1
    5fb4:	fca00513          	li	a0,-54
    5fb8:	10c7db63          	bge	a5,a2,60ce <__ieee754_log+0x16c>
    5fbc:	00100637          	lui	a2,0x100
    5fc0:	fff60913          	addi	s2,a2,-1 # fffff <_data_lma+0xf38ab>
    5fc4:	00096737          	lui	a4,0x96
    5fc8:	0127fcb3          	and	s9,a5,s2
    5fcc:	f6470713          	addi	a4,a4,-156 # 95f64 <_data_lma+0x89810>
    5fd0:	9766                	add	a4,a4,s9
    5fd2:	8f71                	and	a4,a4,a2
    5fd4:	85b6                	mv	a1,a3
    5fd6:	3ff00837          	lui	a6,0x3ff00
    5fda:	00005697          	auipc	a3,0x5
    5fde:	a4668693          	addi	a3,a3,-1466 # aa20 <temp_ops+0x34>
    5fe2:	01074833          	xor	a6,a4,a6
    5fe6:	4290                	lw	a2,0(a3)
    5fe8:	87d1                	srai	a5,a5,0x14
    5fea:	42d4                	lw	a3,4(a3)
    5fec:	01986833          	or	a6,a6,s9
    5ff0:	c0178793          	addi	a5,a5,-1023
    5ff4:	97aa                	add	a5,a5,a0
    5ff6:	8751                	srai	a4,a4,0x14
    5ff8:	852e                	mv	a0,a1
    5ffa:	85c2                	mv	a1,a6
    5ffc:	00f70c33          	add	s8,a4,a5
    6000:	73e010ef          	jal	ra,773e <__subdf3>
    6004:	002c8793          	addi	a5,s9,2
    6008:	0127f7b3          	and	a5,a5,s2
    600c:	4709                	li	a4,2
    600e:	842a                	mv	s0,a0
    6010:	84ae                	mv	s1,a1
    6012:	0ef74263          	blt	a4,a5,60f6 <__ieee754_log+0x194>
    6016:	4601                	li	a2,0
    6018:	4681                	li	a3,0
    601a:	154010ef          	jal	ra,716e <__eqdf2>
    601e:	24050663          	beqz	a0,626a <__ieee754_log+0x308>
    6022:	00006797          	auipc	a5,0x6
    6026:	3be78793          	addi	a5,a5,958 # c3e0 <rtable.3322+0x7c>
    602a:	4390                	lw	a2,0(a5)
    602c:	43d4                	lw	a3,4(a5)
    602e:	8522                	mv	a0,s0
    6030:	85a6                	mv	a1,s1
    6032:	254010ef          	jal	ra,7286 <__muldf3>
    6036:	00006797          	auipc	a5,0x6
    603a:	3b278793          	addi	a5,a5,946 # c3e8 <rtable.3322+0x84>
    603e:	862a                	mv	a2,a0
    6040:	86ae                	mv	a3,a1
    6042:	4388                	lw	a0,0(a5)
    6044:	43cc                	lw	a1,4(a5)
    6046:	6f8010ef          	jal	ra,773e <__subdf3>
    604a:	892a                	mv	s2,a0
    604c:	89ae                	mv	s3,a1
    604e:	8622                	mv	a2,s0
    6050:	86a6                	mv	a3,s1
    6052:	8522                	mv	a0,s0
    6054:	85a6                	mv	a1,s1
    6056:	230010ef          	jal	ra,7286 <__muldf3>
    605a:	862a                	mv	a2,a0
    605c:	86ae                	mv	a3,a1
    605e:	854a                	mv	a0,s2
    6060:	85ce                	mv	a1,s3
    6062:	224010ef          	jal	ra,7286 <__muldf3>
    6066:	892a                	mv	s2,a0
    6068:	89ae                	mv	s3,a1
    606a:	260c0a63          	beqz	s8,62de <__ieee754_log+0x37c>
    606e:	8562                	mv	a0,s8
    6070:	649010ef          	jal	ra,7eb8 <__floatsidf>
    6074:	00006797          	auipc	a5,0x6
    6078:	35c78793          	addi	a5,a5,860 # c3d0 <rtable.3322+0x6c>
    607c:	4390                	lw	a2,0(a5)
    607e:	43d4                	lw	a3,4(a5)
    6080:	8b2a                	mv	s6,a0
    6082:	8bae                	mv	s7,a1
    6084:	202010ef          	jal	ra,7286 <__muldf3>
    6088:	00006797          	auipc	a5,0x6
    608c:	35078793          	addi	a5,a5,848 # c3d8 <rtable.3322+0x74>
    6090:	4390                	lw	a2,0(a5)
    6092:	43d4                	lw	a3,4(a5)
    6094:	8a2a                	mv	s4,a0
    6096:	8aae                	mv	s5,a1
    6098:	855a                	mv	a0,s6
    609a:	85de                	mv	a1,s7
    609c:	1ea010ef          	jal	ra,7286 <__muldf3>
    60a0:	862a                	mv	a2,a0
    60a2:	86ae                	mv	a3,a1
    60a4:	854a                	mv	a0,s2
    60a6:	85ce                	mv	a1,s3
    60a8:	696010ef          	jal	ra,773e <__subdf3>
    60ac:	8622                	mv	a2,s0
    60ae:	86a6                	mv	a3,s1
    60b0:	68e010ef          	jal	ra,773e <__subdf3>
    60b4:	862a                	mv	a2,a0
    60b6:	86ae                	mv	a3,a1
    60b8:	8552                	mv	a0,s4
    60ba:	85d6                	mv	a1,s5
    60bc:	682010ef          	jal	ra,773e <__subdf3>
    60c0:	a821                	j	60d8 <__ieee754_log+0x176>
    60c2:	87ae                	mv	a5,a1
    60c4:	7ff00637          	lui	a2,0x7ff00
    60c8:	4501                	li	a0,0
    60ca:	eec7c9e3          	blt	a5,a2,5fbc <__ieee754_log+0x5a>
    60ce:	8536                	mv	a0,a3
    60d0:	8636                	mv	a2,a3
    60d2:	85ba                	mv	a1,a4
    60d4:	86ba                	mv	a3,a4
    60d6:	2e55                	jal	648a <__adddf3>
    60d8:	40b6                	lw	ra,76(sp)
    60da:	4426                	lw	s0,72(sp)
    60dc:	4496                	lw	s1,68(sp)
    60de:	4906                	lw	s2,64(sp)
    60e0:	59f2                	lw	s3,60(sp)
    60e2:	5a62                	lw	s4,56(sp)
    60e4:	5ad2                	lw	s5,52(sp)
    60e6:	5b42                	lw	s6,48(sp)
    60e8:	5bb2                	lw	s7,44(sp)
    60ea:	5c22                	lw	s8,40(sp)
    60ec:	5c92                	lw	s9,36(sp)
    60ee:	5d02                	lw	s10,32(sp)
    60f0:	4df2                	lw	s11,28(sp)
    60f2:	6161                	addi	sp,sp,80
    60f4:	8082                	ret
    60f6:	00006797          	auipc	a5,0x6
    60fa:	2fa78793          	addi	a5,a5,762 # c3f0 <rtable.3322+0x8c>
    60fe:	4390                	lw	a2,0(a5)
    6100:	43d4                	lw	a3,4(a5)
    6102:	2661                	jal	648a <__adddf3>
    6104:	862a                	mv	a2,a0
    6106:	86ae                	mv	a3,a1
    6108:	8522                	mv	a0,s0
    610a:	85a6                	mv	a1,s1
    610c:	2af000ef          	jal	ra,6bba <__divdf3>
    6110:	8a2a                	mv	s4,a0
    6112:	8562                	mv	a0,s8
    6114:	8aae                	mv	s5,a1
    6116:	5a3010ef          	jal	ra,7eb8 <__floatsidf>
    611a:	8652                	mv	a2,s4
    611c:	86d6                	mv	a3,s5
    611e:	8b2a                	mv	s6,a0
    6120:	8bae                	mv	s7,a1
    6122:	8552                	mv	a0,s4
    6124:	85d6                	mv	a1,s5
    6126:	160010ef          	jal	ra,7286 <__muldf3>
    612a:	fff9f737          	lui	a4,0xfff9f
    612e:	b8670713          	addi	a4,a4,-1146 # fff9eb86 <_eusrstack+0xdff96b86>
    6132:	9766                	add	a4,a4,s9
    6134:	862a                	mv	a2,a0
    6136:	86ae                	mv	a3,a1
    6138:	c63a                	sw	a4,12(sp)
    613a:	8d2a                	mv	s10,a0
    613c:	8dae                	mv	s11,a1
    613e:	148010ef          	jal	ra,7286 <__muldf3>
    6142:	00006797          	auipc	a5,0x6
    6146:	2b678793          	addi	a5,a5,694 # c3f8 <rtable.3322+0x94>
    614a:	4390                	lw	a2,0(a5)
    614c:	43d4                	lw	a3,4(a5)
    614e:	892a                	mv	s2,a0
    6150:	89ae                	mv	s3,a1
    6152:	134010ef          	jal	ra,7286 <__muldf3>
    6156:	00006797          	auipc	a5,0x6
    615a:	2aa78793          	addi	a5,a5,682 # c400 <rtable.3322+0x9c>
    615e:	4390                	lw	a2,0(a5)
    6160:	43d4                	lw	a3,4(a5)
    6162:	2625                	jal	648a <__adddf3>
    6164:	864a                	mv	a2,s2
    6166:	86ce                	mv	a3,s3
    6168:	11e010ef          	jal	ra,7286 <__muldf3>
    616c:	00006797          	auipc	a5,0x6
    6170:	29c78793          	addi	a5,a5,668 # c408 <rtable.3322+0xa4>
    6174:	4390                	lw	a2,0(a5)
    6176:	43d4                	lw	a3,4(a5)
    6178:	2e09                	jal	648a <__adddf3>
    617a:	864a                	mv	a2,s2
    617c:	86ce                	mv	a3,s3
    617e:	108010ef          	jal	ra,7286 <__muldf3>
    6182:	00006797          	auipc	a5,0x6
    6186:	28e78793          	addi	a5,a5,654 # c410 <rtable.3322+0xac>
    618a:	4390                	lw	a2,0(a5)
    618c:	43d4                	lw	a3,4(a5)
    618e:	2cf5                	jal	648a <__adddf3>
    6190:	866a                	mv	a2,s10
    6192:	86ee                	mv	a3,s11
    6194:	0f2010ef          	jal	ra,7286 <__muldf3>
    6198:	00006797          	auipc	a5,0x6
    619c:	28078793          	addi	a5,a5,640 # c418 <rtable.3322+0xb4>
    61a0:	4390                	lw	a2,0(a5)
    61a2:	43d4                	lw	a3,4(a5)
    61a4:	8d2a                	mv	s10,a0
    61a6:	8dae                	mv	s11,a1
    61a8:	854a                	mv	a0,s2
    61aa:	85ce                	mv	a1,s3
    61ac:	0da010ef          	jal	ra,7286 <__muldf3>
    61b0:	00006797          	auipc	a5,0x6
    61b4:	27078793          	addi	a5,a5,624 # c420 <rtable.3322+0xbc>
    61b8:	4390                	lw	a2,0(a5)
    61ba:	43d4                	lw	a3,4(a5)
    61bc:	24f9                	jal	648a <__adddf3>
    61be:	864a                	mv	a2,s2
    61c0:	86ce                	mv	a3,s3
    61c2:	0c4010ef          	jal	ra,7286 <__muldf3>
    61c6:	00006797          	auipc	a5,0x6
    61ca:	26278793          	addi	a5,a5,610 # c428 <rtable.3322+0xc4>
    61ce:	4390                	lw	a2,0(a5)
    61d0:	43d4                	lw	a3,4(a5)
    61d2:	2c65                	jal	648a <__adddf3>
    61d4:	864a                	mv	a2,s2
    61d6:	86ce                	mv	a3,s3
    61d8:	0ae010ef          	jal	ra,7286 <__muldf3>
    61dc:	862a                	mv	a2,a0
    61de:	86ae                	mv	a3,a1
    61e0:	856a                	mv	a0,s10
    61e2:	85ee                	mv	a1,s11
    61e4:	245d                	jal	648a <__adddf3>
    61e6:	0006c7b7          	lui	a5,0x6c
    61ea:	4732                	lw	a4,12(sp)
    61ec:	85178793          	addi	a5,a5,-1967 # 6b851 <_data_lma+0x5f0fd>
    61f0:	41978cb3          	sub	s9,a5,s9
    61f4:	00ececb3          	or	s9,s9,a4
    61f8:	892a                	mv	s2,a0
    61fa:	89ae                	mv	s3,a1
    61fc:	0b905a63          	blez	s9,62b0 <__ieee754_log+0x34e>
    6200:	00006797          	auipc	a5,0x6
    6204:	1e878793          	addi	a5,a5,488 # c3e8 <rtable.3322+0x84>
    6208:	4390                	lw	a2,0(a5)
    620a:	43d4                	lw	a3,4(a5)
    620c:	8522                	mv	a0,s0
    620e:	85a6                	mv	a1,s1
    6210:	076010ef          	jal	ra,7286 <__muldf3>
    6214:	8622                	mv	a2,s0
    6216:	86a6                	mv	a3,s1
    6218:	06e010ef          	jal	ra,7286 <__muldf3>
    621c:	862a                	mv	a2,a0
    621e:	86ae                	mv	a3,a1
    6220:	8d2a                	mv	s10,a0
    6222:	8dae                	mv	s11,a1
    6224:	854a                	mv	a0,s2
    6226:	85ce                	mv	a1,s3
    6228:	248d                	jal	648a <__adddf3>
    622a:	8652                	mv	a2,s4
    622c:	86d6                	mv	a3,s5
    622e:	058010ef          	jal	ra,7286 <__muldf3>
    6232:	892a                	mv	s2,a0
    6234:	89ae                	mv	s3,a1
    6236:	0c0c1463          	bnez	s8,62fe <__ieee754_log+0x39c>
    623a:	862a                	mv	a2,a0
    623c:	86ae                	mv	a3,a1
    623e:	856a                	mv	a0,s10
    6240:	85ee                	mv	a1,s11
    6242:	4fc010ef          	jal	ra,773e <__subdf3>
    6246:	862a                	mv	a2,a0
    6248:	86ae                	mv	a3,a1
    624a:	8522                	mv	a0,s0
    624c:	85a6                	mv	a1,s1
    624e:	4f0010ef          	jal	ra,773e <__subdf3>
    6252:	b559                	j	60d8 <__ieee754_log+0x176>
    6254:	00006797          	auipc	a5,0x6
    6258:	16c78793          	addi	a5,a5,364 # c3c0 <rtable.3322+0x5c>
    625c:	4388                	lw	a0,0(a5)
    625e:	43cc                	lw	a1,4(a5)
    6260:	4601                	li	a2,0
    6262:	4681                	li	a3,0
    6264:	157000ef          	jal	ra,6bba <__divdf3>
    6268:	bd85                	j	60d8 <__ieee754_log+0x176>
    626a:	4501                	li	a0,0
    626c:	4581                	li	a1,0
    626e:	e60c05e3          	beqz	s8,60d8 <__ieee754_log+0x176>
    6272:	8562                	mv	a0,s8
    6274:	445010ef          	jal	ra,7eb8 <__floatsidf>
    6278:	00006797          	auipc	a5,0x6
    627c:	15878793          	addi	a5,a5,344 # c3d0 <rtable.3322+0x6c>
    6280:	4390                	lw	a2,0(a5)
    6282:	43d4                	lw	a3,4(a5)
    6284:	892a                	mv	s2,a0
    6286:	89ae                	mv	s3,a1
    6288:	7ff000ef          	jal	ra,7286 <__muldf3>
    628c:	00006797          	auipc	a5,0x6
    6290:	14c78793          	addi	a5,a5,332 # c3d8 <rtable.3322+0x74>
    6294:	4390                	lw	a2,0(a5)
    6296:	43d4                	lw	a3,4(a5)
    6298:	842a                	mv	s0,a0
    629a:	84ae                	mv	s1,a1
    629c:	854a                	mv	a0,s2
    629e:	85ce                	mv	a1,s3
    62a0:	7e7000ef          	jal	ra,7286 <__muldf3>
    62a4:	862a                	mv	a2,a0
    62a6:	86ae                	mv	a3,a1
    62a8:	8522                	mv	a0,s0
    62aa:	85a6                	mv	a1,s1
    62ac:	2af9                	jal	648a <__adddf3>
    62ae:	b52d                	j	60d8 <__ieee754_log+0x176>
    62b0:	862a                	mv	a2,a0
    62b2:	86ae                	mv	a3,a1
    62b4:	8522                	mv	a0,s0
    62b6:	85a6                	mv	a1,s1
    62b8:	486010ef          	jal	ra,773e <__subdf3>
    62bc:	8652                	mv	a2,s4
    62be:	86d6                	mv	a3,s5
    62c0:	7c7000ef          	jal	ra,7286 <__muldf3>
    62c4:	892a                	mv	s2,a0
    62c6:	89ae                	mv	s3,a1
    62c8:	000c0b63          	beqz	s8,62de <__ieee754_log+0x37c>
    62cc:	00006797          	auipc	a5,0x6
    62d0:	10478793          	addi	a5,a5,260 # c3d0 <rtable.3322+0x6c>
    62d4:	4390                	lw	a2,0(a5)
    62d6:	43d4                	lw	a3,4(a5)
    62d8:	855a                	mv	a0,s6
    62da:	85de                	mv	a1,s7
    62dc:	b365                	j	6084 <__ieee754_log+0x122>
    62de:	864a                	mv	a2,s2
    62e0:	86ce                	mv	a3,s3
    62e2:	8522                	mv	a0,s0
    62e4:	85a6                	mv	a1,s1
    62e6:	458010ef          	jal	ra,773e <__subdf3>
    62ea:	b3fd                	j	60d8 <__ieee754_log+0x176>
    62ec:	862a                	mv	a2,a0
    62ee:	86ae                	mv	a3,a1
    62f0:	44e010ef          	jal	ra,773e <__subdf3>
    62f4:	4601                	li	a2,0
    62f6:	4681                	li	a3,0
    62f8:	0c3000ef          	jal	ra,6bba <__divdf3>
    62fc:	bbf1                	j	60d8 <__ieee754_log+0x176>
    62fe:	00006797          	auipc	a5,0x6
    6302:	0d278793          	addi	a5,a5,210 # c3d0 <rtable.3322+0x6c>
    6306:	4390                	lw	a2,0(a5)
    6308:	43d4                	lw	a3,4(a5)
    630a:	855a                	mv	a0,s6
    630c:	85de                	mv	a1,s7
    630e:	779000ef          	jal	ra,7286 <__muldf3>
    6312:	00006797          	auipc	a5,0x6
    6316:	0c678793          	addi	a5,a5,198 # c3d8 <rtable.3322+0x74>
    631a:	4390                	lw	a2,0(a5)
    631c:	43d4                	lw	a3,4(a5)
    631e:	8a2a                	mv	s4,a0
    6320:	8aae                	mv	s5,a1
    6322:	855a                	mv	a0,s6
    6324:	85de                	mv	a1,s7
    6326:	761000ef          	jal	ra,7286 <__muldf3>
    632a:	864a                	mv	a2,s2
    632c:	86ce                	mv	a3,s3
    632e:	2ab1                	jal	648a <__adddf3>
    6330:	862a                	mv	a2,a0
    6332:	86ae                	mv	a3,a1
    6334:	856a                	mv	a0,s10
    6336:	85ee                	mv	a1,s11
    6338:	bb85                	j	60a8 <__ieee754_log+0x146>

0000633a <matherr>:
    633a:	4501                	li	a0,0
    633c:	8082                	ret

0000633e <nan>:
    633e:	00006797          	auipc	a5,0x6
    6342:	0f278793          	addi	a5,a5,242 # c430 <rtable.3322+0xcc>
    6346:	4388                	lw	a0,0(a5)
    6348:	43cc                	lw	a1,4(a5)
    634a:	8082                	ret

0000634c <__clzsi2>:
    634c:	67c1                	lui	a5,0x10
    634e:	02f57c63          	bgeu	a0,a5,6386 <__clzsi2+0x3a>
    6352:	0ff00793          	li	a5,255
    6356:	02000713          	li	a4,32
    635a:	00a7eb63          	bltu	a5,a0,6370 <__clzsi2+0x24>
    635e:	00006797          	auipc	a5,0x6
    6362:	21a78793          	addi	a5,a5,538 # c578 <__clz_tab>
    6366:	97aa                	add	a5,a5,a0
    6368:	2388                	lbu	a0,0(a5)
    636a:	40a70533          	sub	a0,a4,a0
    636e:	8082                	ret
    6370:	8121                	srli	a0,a0,0x8
    6372:	00006797          	auipc	a5,0x6
    6376:	20678793          	addi	a5,a5,518 # c578 <__clz_tab>
    637a:	97aa                	add	a5,a5,a0
    637c:	2388                	lbu	a0,0(a5)
    637e:	4761                	li	a4,24
    6380:	40a70533          	sub	a0,a4,a0
    6384:	8082                	ret
    6386:	010007b7          	lui	a5,0x1000
    638a:	00f56d63          	bltu	a0,a5,63a4 <__clzsi2+0x58>
    638e:	8161                	srli	a0,a0,0x18
    6390:	00006797          	auipc	a5,0x6
    6394:	1e878793          	addi	a5,a5,488 # c578 <__clz_tab>
    6398:	97aa                	add	a5,a5,a0
    639a:	2388                	lbu	a0,0(a5)
    639c:	4721                	li	a4,8
    639e:	40a70533          	sub	a0,a4,a0
    63a2:	8082                	ret
    63a4:	8141                	srli	a0,a0,0x10
    63a6:	00006797          	auipc	a5,0x6
    63aa:	1d278793          	addi	a5,a5,466 # c578 <__clz_tab>
    63ae:	97aa                	add	a5,a5,a0
    63b0:	2388                	lbu	a0,0(a5)
    63b2:	4741                	li	a4,16
    63b4:	40a70533          	sub	a0,a4,a0
    63b8:	8082                	ret

000063ba <__ctzsi2>:
    63ba:	40a007b3          	neg	a5,a0
    63be:	8fe9                	and	a5,a5,a0
    63c0:	6741                	lui	a4,0x10
    63c2:	02e7f963          	bgeu	a5,a4,63f4 <__ctzsi2+0x3a>
    63c6:	0ff00713          	li	a4,255
    63ca:	56fd                	li	a3,-1
    63cc:	00f76a63          	bltu	a4,a5,63e0 <__ctzsi2+0x26>
    63d0:	00006717          	auipc	a4,0x6
    63d4:	1a870713          	addi	a4,a4,424 # c578 <__clz_tab>
    63d8:	97ba                	add	a5,a5,a4
    63da:	2388                	lbu	a0,0(a5)
    63dc:	9536                	add	a0,a0,a3
    63de:	8082                	ret
    63e0:	00006717          	auipc	a4,0x6
    63e4:	19870713          	addi	a4,a4,408 # c578 <__clz_tab>
    63e8:	83a1                	srli	a5,a5,0x8
    63ea:	97ba                	add	a5,a5,a4
    63ec:	2388                	lbu	a0,0(a5)
    63ee:	469d                	li	a3,7
    63f0:	9536                	add	a0,a0,a3
    63f2:	8082                	ret
    63f4:	01000737          	lui	a4,0x1000
    63f8:	00e7ec63          	bltu	a5,a4,6410 <__ctzsi2+0x56>
    63fc:	00006717          	auipc	a4,0x6
    6400:	17c70713          	addi	a4,a4,380 # c578 <__clz_tab>
    6404:	83e1                	srli	a5,a5,0x18
    6406:	97ba                	add	a5,a5,a4
    6408:	2388                	lbu	a0,0(a5)
    640a:	46dd                	li	a3,23
    640c:	9536                	add	a0,a0,a3
    640e:	8082                	ret
    6410:	00006717          	auipc	a4,0x6
    6414:	16870713          	addi	a4,a4,360 # c578 <__clz_tab>
    6418:	83c1                	srli	a5,a5,0x10
    641a:	97ba                	add	a5,a5,a4
    641c:	2388                	lbu	a0,0(a5)
    641e:	46bd                	li	a3,15
    6420:	9536                	add	a0,a0,a3
    6422:	8082                	ret

00006424 <__popcountsi2>:
    6424:	55555737          	lui	a4,0x55555
    6428:	00155793          	srli	a5,a0,0x1
    642c:	55570713          	addi	a4,a4,1365 # 55555555 <_eusrstack+0x3554d555>
    6430:	8ff9                	and	a5,a5,a4
    6432:	8d1d                	sub	a0,a0,a5
    6434:	333337b7          	lui	a5,0x33333
    6438:	00255713          	srli	a4,a0,0x2
    643c:	33378793          	addi	a5,a5,819 # 33333333 <_eusrstack+0x1332b333>
    6440:	8d7d                	and	a0,a0,a5
    6442:	8ff9                	and	a5,a5,a4
    6444:	953e                	add	a0,a0,a5
    6446:	00455793          	srli	a5,a0,0x4
    644a:	953e                	add	a0,a0,a5
    644c:	0f0f17b7          	lui	a5,0xf0f1
    6450:	f0f78793          	addi	a5,a5,-241 # f0f0f0f <_data_lma+0xf0e47bb>
    6454:	8fe9                	and	a5,a5,a0
    6456:	00879513          	slli	a0,a5,0x8
    645a:	953e                	add	a0,a0,a5
    645c:	01051793          	slli	a5,a0,0x10
    6460:	953e                	add	a0,a0,a5
    6462:	8161                	srli	a0,a0,0x18
    6464:	8082                	ret

00006466 <__bswapsi2>:
    6466:	01851693          	slli	a3,a0,0x18
    646a:	01855793          	srli	a5,a0,0x18
    646e:	8fd5                	or	a5,a5,a3
    6470:	66c1                	lui	a3,0x10
    6472:	40855713          	srai	a4,a0,0x8
    6476:	f0068693          	addi	a3,a3,-256 # ff00 <_data_lma+0x37ac>
    647a:	8f75                	and	a4,a4,a3
    647c:	8fd9                	or	a5,a5,a4
    647e:	0522                	slli	a0,a0,0x8
    6480:	00ff0737          	lui	a4,0xff0
    6484:	8d79                	and	a0,a0,a4
    6486:	8d5d                	or	a0,a0,a5
    6488:	8082                	ret

0000648a <__adddf3>:
    648a:	00100837          	lui	a6,0x100
    648e:	1101                	addi	sp,sp,-32
    6490:	187d                	addi	a6,a6,-1
    6492:	00b87733          	and	a4,a6,a1
    6496:	ca26                	sw	s1,20(sp)
    6498:	00d87833          	and	a6,a6,a3
    649c:	0145d493          	srli	s1,a1,0x14
    64a0:	0146d313          	srli	t1,a3,0x14
    64a4:	00371e13          	slli	t3,a4,0x3
    64a8:	c64e                	sw	s3,12(sp)
    64aa:	01d55713          	srli	a4,a0,0x1d
    64ae:	080e                	slli	a6,a6,0x3
    64b0:	01d65793          	srli	a5,a2,0x1d
    64b4:	7ff4f493          	andi	s1,s1,2047
    64b8:	7ff37313          	andi	t1,t1,2047
    64bc:	ce06                	sw	ra,28(sp)
    64be:	cc22                	sw	s0,24(sp)
    64c0:	c84a                	sw	s2,16(sp)
    64c2:	01f5d993          	srli	s3,a1,0x1f
    64c6:	01f6de93          	srli	t4,a3,0x1f
    64ca:	01c76733          	or	a4,a4,t3
    64ce:	00351f13          	slli	t5,a0,0x3
    64d2:	0107e833          	or	a6,a5,a6
    64d6:	00361f93          	slli	t6,a2,0x3
    64da:	40648e33          	sub	t3,s1,t1
    64de:	19d98063          	beq	s3,t4,665e <__adddf3+0x1d4>
    64e2:	13c05663          	blez	t3,660e <__adddf3+0x184>
    64e6:	1c030463          	beqz	t1,66ae <__adddf3+0x224>
    64ea:	008006b7          	lui	a3,0x800
    64ee:	7ff00793          	li	a5,2047
    64f2:	00d86833          	or	a6,a6,a3
    64f6:	36f48f63          	beq	s1,a5,6874 <__adddf3+0x3ea>
    64fa:	03800793          	li	a5,56
    64fe:	35c7c063          	blt	a5,t3,683e <__adddf3+0x3b4>
    6502:	47fd                	li	a5,31
    6504:	47c7cd63          	blt	a5,t3,697e <__adddf3+0x4f4>
    6508:	02000513          	li	a0,32
    650c:	41c50533          	sub	a0,a0,t3
    6510:	01cfd7b3          	srl	a5,t6,t3
    6514:	00a816b3          	sll	a3,a6,a0
    6518:	00af9933          	sll	s2,t6,a0
    651c:	8edd                	or	a3,a3,a5
    651e:	01203933          	snez	s2,s2
    6522:	01c857b3          	srl	a5,a6,t3
    6526:	0126e933          	or	s2,a3,s2
    652a:	8f1d                	sub	a4,a4,a5
    652c:	412f0933          	sub	s2,t5,s2
    6530:	012f37b3          	sltu	a5,t5,s2
    6534:	40f70633          	sub	a2,a4,a5
    6538:	00861793          	slli	a5,a2,0x8
    653c:	2407d463          	bgez	a5,6784 <__adddf3+0x2fa>
    6540:	00800737          	lui	a4,0x800
    6544:	177d                	addi	a4,a4,-1
    6546:	00e67433          	and	s0,a2,a4
    654a:	2c040c63          	beqz	s0,6822 <__adddf3+0x398>
    654e:	8522                	mv	a0,s0
    6550:	dfdff0ef          	jal	ra,634c <__clzsi2>
    6554:	ff850713          	addi	a4,a0,-8
    6558:	02000793          	li	a5,32
    655c:	8f99                	sub	a5,a5,a4
    655e:	00f957b3          	srl	a5,s2,a5
    6562:	00e41633          	sll	a2,s0,a4
    6566:	8fd1                	or	a5,a5,a2
    6568:	00e91933          	sll	s2,s2,a4
    656c:	2a974163          	blt	a4,s1,680e <__adddf3+0x384>
    6570:	40970533          	sub	a0,a4,s1
    6574:	00150613          	addi	a2,a0,1
    6578:	477d                	li	a4,31
    657a:	38c74d63          	blt	a4,a2,6914 <__adddf3+0x48a>
    657e:	02000713          	li	a4,32
    6582:	8f11                	sub	a4,a4,a2
    6584:	00c956b3          	srl	a3,s2,a2
    6588:	00e91933          	sll	s2,s2,a4
    658c:	00e79733          	sll	a4,a5,a4
    6590:	8f55                	or	a4,a4,a3
    6592:	01203933          	snez	s2,s2
    6596:	01276933          	or	s2,a4,s2
    659a:	00c7d633          	srl	a2,a5,a2
    659e:	4481                	li	s1,0
    65a0:	00797793          	andi	a5,s2,7
    65a4:	cf81                	beqz	a5,65bc <__adddf3+0x132>
    65a6:	00f97713          	andi	a4,s2,15
    65aa:	4791                	li	a5,4
    65ac:	00f70863          	beq	a4,a5,65bc <__adddf3+0x132>
    65b0:	00490713          	addi	a4,s2,4
    65b4:	01273933          	sltu	s2,a4,s2
    65b8:	964a                	add	a2,a2,s2
    65ba:	893a                	mv	s2,a4
    65bc:	00861793          	slli	a5,a2,0x8
    65c0:	1c07d663          	bgez	a5,678c <__adddf3+0x302>
    65c4:	00148513          	addi	a0,s1,1
    65c8:	7ff00793          	li	a5,2047
    65cc:	85ce                	mv	a1,s3
    65ce:	20f50463          	beq	a0,a5,67d6 <__adddf3+0x34c>
    65d2:	ff8007b7          	lui	a5,0xff800
    65d6:	17fd                	addi	a5,a5,-1
    65d8:	8ff1                	and	a5,a5,a2
    65da:	01d79893          	slli	a7,a5,0x1d
    65de:	00395913          	srli	s2,s2,0x3
    65e2:	07a6                	slli	a5,a5,0x9
    65e4:	0128e8b3          	or	a7,a7,s2
    65e8:	83b1                	srli	a5,a5,0xc
    65ea:	7ff57513          	andi	a0,a0,2047
    65ee:	00c79693          	slli	a3,a5,0xc
    65f2:	0552                	slli	a0,a0,0x14
    65f4:	40f2                	lw	ra,28(sp)
    65f6:	4462                	lw	s0,24(sp)
    65f8:	82b1                	srli	a3,a3,0xc
    65fa:	05fe                	slli	a1,a1,0x1f
    65fc:	8ec9                	or	a3,a3,a0
    65fe:	8ecd                	or	a3,a3,a1
    6600:	44d2                	lw	s1,20(sp)
    6602:	4942                	lw	s2,16(sp)
    6604:	49b2                	lw	s3,12(sp)
    6606:	8546                	mv	a0,a7
    6608:	85b6                	mv	a1,a3
    660a:	6105                	addi	sp,sp,32
    660c:	8082                	ret
    660e:	0a0e1e63          	bnez	t3,66ca <__adddf3+0x240>
    6612:	00148313          	addi	t1,s1,1
    6616:	7fe37313          	andi	t1,t1,2046
    661a:	22031763          	bnez	t1,6848 <__adddf3+0x3be>
    661e:	01e767b3          	or	a5,a4,t5
    6622:	01f868b3          	or	a7,a6,t6
    6626:	1a049d63          	bnez	s1,67e0 <__adddf3+0x356>
    662a:	40078763          	beqz	a5,6a38 <__adddf3+0x5ae>
    662e:	44088663          	beqz	a7,6a7a <__adddf3+0x5f0>
    6632:	41ff0933          	sub	s2,t5,t6
    6636:	410707b3          	sub	a5,a4,a6
    663a:	012f3633          	sltu	a2,t5,s2
    663e:	40c78633          	sub	a2,a5,a2
    6642:	00861793          	slli	a5,a2,0x8
    6646:	4c07d663          	bgez	a5,6b12 <__adddf3+0x688>
    664a:	41ef8933          	sub	s2,t6,t5
    664e:	40e807b3          	sub	a5,a6,a4
    6652:	012fb633          	sltu	a2,t6,s2
    6656:	40c78633          	sub	a2,a5,a2
    665a:	89f6                	mv	s3,t4
    665c:	b791                	j	65a0 <__adddf3+0x116>
    665e:	0fc05063          	blez	t3,673e <__adddf3+0x2b4>
    6662:	0c030063          	beqz	t1,6722 <__adddf3+0x298>
    6666:	008006b7          	lui	a3,0x800
    666a:	7ff00793          	li	a5,2047
    666e:	00d86833          	or	a6,a6,a3
    6672:	3af48a63          	beq	s1,a5,6a26 <__adddf3+0x59c>
    6676:	03800793          	li	a5,56
    667a:	13c7cb63          	blt	a5,t3,67b0 <__adddf3+0x326>
    667e:	47fd                	li	a5,31
    6680:	35c7df63          	bge	a5,t3,69de <__adddf3+0x554>
    6684:	fe0e0913          	addi	s2,t3,-32
    6688:	02000793          	li	a5,32
    668c:	012856b3          	srl	a3,a6,s2
    6690:	00fe0a63          	beq	t3,a5,66a4 <__adddf3+0x21a>
    6694:	04000913          	li	s2,64
    6698:	41c90933          	sub	s2,s2,t3
    669c:	01281933          	sll	s2,a6,s2
    66a0:	012fefb3          	or	t6,t6,s2
    66a4:	01f03933          	snez	s2,t6
    66a8:	00d96933          	or	s2,s2,a3
    66ac:	a231                	j	67b8 <__adddf3+0x32e>
    66ae:	01f867b3          	or	a5,a6,t6
    66b2:	1c078a63          	beqz	a5,6886 <__adddf3+0x3fc>
    66b6:	fffe0793          	addi	a5,t3,-1
    66ba:	38078c63          	beqz	a5,6a52 <__adddf3+0x5c8>
    66be:	7ff00693          	li	a3,2047
    66c2:	1ade0963          	beq	t3,a3,6874 <__adddf3+0x3ea>
    66c6:	8e3e                	mv	t3,a5
    66c8:	bd0d                	j	64fa <__adddf3+0x70>
    66ca:	409305b3          	sub	a1,t1,s1
    66ce:	22049163          	bnez	s1,68f0 <__adddf3+0x466>
    66d2:	01e767b3          	or	a5,a4,t5
    66d6:	32078763          	beqz	a5,6a04 <__adddf3+0x57a>
    66da:	fff58793          	addi	a5,a1,-1
    66de:	44078163          	beqz	a5,6b20 <__adddf3+0x696>
    66e2:	7ff00693          	li	a3,2047
    66e6:	20d58c63          	beq	a1,a3,68fe <__adddf3+0x474>
    66ea:	85be                	mv	a1,a5
    66ec:	03800793          	li	a5,56
    66f0:	2ab7cc63          	blt	a5,a1,69a8 <__adddf3+0x51e>
    66f4:	47fd                	li	a5,31
    66f6:	3cb7cf63          	blt	a5,a1,6ad4 <__adddf3+0x64a>
    66fa:	02000793          	li	a5,32
    66fe:	8f8d                	sub	a5,a5,a1
    6700:	00f71933          	sll	s2,a4,a5
    6704:	00bf56b3          	srl	a3,t5,a1
    6708:	00ff17b3          	sll	a5,t5,a5
    670c:	00d96933          	or	s2,s2,a3
    6710:	00f037b3          	snez	a5,a5
    6714:	00b75733          	srl	a4,a4,a1
    6718:	00f96933          	or	s2,s2,a5
    671c:	40e80833          	sub	a6,a6,a4
    6720:	ac41                	j	69b0 <__adddf3+0x526>
    6722:	01f867b3          	or	a5,a6,t6
    6726:	34078063          	beqz	a5,6a66 <__adddf3+0x5dc>
    672a:	fffe0793          	addi	a5,t3,-1
    672e:	20078a63          	beqz	a5,6942 <__adddf3+0x4b8>
    6732:	7ff00693          	li	a3,2047
    6736:	2ede0863          	beq	t3,a3,6a26 <__adddf3+0x59c>
    673a:	8e3e                	mv	t3,a5
    673c:	bf2d                	j	6676 <__adddf3+0x1ec>
    673e:	140e1e63          	bnez	t3,689a <__adddf3+0x410>
    6742:	00148693          	addi	a3,s1,1
    6746:	7fe6f793          	andi	a5,a3,2046
    674a:	34079163          	bnez	a5,6a8c <__adddf3+0x602>
    674e:	01e767b3          	or	a5,a4,t5
    6752:	2c049563          	bnez	s1,6a1c <__adddf3+0x592>
    6756:	3e078063          	beqz	a5,6b36 <__adddf3+0x6ac>
    675a:	01f867b3          	or	a5,a6,t6
    675e:	30078e63          	beqz	a5,6a7a <__adddf3+0x5f0>
    6762:	01ff0933          	add	s2,t5,t6
    6766:	010707b3          	add	a5,a4,a6
    676a:	01e93f33          	sltu	t5,s2,t5
    676e:	01e78633          	add	a2,a5,t5
    6772:	00861793          	slli	a5,a2,0x8
    6776:	0007d763          	bgez	a5,6784 <__adddf3+0x2fa>
    677a:	ff8007b7          	lui	a5,0xff800
    677e:	17fd                	addi	a5,a5,-1
    6780:	8e7d                	and	a2,a2,a5
    6782:	4485                	li	s1,1
    6784:	00797793          	andi	a5,s2,7
    6788:	e0079fe3          	bnez	a5,65a6 <__adddf3+0x11c>
    678c:	01d61793          	slli	a5,a2,0x1d
    6790:	00395893          	srli	a7,s2,0x3
    6794:	00f8e8b3          	or	a7,a7,a5
    6798:	00365793          	srli	a5,a2,0x3
    679c:	7ff00713          	li	a4,2047
    67a0:	04e48d63          	beq	s1,a4,67fa <__adddf3+0x370>
    67a4:	07b2                	slli	a5,a5,0xc
    67a6:	83b1                	srli	a5,a5,0xc
    67a8:	7ff4f513          	andi	a0,s1,2047
    67ac:	85ce                	mv	a1,s3
    67ae:	b581                	j	65ee <__adddf3+0x164>
    67b0:	01f86933          	or	s2,a6,t6
    67b4:	01203933          	snez	s2,s2
    67b8:	997a                	add	s2,s2,t5
    67ba:	01e937b3          	sltu	a5,s2,t5
    67be:	00e78633          	add	a2,a5,a4
    67c2:	00861793          	slli	a5,a2,0x8
    67c6:	fa07dfe3          	bgez	a5,6784 <__adddf3+0x2fa>
    67ca:	0485                	addi	s1,s1,1
    67cc:	7ff00793          	li	a5,2047
    67d0:	18f49663          	bne	s1,a5,695c <__adddf3+0x4d2>
    67d4:	85ce                	mv	a1,s3
    67d6:	7ff00513          	li	a0,2047
    67da:	4781                	li	a5,0
    67dc:	4881                	li	a7,0
    67de:	bd01                	j	65ee <__adddf3+0x164>
    67e0:	ebc1                	bnez	a5,6870 <__adddf3+0x3e6>
    67e2:	3a088463          	beqz	a7,6b8a <__adddf3+0x700>
    67e6:	00361693          	slli	a3,a2,0x3
    67ea:	01d81793          	slli	a5,a6,0x1d
    67ee:	828d                	srli	a3,a3,0x3
    67f0:	00d7e8b3          	or	a7,a5,a3
    67f4:	89f6                	mv	s3,t4
    67f6:	00385793          	srli	a5,a6,0x3
    67fa:	00f8e7b3          	or	a5,a7,a5
    67fe:	dbf9                	beqz	a5,67d4 <__adddf3+0x34a>
    6800:	4581                	li	a1,0
    6802:	7ff00513          	li	a0,2047
    6806:	000807b7          	lui	a5,0x80
    680a:	4881                	li	a7,0
    680c:	b3cd                	j	65ee <__adddf3+0x164>
    680e:	ff800637          	lui	a2,0xff800
    6812:	167d                	addi	a2,a2,-1
    6814:	8e7d                	and	a2,a2,a5
    6816:	00797793          	andi	a5,s2,7
    681a:	8c99                	sub	s1,s1,a4
    681c:	d80795e3          	bnez	a5,65a6 <__adddf3+0x11c>
    6820:	b7b5                	j	678c <__adddf3+0x302>
    6822:	854a                	mv	a0,s2
    6824:	b29ff0ef          	jal	ra,634c <__clzsi2>
    6828:	01850713          	addi	a4,a0,24
    682c:	47fd                	li	a5,31
    682e:	d2e7d5e3          	bge	a5,a4,6558 <__adddf3+0xce>
    6832:	ff850613          	addi	a2,a0,-8
    6836:	00c917b3          	sll	a5,s2,a2
    683a:	4901                	li	s2,0
    683c:	bb05                	j	656c <__adddf3+0xe2>
    683e:	01f86933          	or	s2,a6,t6
    6842:	01203933          	snez	s2,s2
    6846:	b1dd                	j	652c <__adddf3+0xa2>
    6848:	41ff0933          	sub	s2,t5,t6
    684c:	41070633          	sub	a2,a4,a6
    6850:	012f3433          	sltu	s0,t5,s2
    6854:	40860433          	sub	s0,a2,s0
    6858:	00841793          	slli	a5,s0,0x8
    685c:	2407cd63          	bltz	a5,6ab6 <__adddf3+0x62c>
    6860:	008968b3          	or	a7,s2,s0
    6864:	ce0893e3          	bnez	a7,654a <__adddf3+0xc0>
    6868:	4781                	li	a5,0
    686a:	4981                	li	s3,0
    686c:	4481                	li	s1,0
    686e:	bf1d                	j	67a4 <__adddf3+0x31a>
    6870:	f80898e3          	bnez	a7,6800 <__adddf3+0x376>
    6874:	050e                	slli	a0,a0,0x3
    6876:	01d71793          	slli	a5,a4,0x1d
    687a:	810d                	srli	a0,a0,0x3
    687c:	00a7e8b3          	or	a7,a5,a0
    6880:	00375793          	srli	a5,a4,0x3
    6884:	bf9d                	j	67fa <__adddf3+0x370>
    6886:	050e                	slli	a0,a0,0x3
    6888:	01d71793          	slli	a5,a4,0x1d
    688c:	810d                	srli	a0,a0,0x3
    688e:	00a7e8b3          	or	a7,a5,a0
    6892:	84f2                	mv	s1,t3
    6894:	00375793          	srli	a5,a4,0x3
    6898:	b711                	j	679c <__adddf3+0x312>
    689a:	40930533          	sub	a0,t1,s1
    689e:	12048263          	beqz	s1,69c2 <__adddf3+0x538>
    68a2:	008006b7          	lui	a3,0x800
    68a6:	7ff00793          	li	a5,2047
    68aa:	8f55                	or	a4,a4,a3
    68ac:	2ef30d63          	beq	t1,a5,6ba6 <__adddf3+0x71c>
    68b0:	03800793          	li	a5,56
    68b4:	20a7cb63          	blt	a5,a0,6aca <__adddf3+0x640>
    68b8:	47fd                	li	a5,31
    68ba:	2aa7c363          	blt	a5,a0,6b60 <__adddf3+0x6d6>
    68be:	02000793          	li	a5,32
    68c2:	8f89                	sub	a5,a5,a0
    68c4:	00f71933          	sll	s2,a4,a5
    68c8:	00af56b3          	srl	a3,t5,a0
    68cc:	00ff17b3          	sll	a5,t5,a5
    68d0:	00d96933          	or	s2,s2,a3
    68d4:	00f037b3          	snez	a5,a5
    68d8:	00a75733          	srl	a4,a4,a0
    68dc:	00f96933          	or	s2,s2,a5
    68e0:	983a                	add	a6,a6,a4
    68e2:	997e                	add	s2,s2,t6
    68e4:	01f937b3          	sltu	a5,s2,t6
    68e8:	01078633          	add	a2,a5,a6
    68ec:	849a                	mv	s1,t1
    68ee:	bdd1                	j	67c2 <__adddf3+0x338>
    68f0:	008006b7          	lui	a3,0x800
    68f4:	7ff00793          	li	a5,2047
    68f8:	8f55                	or	a4,a4,a3
    68fa:	def319e3          	bne	t1,a5,66ec <__adddf3+0x262>
    68fe:	00361793          	slli	a5,a2,0x3
    6902:	838d                	srli	a5,a5,0x3
    6904:	01d81893          	slli	a7,a6,0x1d
    6908:	0117e8b3          	or	a7,a5,a7
    690c:	89f6                	mv	s3,t4
    690e:	00385793          	srli	a5,a6,0x3
    6912:	b5e5                	j	67fa <__adddf3+0x370>
    6914:	fe150713          	addi	a4,a0,-31
    6918:	02000693          	li	a3,32
    691c:	00e7d733          	srl	a4,a5,a4
    6920:	00d60a63          	beq	a2,a3,6934 <__adddf3+0x4aa>
    6924:	04000693          	li	a3,64
    6928:	40c68633          	sub	a2,a3,a2
    692c:	00c79633          	sll	a2,a5,a2
    6930:	00c96933          	or	s2,s2,a2
    6934:	01203933          	snez	s2,s2
    6938:	00e96933          	or	s2,s2,a4
    693c:	4601                	li	a2,0
    693e:	4481                	li	s1,0
    6940:	b591                	j	6784 <__adddf3+0x2fa>
    6942:	01ff0933          	add	s2,t5,t6
    6946:	010707b3          	add	a5,a4,a6
    694a:	01e93633          	sltu	a2,s2,t5
    694e:	963e                	add	a2,a2,a5
    6950:	00861793          	slli	a5,a2,0x8
    6954:	4485                	li	s1,1
    6956:	e207d7e3          	bgez	a5,6784 <__adddf3+0x2fa>
    695a:	4489                	li	s1,2
    695c:	ff8007b7          	lui	a5,0xff800
    6960:	17fd                	addi	a5,a5,-1
    6962:	8ff1                	and	a5,a5,a2
    6964:	00195713          	srli	a4,s2,0x1
    6968:	00197913          	andi	s2,s2,1
    696c:	01276933          	or	s2,a4,s2
    6970:	01f79893          	slli	a7,a5,0x1f
    6974:	0128e933          	or	s2,a7,s2
    6978:	0017d613          	srli	a2,a5,0x1
    697c:	b115                	j	65a0 <__adddf3+0x116>
    697e:	fe0e0913          	addi	s2,t3,-32
    6982:	02000793          	li	a5,32
    6986:	012856b3          	srl	a3,a6,s2
    698a:	00fe0a63          	beq	t3,a5,699e <__adddf3+0x514>
    698e:	04000913          	li	s2,64
    6992:	41c90933          	sub	s2,s2,t3
    6996:	01281933          	sll	s2,a6,s2
    699a:	012fefb3          	or	t6,t6,s2
    699e:	01f03933          	snez	s2,t6
    69a2:	00d96933          	or	s2,s2,a3
    69a6:	b659                	j	652c <__adddf3+0xa2>
    69a8:	01e76933          	or	s2,a4,t5
    69ac:	01203933          	snez	s2,s2
    69b0:	412f8933          	sub	s2,t6,s2
    69b4:	012fb7b3          	sltu	a5,t6,s2
    69b8:	40f80633          	sub	a2,a6,a5
    69bc:	849a                	mv	s1,t1
    69be:	89f6                	mv	s3,t4
    69c0:	bea5                	j	6538 <__adddf3+0xae>
    69c2:	01e767b3          	or	a5,a4,t5
    69c6:	18078263          	beqz	a5,6b4a <__adddf3+0x6c0>
    69ca:	fff50793          	addi	a5,a0,-1
    69ce:	1c078463          	beqz	a5,6b96 <__adddf3+0x70c>
    69d2:	7ff00693          	li	a3,2047
    69d6:	12d50463          	beq	a0,a3,6afe <__adddf3+0x674>
    69da:	853e                	mv	a0,a5
    69dc:	bdd1                	j	68b0 <__adddf3+0x426>
    69de:	02000793          	li	a5,32
    69e2:	41c787b3          	sub	a5,a5,t3
    69e6:	00f816b3          	sll	a3,a6,a5
    69ea:	00ff9933          	sll	s2,t6,a5
    69ee:	01cfd633          	srl	a2,t6,t3
    69f2:	8ed1                	or	a3,a3,a2
    69f4:	01203933          	snez	s2,s2
    69f8:	01c857b3          	srl	a5,a6,t3
    69fc:	0126e933          	or	s2,a3,s2
    6a00:	973e                	add	a4,a4,a5
    6a02:	bb5d                	j	67b8 <__adddf3+0x32e>
    6a04:	00361793          	slli	a5,a2,0x3
    6a08:	838d                	srli	a5,a5,0x3
    6a0a:	01d81893          	slli	a7,a6,0x1d
    6a0e:	0117e8b3          	or	a7,a5,a7
    6a12:	84ae                	mv	s1,a1
    6a14:	00385793          	srli	a5,a6,0x3
    6a18:	89f6                	mv	s3,t4
    6a1a:	b349                	j	679c <__adddf3+0x312>
    6a1c:	c3ed                	beqz	a5,6afe <__adddf3+0x674>
    6a1e:	01f86933          	or	s2,a6,t6
    6a22:	dc091fe3          	bnez	s2,6800 <__adddf3+0x376>
    6a26:	050e                	slli	a0,a0,0x3
    6a28:	01d71793          	slli	a5,a4,0x1d
    6a2c:	810d                	srli	a0,a0,0x3
    6a2e:	00f568b3          	or	a7,a0,a5
    6a32:	00375793          	srli	a5,a4,0x3
    6a36:	b3d1                	j	67fa <__adddf3+0x370>
    6a38:	0e088163          	beqz	a7,6b1a <__adddf3+0x690>
    6a3c:	00361693          	slli	a3,a2,0x3
    6a40:	01d81793          	slli	a5,a6,0x1d
    6a44:	828d                	srli	a3,a3,0x3
    6a46:	00d7e8b3          	or	a7,a5,a3
    6a4a:	89f6                	mv	s3,t4
    6a4c:	00385793          	srli	a5,a6,0x3
    6a50:	bb91                	j	67a4 <__adddf3+0x31a>
    6a52:	41ff0933          	sub	s2,t5,t6
    6a56:	410707b3          	sub	a5,a4,a6
    6a5a:	012f3f33          	sltu	t5,t5,s2
    6a5e:	41e78633          	sub	a2,a5,t5
    6a62:	4485                	li	s1,1
    6a64:	bcd1                	j	6538 <__adddf3+0xae>
    6a66:	050e                	slli	a0,a0,0x3
    6a68:	01d71793          	slli	a5,a4,0x1d
    6a6c:	810d                	srli	a0,a0,0x3
    6a6e:	00f568b3          	or	a7,a0,a5
    6a72:	84f2                	mv	s1,t3
    6a74:	00375793          	srli	a5,a4,0x3
    6a78:	b315                	j	679c <__adddf3+0x312>
    6a7a:	050e                	slli	a0,a0,0x3
    6a7c:	01d71793          	slli	a5,a4,0x1d
    6a80:	810d                	srli	a0,a0,0x3
    6a82:	00a7e8b3          	or	a7,a5,a0
    6a86:	00375793          	srli	a5,a4,0x3
    6a8a:	bb29                	j	67a4 <__adddf3+0x31a>
    6a8c:	7ff00793          	li	a5,2047
    6a90:	d4f682e3          	beq	a3,a5,67d4 <__adddf3+0x34a>
    6a94:	01ff0933          	add	s2,t5,t6
    6a98:	01e93633          	sltu	a2,s2,t5
    6a9c:	010707b3          	add	a5,a4,a6
    6aa0:	97b2                	add	a5,a5,a2
    6aa2:	01f79893          	slli	a7,a5,0x1f
    6aa6:	00195913          	srli	s2,s2,0x1
    6aaa:	0128e933          	or	s2,a7,s2
    6aae:	0017d613          	srli	a2,a5,0x1
    6ab2:	84b6                	mv	s1,a3
    6ab4:	b9c1                	j	6784 <__adddf3+0x2fa>
    6ab6:	41ef8933          	sub	s2,t6,t5
    6aba:	40e80733          	sub	a4,a6,a4
    6abe:	012fb633          	sltu	a2,t6,s2
    6ac2:	40c70433          	sub	s0,a4,a2
    6ac6:	89f6                	mv	s3,t4
    6ac8:	b449                	j	654a <__adddf3+0xc0>
    6aca:	01e76933          	or	s2,a4,t5
    6ace:	01203933          	snez	s2,s2
    6ad2:	bd01                	j	68e2 <__adddf3+0x458>
    6ad4:	fe058793          	addi	a5,a1,-32
    6ad8:	02000693          	li	a3,32
    6adc:	00f757b3          	srl	a5,a4,a5
    6ae0:	00d58a63          	beq	a1,a3,6af4 <__adddf3+0x66a>
    6ae4:	04000693          	li	a3,64
    6ae8:	40b685b3          	sub	a1,a3,a1
    6aec:	00b71733          	sll	a4,a4,a1
    6af0:	00ef6f33          	or	t5,t5,a4
    6af4:	01e03933          	snez	s2,t5
    6af8:	00f96933          	or	s2,s2,a5
    6afc:	bd55                	j	69b0 <__adddf3+0x526>
    6afe:	00361793          	slli	a5,a2,0x3
    6b02:	838d                	srli	a5,a5,0x3
    6b04:	01d81893          	slli	a7,a6,0x1d
    6b08:	0117e8b3          	or	a7,a5,a7
    6b0c:	00385793          	srli	a5,a6,0x3
    6b10:	b1ed                	j	67fa <__adddf3+0x370>
    6b12:	00c968b3          	or	a7,s2,a2
    6b16:	c60897e3          	bnez	a7,6784 <__adddf3+0x2fa>
    6b1a:	4781                	li	a5,0
    6b1c:	4981                	li	s3,0
    6b1e:	b159                	j	67a4 <__adddf3+0x31a>
    6b20:	41ef8933          	sub	s2,t6,t5
    6b24:	40e807b3          	sub	a5,a6,a4
    6b28:	012fb633          	sltu	a2,t6,s2
    6b2c:	40c78633          	sub	a2,a5,a2
    6b30:	89f6                	mv	s3,t4
    6b32:	4485                	li	s1,1
    6b34:	b411                	j	6538 <__adddf3+0xae>
    6b36:	00361693          	slli	a3,a2,0x3
    6b3a:	01d81793          	slli	a5,a6,0x1d
    6b3e:	828d                	srli	a3,a3,0x3
    6b40:	00d7e8b3          	or	a7,a5,a3
    6b44:	00385793          	srli	a5,a6,0x3
    6b48:	b9b1                	j	67a4 <__adddf3+0x31a>
    6b4a:	00361693          	slli	a3,a2,0x3
    6b4e:	01d81793          	slli	a5,a6,0x1d
    6b52:	828d                	srli	a3,a3,0x3
    6b54:	00d7e8b3          	or	a7,a5,a3
    6b58:	84aa                	mv	s1,a0
    6b5a:	00385793          	srli	a5,a6,0x3
    6b5e:	b93d                	j	679c <__adddf3+0x312>
    6b60:	fe050793          	addi	a5,a0,-32
    6b64:	02000693          	li	a3,32
    6b68:	00f757b3          	srl	a5,a4,a5
    6b6c:	00d50a63          	beq	a0,a3,6b80 <__adddf3+0x6f6>
    6b70:	04000693          	li	a3,64
    6b74:	40a68533          	sub	a0,a3,a0
    6b78:	00a71733          	sll	a4,a4,a0
    6b7c:	00ef6f33          	or	t5,t5,a4
    6b80:	01e03933          	snez	s2,t5
    6b84:	00f96933          	or	s2,s2,a5
    6b88:	bba9                	j	68e2 <__adddf3+0x458>
    6b8a:	4581                	li	a1,0
    6b8c:	7ff00513          	li	a0,2047
    6b90:	000807b7          	lui	a5,0x80
    6b94:	bca9                	j	65ee <__adddf3+0x164>
    6b96:	01ff0933          	add	s2,t5,t6
    6b9a:	010707b3          	add	a5,a4,a6
    6b9e:	01f93633          	sltu	a2,s2,t6
    6ba2:	963e                	add	a2,a2,a5
    6ba4:	b375                	j	6950 <__adddf3+0x4c6>
    6ba6:	00361693          	slli	a3,a2,0x3
    6baa:	01d81793          	slli	a5,a6,0x1d
    6bae:	828d                	srli	a3,a3,0x3
    6bb0:	00d7e8b3          	or	a7,a5,a3
    6bb4:	00385793          	srli	a5,a6,0x3
    6bb8:	b189                	j	67fa <__adddf3+0x370>

00006bba <__divdf3>:
    6bba:	7139                	addi	sp,sp,-64
    6bbc:	0145d793          	srli	a5,a1,0x14
    6bc0:	dc22                	sw	s0,56(sp)
    6bc2:	d84a                	sw	s2,48(sp)
    6bc4:	d256                	sw	s5,36(sp)
    6bc6:	892a                	mv	s2,a0
    6bc8:	00c59413          	slli	s0,a1,0xc
    6bcc:	de06                	sw	ra,60(sp)
    6bce:	da26                	sw	s1,52(sp)
    6bd0:	d64e                	sw	s3,44(sp)
    6bd2:	d452                	sw	s4,40(sp)
    6bd4:	d05a                	sw	s6,32(sp)
    6bd6:	ce5e                	sw	s7,28(sp)
    6bd8:	7ff7f513          	andi	a0,a5,2047
    6bdc:	8031                	srli	s0,s0,0xc
    6bde:	01f5da93          	srli	s5,a1,0x1f
    6be2:	10050b63          	beqz	a0,6cf8 <__divdf3+0x13e>
    6be6:	7ff00793          	li	a5,2047
    6bea:	14f50b63          	beq	a0,a5,6d40 <__divdf3+0x186>
    6bee:	01d95a13          	srli	s4,s2,0x1d
    6bf2:	040e                	slli	s0,s0,0x3
    6bf4:	008a6433          	or	s0,s4,s0
    6bf8:	00800a37          	lui	s4,0x800
    6bfc:	01446a33          	or	s4,s0,s4
    6c00:	00391b13          	slli	s6,s2,0x3
    6c04:	c0150493          	addi	s1,a0,-1023
    6c08:	4401                	li	s0,0
    6c0a:	4b81                	li	s7,0
    6c0c:	0146d813          	srli	a6,a3,0x14
    6c10:	00c69913          	slli	s2,a3,0xc
    6c14:	7ff87813          	andi	a6,a6,2047
    6c18:	88b2                	mv	a7,a2
    6c1a:	00c95913          	srli	s2,s2,0xc
    6c1e:	01f6d993          	srli	s3,a3,0x1f
    6c22:	08080e63          	beqz	a6,6cbe <__divdf3+0x104>
    6c26:	7ff00793          	li	a5,2047
    6c2a:	04f80063          	beq	a6,a5,6c6a <__divdf3+0xb0>
    6c2e:	01d65713          	srli	a4,a2,0x1d
    6c32:	090e                	slli	s2,s2,0x3
    6c34:	01276933          	or	s2,a4,s2
    6c38:	c0180813          	addi	a6,a6,-1023 # ffc01 <_data_lma+0xf34ad>
    6c3c:	008007b7          	lui	a5,0x800
    6c40:	00f96733          	or	a4,s2,a5
    6c44:	00361893          	slli	a7,a2,0x3
    6c48:	410484b3          	sub	s1,s1,a6
    6c4c:	4581                	li	a1,0
    6c4e:	47bd                	li	a5,15
    6c50:	013ac833          	xor	a6,s5,s3
    6c54:	1a87e463          	bltu	a5,s0,6dfc <__divdf3+0x242>
    6c58:	00005797          	auipc	a5,0x5
    6c5c:	7e078793          	addi	a5,a5,2016 # c438 <rtable.3322+0xd4>
    6c60:	040a                	slli	s0,s0,0x2
    6c62:	943e                	add	s0,s0,a5
    6c64:	4010                	lw	a2,0(s0)
    6c66:	963e                	add	a2,a2,a5
    6c68:	8602                	jr	a2
    6c6a:	00c96733          	or	a4,s2,a2
    6c6e:	80148493          	addi	s1,s1,-2047
    6c72:	10071263          	bnez	a4,6d76 <__divdf3+0x1bc>
    6c76:	00246413          	ori	s0,s0,2
    6c7a:	4881                	li	a7,0
    6c7c:	4589                	li	a1,2
    6c7e:	bfc1                	j	6c4e <__divdf3+0x94>
    6c80:	7ff00613          	li	a2,2047
    6c84:	4781                	li	a5,0
    6c86:	4701                	li	a4,0
    6c88:	07b2                	slli	a5,a5,0xc
    6c8a:	50f2                	lw	ra,60(sp)
    6c8c:	5462                	lw	s0,56(sp)
    6c8e:	0652                	slli	a2,a2,0x14
    6c90:	83b1                	srli	a5,a5,0xc
    6c92:	087e                	slli	a6,a6,0x1f
    6c94:	8fd1                	or	a5,a5,a2
    6c96:	0107e7b3          	or	a5,a5,a6
    6c9a:	54d2                	lw	s1,52(sp)
    6c9c:	5942                	lw	s2,48(sp)
    6c9e:	59b2                	lw	s3,44(sp)
    6ca0:	5a22                	lw	s4,40(sp)
    6ca2:	5a92                	lw	s5,36(sp)
    6ca4:	5b02                	lw	s6,32(sp)
    6ca6:	4bf2                	lw	s7,28(sp)
    6ca8:	853a                	mv	a0,a4
    6caa:	85be                	mv	a1,a5
    6cac:	6121                	addi	sp,sp,64
    6cae:	8082                	ret
    6cb0:	4801                	li	a6,0
    6cb2:	7ff00613          	li	a2,2047
    6cb6:	000807b7          	lui	a5,0x80
    6cba:	4701                	li	a4,0
    6cbc:	b7f1                	j	6c88 <__divdf3+0xce>
    6cbe:	00c96733          	or	a4,s2,a2
    6cc2:	c74d                	beqz	a4,6d6c <__divdf3+0x1b2>
    6cc4:	30090863          	beqz	s2,6fd4 <__divdf3+0x41a>
    6cc8:	854a                	mv	a0,s2
    6cca:	c432                	sw	a2,8(sp)
    6ccc:	e80ff0ef          	jal	ra,634c <__clzsi2>
    6cd0:	4622                	lw	a2,8(sp)
    6cd2:	ff550713          	addi	a4,a0,-11
    6cd6:	47f5                	li	a5,29
    6cd8:	ff850693          	addi	a3,a0,-8
    6cdc:	8f99                	sub	a5,a5,a4
    6cde:	00d91933          	sll	s2,s2,a3
    6ce2:	00f657b3          	srl	a5,a2,a5
    6ce6:	0127e733          	or	a4,a5,s2
    6cea:	00d618b3          	sll	a7,a2,a3
    6cee:	9526                	add	a0,a0,s1
    6cf0:	3f350493          	addi	s1,a0,1011
    6cf4:	4581                	li	a1,0
    6cf6:	bfa1                	j	6c4e <__divdf3+0x94>
    6cf8:	01246a33          	or	s4,s0,s2
    6cfc:	060a0363          	beqz	s4,6d62 <__divdf3+0x1a8>
    6d00:	c636                	sw	a3,12(sp)
    6d02:	c432                	sw	a2,8(sp)
    6d04:	2a040663          	beqz	s0,6fb0 <__divdf3+0x3f6>
    6d08:	8522                	mv	a0,s0
    6d0a:	e42ff0ef          	jal	ra,634c <__clzsi2>
    6d0e:	4622                	lw	a2,8(sp)
    6d10:	46b2                	lw	a3,12(sp)
    6d12:	84aa                	mv	s1,a0
    6d14:	ff550713          	addi	a4,a0,-11
    6d18:	4a75                	li	s4,29
    6d1a:	ff848b13          	addi	s6,s1,-8
    6d1e:	40ea0a33          	sub	s4,s4,a4
    6d22:	01641433          	sll	s0,s0,s6
    6d26:	01495a33          	srl	s4,s2,s4
    6d2a:	008a6a33          	or	s4,s4,s0
    6d2e:	01691b33          	sll	s6,s2,s6
    6d32:	c0d00513          	li	a0,-1011
    6d36:	409504b3          	sub	s1,a0,s1
    6d3a:	4401                	li	s0,0
    6d3c:	4b81                	li	s7,0
    6d3e:	b5f9                	j	6c0c <__divdf3+0x52>
    6d40:	01246a33          	or	s4,s0,s2
    6d44:	000a1863          	bnez	s4,6d54 <__divdf3+0x19a>
    6d48:	4421                	li	s0,8
    6d4a:	4b01                	li	s6,0
    6d4c:	7ff00493          	li	s1,2047
    6d50:	4b89                	li	s7,2
    6d52:	bd6d                	j	6c0c <__divdf3+0x52>
    6d54:	8a22                	mv	s4,s0
    6d56:	8b4a                	mv	s6,s2
    6d58:	4431                	li	s0,12
    6d5a:	7ff00493          	li	s1,2047
    6d5e:	4b8d                	li	s7,3
    6d60:	b575                	j	6c0c <__divdf3+0x52>
    6d62:	4411                	li	s0,4
    6d64:	4b01                	li	s6,0
    6d66:	4481                	li	s1,0
    6d68:	4b85                	li	s7,1
    6d6a:	b54d                	j	6c0c <__divdf3+0x52>
    6d6c:	00146413          	ori	s0,s0,1
    6d70:	4881                	li	a7,0
    6d72:	4585                	li	a1,1
    6d74:	bde9                	j	6c4e <__divdf3+0x94>
    6d76:	00346413          	ori	s0,s0,3
    6d7a:	874a                	mv	a4,s2
    6d7c:	458d                	li	a1,3
    6d7e:	bdc1                	j	6c4e <__divdf3+0x94>
    6d80:	2e050a63          	beqz	a0,7074 <__divdf3+0x4ba>
    6d84:	4785                	li	a5,1
    6d86:	8f89                	sub	a5,a5,a0
    6d88:	03800693          	li	a3,56
    6d8c:	32f6dd63          	bge	a3,a5,70c6 <__divdf3+0x50c>
    6d90:	4601                	li	a2,0
    6d92:	4781                	li	a5,0
    6d94:	4701                	li	a4,0
    6d96:	bdcd                	j	6c88 <__divdf3+0xce>
    6d98:	86ce                	mv	a3,s3
    6d9a:	4789                	li	a5,2
    6d9c:	3af58d63          	beq	a1,a5,7156 <__divdf3+0x59c>
    6da0:	478d                	li	a5,3
    6da2:	f0f587e3          	beq	a1,a5,6cb0 <__divdf3+0xf6>
    6da6:	4785                	li	a5,1
    6da8:	8836                	mv	a6,a3
    6daa:	fef583e3          	beq	a1,a5,6d90 <__divdf3+0x1d6>
    6dae:	3ff48513          	addi	a0,s1,1023
    6db2:	fca057e3          	blez	a0,6d80 <__divdf3+0x1c6>
    6db6:	0078f793          	andi	a5,a7,7
    6dba:	28079663          	bnez	a5,7046 <__divdf3+0x48c>
    6dbe:	0038d693          	srli	a3,a7,0x3
    6dc2:	00771793          	slli	a5,a4,0x7
    6dc6:	0007d863          	bgez	a5,6dd6 <__divdf3+0x21c>
    6dca:	ff0007b7          	lui	a5,0xff000
    6dce:	17fd                	addi	a5,a5,-1
    6dd0:	8f7d                	and	a4,a4,a5
    6dd2:	40048513          	addi	a0,s1,1024
    6dd6:	7fe00793          	li	a5,2046
    6dda:	eaa7c3e3          	blt	a5,a0,6c80 <__divdf3+0xc6>
    6dde:	01d71613          	slli	a2,a4,0x1d
    6de2:	00971793          	slli	a5,a4,0x9
    6de6:	83b1                	srli	a5,a5,0xc
    6de8:	00d66733          	or	a4,a2,a3
    6dec:	7ff57613          	andi	a2,a0,2047
    6df0:	bd61                	j	6c88 <__divdf3+0xce>
    6df2:	86d6                	mv	a3,s5
    6df4:	8752                	mv	a4,s4
    6df6:	88da                	mv	a7,s6
    6df8:	85de                	mv	a1,s7
    6dfa:	b745                	j	6d9a <__divdf3+0x1e0>
    6dfc:	23476163          	bltu	a4,s4,701e <__divdf3+0x464>
    6e00:	20ea0d63          	beq	s4,a4,701a <__divdf3+0x460>
    6e04:	86da                	mv	a3,s6
    6e06:	14fd                	addi	s1,s1,-1
    6e08:	8452                	mv	s0,s4
    6e0a:	4b01                	li	s6,0
    6e0c:	00871793          	slli	a5,a4,0x8
    6e10:	0188d313          	srli	t1,a7,0x18
    6e14:	00f36333          	or	t1,t1,a5
    6e18:	01035e93          	srli	t4,t1,0x10
    6e1c:	03d457b3          	divu	a5,s0,t4
    6e20:	01031f13          	slli	t5,t1,0x10
    6e24:	010f5f13          	srli	t5,t5,0x10
    6e28:	0106d593          	srli	a1,a3,0x10
    6e2c:	00889e13          	slli	t3,a7,0x8
    6e30:	03d47433          	remu	s0,s0,t4
    6e34:	02ff0733          	mul	a4,t5,a5
    6e38:	0442                	slli	s0,s0,0x10
    6e3a:	8dc1                	or	a1,a1,s0
    6e3c:	00e5fb63          	bgeu	a1,a4,6e52 <__divdf3+0x298>
    6e40:	959a                	add	a1,a1,t1
    6e42:	fff78613          	addi	a2,a5,-1 # feffffff <_eusrstack+0xdeff7fff>
    6e46:	2665ee63          	bltu	a1,t1,70c2 <__divdf3+0x508>
    6e4a:	26e5fc63          	bgeu	a1,a4,70c2 <__divdf3+0x508>
    6e4e:	17f9                	addi	a5,a5,-2
    6e50:	959a                	add	a1,a1,t1
    6e52:	8d99                	sub	a1,a1,a4
    6e54:	03d5d733          	divu	a4,a1,t4
    6e58:	06c2                	slli	a3,a3,0x10
    6e5a:	82c1                	srli	a3,a3,0x10
    6e5c:	03d5f5b3          	remu	a1,a1,t4
    6e60:	02ef0633          	mul	a2,t5,a4
    6e64:	05c2                	slli	a1,a1,0x10
    6e66:	8dd5                	or	a1,a1,a3
    6e68:	00c5fb63          	bgeu	a1,a2,6e7e <__divdf3+0x2c4>
    6e6c:	959a                	add	a1,a1,t1
    6e6e:	fff70693          	addi	a3,a4,-1 # 7fffff <_data_lma+0x7f38ab>
    6e72:	2465e663          	bltu	a1,t1,70be <__divdf3+0x504>
    6e76:	24c5f463          	bgeu	a1,a2,70be <__divdf3+0x504>
    6e7a:	1779                	addi	a4,a4,-2
    6e7c:	959a                	add	a1,a1,t1
    6e7e:	07c2                	slli	a5,a5,0x10
    6e80:	6441                	lui	s0,0x10
    6e82:	8f5d                	or	a4,a4,a5
    6e84:	fff40793          	addi	a5,s0,-1 # ffff <_data_lma+0x38ab>
    6e88:	00f77533          	and	a0,a4,a5
    6e8c:	01075893          	srli	a7,a4,0x10
    6e90:	010e5f93          	srli	t6,t3,0x10
    6e94:	00fe77b3          	and	a5,t3,a5
    6e98:	02f502b3          	mul	t0,a0,a5
    6e9c:	40c586b3          	sub	a3,a1,a2
    6ea0:	02f883b3          	mul	t2,a7,a5
    6ea4:	0102d593          	srli	a1,t0,0x10
    6ea8:	02af8633          	mul	a2,t6,a0
    6eac:	961e                	add	a2,a2,t2
    6eae:	962e                	add	a2,a2,a1
    6eb0:	03f88533          	mul	a0,a7,t6
    6eb4:	00767363          	bgeu	a2,t2,6eba <__divdf3+0x300>
    6eb8:	9522                	add	a0,a0,s0
    6eba:	68c1                	lui	a7,0x10
    6ebc:	18fd                	addi	a7,a7,-1
    6ebe:	01065593          	srli	a1,a2,0x10
    6ec2:	01167633          	and	a2,a2,a7
    6ec6:	0642                	slli	a2,a2,0x10
    6ec8:	0112f8b3          	and	a7,t0,a7
    6ecc:	95aa                	add	a1,a1,a0
    6ece:	9646                	add	a2,a2,a7
    6ed0:	12b6e663          	bltu	a3,a1,6ffc <__divdf3+0x442>
    6ed4:	12b68263          	beq	a3,a1,6ff8 <__divdf3+0x43e>
    6ed8:	40cb0633          	sub	a2,s6,a2
    6edc:	8e8d                	sub	a3,a3,a1
    6ede:	00cb3b33          	sltu	s6,s6,a2
    6ee2:	41668b33          	sub	s6,a3,s6
    6ee6:	3ff48513          	addi	a0,s1,1023
    6eea:	17630c63          	beq	t1,s6,7062 <__divdf3+0x4a8>
    6eee:	03db58b3          	divu	a7,s6,t4
    6ef2:	01065593          	srli	a1,a2,0x10
    6ef6:	03db7b33          	remu	s6,s6,t4
    6efa:	031f06b3          	mul	a3,t5,a7
    6efe:	0b42                	slli	s6,s6,0x10
    6f00:	0165eb33          	or	s6,a1,s6
    6f04:	00db7b63          	bgeu	s6,a3,6f1a <__divdf3+0x360>
    6f08:	9b1a                	add	s6,s6,t1
    6f0a:	fff88593          	addi	a1,a7,-1 # ffff <_data_lma+0x38ab>
    6f0e:	206b6d63          	bltu	s6,t1,7128 <__divdf3+0x56e>
    6f12:	20db7b63          	bgeu	s6,a3,7128 <__divdf3+0x56e>
    6f16:	18f9                	addi	a7,a7,-2
    6f18:	9b1a                	add	s6,s6,t1
    6f1a:	40db0b33          	sub	s6,s6,a3
    6f1e:	03db56b3          	divu	a3,s6,t4
    6f22:	0642                	slli	a2,a2,0x10
    6f24:	8241                	srli	a2,a2,0x10
    6f26:	03db7b33          	remu	s6,s6,t4
    6f2a:	02df0f33          	mul	t5,t5,a3
    6f2e:	0b42                	slli	s6,s6,0x10
    6f30:	01666633          	or	a2,a2,s6
    6f34:	01e67b63          	bgeu	a2,t5,6f4a <__divdf3+0x390>
    6f38:	961a                	add	a2,a2,t1
    6f3a:	fff68593          	addi	a1,a3,-1 # 7fffff <_data_lma+0x7f38ab>
    6f3e:	1e666763          	bltu	a2,t1,712c <__divdf3+0x572>
    6f42:	1fe67563          	bgeu	a2,t5,712c <__divdf3+0x572>
    6f46:	16f9                	addi	a3,a3,-2
    6f48:	961a                	add	a2,a2,t1
    6f4a:	08c2                	slli	a7,a7,0x10
    6f4c:	00d8e8b3          	or	a7,a7,a3
    6f50:	01089593          	slli	a1,a7,0x10
    6f54:	0108d293          	srli	t0,a7,0x10
    6f58:	81c1                	srli	a1,a1,0x10
    6f5a:	02f58eb3          	mul	t4,a1,a5
    6f5e:	41e60633          	sub	a2,a2,t5
    6f62:	02bf85b3          	mul	a1,t6,a1
    6f66:	010ed693          	srli	a3,t4,0x10
    6f6a:	02f287b3          	mul	a5,t0,a5
    6f6e:	95be                	add	a1,a1,a5
    6f70:	96ae                	add	a3,a3,a1
    6f72:	025f8fb3          	mul	t6,t6,t0
    6f76:	00f6f463          	bgeu	a3,a5,6f7e <__divdf3+0x3c4>
    6f7a:	67c1                	lui	a5,0x10
    6f7c:	9fbe                	add	t6,t6,a5
    6f7e:	65c1                	lui	a1,0x10
    6f80:	15fd                	addi	a1,a1,-1
    6f82:	0106d793          	srli	a5,a3,0x10
    6f86:	8eed                	and	a3,a3,a1
    6f88:	06c2                	slli	a3,a3,0x10
    6f8a:	00befeb3          	and	t4,t4,a1
    6f8e:	9fbe                	add	t6,t6,a5
    6f90:	96f6                	add	a3,a3,t4
    6f92:	09f67f63          	bgeu	a2,t6,7030 <__divdf3+0x476>
    6f96:	961a                	add	a2,a2,t1
    6f98:	fff88793          	addi	a5,a7,-1
    6f9c:	1a666963          	bltu	a2,t1,714e <__divdf3+0x594>
    6fa0:	19f66863          	bltu	a2,t6,7130 <__divdf3+0x576>
    6fa4:	1bf60f63          	beq	a2,t6,7162 <__divdf3+0x5a8>
    6fa8:	88be                	mv	a7,a5
    6faa:	0018e893          	ori	a7,a7,1
    6fae:	b511                	j	6db2 <__divdf3+0x1f8>
    6fb0:	854a                	mv	a0,s2
    6fb2:	b9aff0ef          	jal	ra,634c <__clzsi2>
    6fb6:	01550713          	addi	a4,a0,21
    6fba:	45f1                	li	a1,28
    6fbc:	02050493          	addi	s1,a0,32
    6fc0:	4622                	lw	a2,8(sp)
    6fc2:	46b2                	lw	a3,12(sp)
    6fc4:	d4e5dae3          	bge	a1,a4,6d18 <__divdf3+0x15e>
    6fc8:	ff850413          	addi	s0,a0,-8
    6fcc:	00891a33          	sll	s4,s2,s0
    6fd0:	4b01                	li	s6,0
    6fd2:	b385                	j	6d32 <__divdf3+0x178>
    6fd4:	8532                	mv	a0,a2
    6fd6:	c432                	sw	a2,8(sp)
    6fd8:	b74ff0ef          	jal	ra,634c <__clzsi2>
    6fdc:	01550713          	addi	a4,a0,21
    6fe0:	46f1                	li	a3,28
    6fe2:	87aa                	mv	a5,a0
    6fe4:	4622                	lw	a2,8(sp)
    6fe6:	02050513          	addi	a0,a0,32
    6fea:	cee6d6e3          	bge	a3,a4,6cd6 <__divdf3+0x11c>
    6fee:	17e1                	addi	a5,a5,-8
    6ff0:	00f61733          	sll	a4,a2,a5
    6ff4:	4881                	li	a7,0
    6ff6:	b9e5                	j	6cee <__divdf3+0x134>
    6ff8:	eecb70e3          	bgeu	s6,a2,6ed8 <__divdf3+0x31e>
    6ffc:	9b72                	add	s6,s6,t3
    6ffe:	01cb3533          	sltu	a0,s6,t3
    7002:	951a                	add	a0,a0,t1
    7004:	96aa                	add	a3,a3,a0
    7006:	fff70513          	addi	a0,a4,-1
    700a:	02d37863          	bgeu	t1,a3,703a <__divdf3+0x480>
    700e:	10b6e663          	bltu	a3,a1,711a <__divdf3+0x560>
    7012:	10d58263          	beq	a1,a3,7116 <__divdf3+0x55c>
    7016:	872a                	mv	a4,a0
    7018:	b5c1                	j	6ed8 <__divdf3+0x31e>
    701a:	df1b65e3          	bltu	s6,a7,6e04 <__divdf3+0x24a>
    701e:	001b5593          	srli	a1,s6,0x1
    7022:	01fa1693          	slli	a3,s4,0x1f
    7026:	001a5413          	srli	s0,s4,0x1
    702a:	8ecd                	or	a3,a3,a1
    702c:	0b7e                	slli	s6,s6,0x1f
    702e:	bbf9                	j	6e0c <__divdf3+0x252>
    7030:	f7f61de3          	bne	a2,t6,6faa <__divdf3+0x3f0>
    7034:	d6068fe3          	beqz	a3,6db2 <__divdf3+0x1f8>
    7038:	bfb9                	j	6f96 <__divdf3+0x3dc>
    703a:	fcd31ee3          	bne	t1,a3,7016 <__divdf3+0x45c>
    703e:	fdcb78e3          	bgeu	s6,t3,700e <__divdf3+0x454>
    7042:	872a                	mv	a4,a0
    7044:	bd51                	j	6ed8 <__divdf3+0x31e>
    7046:	00f8f793          	andi	a5,a7,15
    704a:	4691                	li	a3,4
    704c:	d6d789e3          	beq	a5,a3,6dbe <__divdf3+0x204>
    7050:	ffc8b793          	sltiu	a5,a7,-4
    7054:	00488693          	addi	a3,a7,4
    7058:	0017c793          	xori	a5,a5,1
    705c:	828d                	srli	a3,a3,0x3
    705e:	973e                	add	a4,a4,a5
    7060:	b38d                	j	6dc2 <__divdf3+0x208>
    7062:	4681                	li	a3,0
    7064:	4785                	li	a5,1
    7066:	fea04ce3          	bgtz	a0,705e <__divdf3+0x4a4>
    706a:	58fd                	li	a7,-1
    706c:	d0051ce3          	bnez	a0,6d84 <__divdf3+0x1ca>
    7070:	c0100493          	li	s1,-1023
    7074:	4785                	li	a5,1
    7076:	41e48513          	addi	a0,s1,1054
    707a:	00a716b3          	sll	a3,a4,a0
    707e:	00f8d633          	srl	a2,a7,a5
    7082:	00a89533          	sll	a0,a7,a0
    7086:	8ed1                	or	a3,a3,a2
    7088:	00a03533          	snez	a0,a0
    708c:	8ec9                	or	a3,a3,a0
    708e:	0076f613          	andi	a2,a3,7
    7092:	00f75733          	srl	a4,a4,a5
    7096:	ce01                	beqz	a2,70ae <__divdf3+0x4f4>
    7098:	00f6f793          	andi	a5,a3,15
    709c:	4611                	li	a2,4
    709e:	00c78863          	beq	a5,a2,70ae <__divdf3+0x4f4>
    70a2:	00468793          	addi	a5,a3,4
    70a6:	00d7b6b3          	sltu	a3,a5,a3
    70aa:	9736                	add	a4,a4,a3
    70ac:	86be                	mv	a3,a5
    70ae:	00871793          	slli	a5,a4,0x8
    70b2:	0407d863          	bgez	a5,7102 <__divdf3+0x548>
    70b6:	4605                	li	a2,1
    70b8:	4781                	li	a5,0
    70ba:	4701                	li	a4,0
    70bc:	b6f1                	j	6c88 <__divdf3+0xce>
    70be:	8736                	mv	a4,a3
    70c0:	bb7d                	j	6e7e <__divdf3+0x2c4>
    70c2:	87b2                	mv	a5,a2
    70c4:	b379                	j	6e52 <__divdf3+0x298>
    70c6:	46fd                	li	a3,31
    70c8:	faf6d7e3          	bge	a3,a5,7076 <__divdf3+0x4bc>
    70cc:	5605                	li	a2,-31
    70ce:	8e09                	sub	a2,a2,a0
    70d0:	02000693          	li	a3,32
    70d4:	00c75633          	srl	a2,a4,a2
    70d8:	00d78863          	beq	a5,a3,70e8 <__divdf3+0x52e>
    70dc:	43e48793          	addi	a5,s1,1086
    70e0:	00f717b3          	sll	a5,a4,a5
    70e4:	00f8e8b3          	or	a7,a7,a5
    70e8:	011036b3          	snez	a3,a7
    70ec:	8ed1                	or	a3,a3,a2
    70ee:	0076f613          	andi	a2,a3,7
    70f2:	4781                	li	a5,0
    70f4:	ce01                	beqz	a2,710c <__divdf3+0x552>
    70f6:	00f6f793          	andi	a5,a3,15
    70fa:	4611                	li	a2,4
    70fc:	4701                	li	a4,0
    70fe:	fac792e3          	bne	a5,a2,70a2 <__divdf3+0x4e8>
    7102:	00971793          	slli	a5,a4,0x9
    7106:	01d71613          	slli	a2,a4,0x1d
    710a:	83b1                	srli	a5,a5,0xc
    710c:	0036d713          	srli	a4,a3,0x3
    7110:	8f51                	or	a4,a4,a2
    7112:	4601                	li	a2,0
    7114:	be95                	j	6c88 <__divdf3+0xce>
    7116:	f0cb70e3          	bgeu	s6,a2,7016 <__divdf3+0x45c>
    711a:	9b72                	add	s6,s6,t3
    711c:	01cb3533          	sltu	a0,s6,t3
    7120:	951a                	add	a0,a0,t1
    7122:	1779                	addi	a4,a4,-2
    7124:	96aa                	add	a3,a3,a0
    7126:	bb4d                	j	6ed8 <__divdf3+0x31e>
    7128:	88ae                	mv	a7,a1
    712a:	bbc5                	j	6f1a <__divdf3+0x360>
    712c:	86ae                	mv	a3,a1
    712e:	bd31                	j	6f4a <__divdf3+0x390>
    7130:	001e1793          	slli	a5,t3,0x1
    7134:	01c7be33          	sltu	t3,a5,t3
    7138:	9372                	add	t1,t1,t3
    713a:	961a                	add	a2,a2,t1
    713c:	18f9                	addi	a7,a7,-2
    713e:	8e3e                	mv	t3,a5
    7140:	e7f615e3          	bne	a2,t6,6faa <__divdf3+0x3f0>
    7144:	c6de07e3          	beq	t3,a3,6db2 <__divdf3+0x1f8>
    7148:	0018e893          	ori	a7,a7,1
    714c:	b19d                	j	6db2 <__divdf3+0x1f8>
    714e:	88be                	mv	a7,a5
    7150:	fff60ae3          	beq	a2,t6,7144 <__divdf3+0x58a>
    7154:	bd99                	j	6faa <__divdf3+0x3f0>
    7156:	8836                	mv	a6,a3
    7158:	7ff00613          	li	a2,2047
    715c:	4781                	li	a5,0
    715e:	4701                	li	a4,0
    7160:	b625                	j	6c88 <__divdf3+0xce>
    7162:	fcde67e3          	bltu	t3,a3,7130 <__divdf3+0x576>
    7166:	88be                	mv	a7,a5
    7168:	fede10e3          	bne	t3,a3,7148 <__divdf3+0x58e>
    716c:	b199                	j	6db2 <__divdf3+0x1f8>

0000716e <__eqdf2>:
    716e:	0145d713          	srli	a4,a1,0x14
    7172:	001007b7          	lui	a5,0x100
    7176:	17fd                	addi	a5,a5,-1
    7178:	0146d813          	srli	a6,a3,0x14
    717c:	7ff77713          	andi	a4,a4,2047
    7180:	7ff00893          	li	a7,2047
    7184:	00b7fe33          	and	t3,a5,a1
    7188:	8eaa                	mv	t4,a0
    718a:	8ff5                	and	a5,a5,a3
    718c:	81fd                	srli	a1,a1,0x1f
    718e:	8f32                	mv	t5,a2
    7190:	7ff87813          	andi	a6,a6,2047
    7194:	82fd                	srli	a3,a3,0x1f
    7196:	01170b63          	beq	a4,a7,71ac <__eqdf2+0x3e>
    719a:	4305                	li	t1,1
    719c:	01180663          	beq	a6,a7,71a8 <__eqdf2+0x3a>
    71a0:	01071463          	bne	a4,a6,71a8 <__eqdf2+0x3a>
    71a4:	00fe0d63          	beq	t3,a5,71be <__eqdf2+0x50>
    71a8:	851a                	mv	a0,t1
    71aa:	8082                	ret
    71ac:	00ae68b3          	or	a7,t3,a0
    71b0:	4305                	li	t1,1
    71b2:	fe089be3          	bnez	a7,71a8 <__eqdf2+0x3a>
    71b6:	fee819e3          	bne	a6,a4,71a8 <__eqdf2+0x3a>
    71ba:	8fd1                	or	a5,a5,a2
    71bc:	f7f5                	bnez	a5,71a8 <__eqdf2+0x3a>
    71be:	4305                	li	t1,1
    71c0:	ffee94e3          	bne	t4,t5,71a8 <__eqdf2+0x3a>
    71c4:	4301                	li	t1,0
    71c6:	fed581e3          	beq	a1,a3,71a8 <__eqdf2+0x3a>
    71ca:	4305                	li	t1,1
    71cc:	ff71                	bnez	a4,71a8 <__eqdf2+0x3a>
    71ce:	00ae6533          	or	a0,t3,a0
    71d2:	00a03333          	snez	t1,a0
    71d6:	bfc9                	j	71a8 <__eqdf2+0x3a>

000071d8 <__gedf2>:
    71d8:	0145d713          	srli	a4,a1,0x14
    71dc:	001007b7          	lui	a5,0x100
    71e0:	17fd                	addi	a5,a5,-1
    71e2:	0146d813          	srli	a6,a3,0x14
    71e6:	7ff77713          	andi	a4,a4,2047
    71ea:	7ff00893          	li	a7,2047
    71ee:	00b7f333          	and	t1,a5,a1
    71f2:	8e2a                	mv	t3,a0
    71f4:	8ff5                	and	a5,a5,a3
    71f6:	81fd                	srli	a1,a1,0x1f
    71f8:	8eb2                	mv	t4,a2
    71fa:	7ff87813          	andi	a6,a6,2047
    71fe:	82fd                	srli	a3,a3,0x1f
    7200:	03170863          	beq	a4,a7,7230 <__gedf2+0x58>
    7204:	03180063          	beq	a6,a7,7224 <__gedf2+0x4c>
    7208:	eb0d                	bnez	a4,723a <__gedf2+0x62>
    720a:	00a368b3          	or	a7,t1,a0
    720e:	00081463          	bnez	a6,7216 <__gedf2+0x3e>
    7212:	8e5d                	or	a2,a2,a5
    7214:	ca29                	beqz	a2,7266 <__gedf2+0x8e>
    7216:	04088563          	beqz	a7,7260 <__gedf2+0x88>
    721a:	02d58863          	beq	a1,a3,724a <__gedf2+0x72>
    721e:	4505                	li	a0,1
    7220:	ed95                	bnez	a1,725c <__gedf2+0x84>
    7222:	8082                	ret
    7224:	00c7e8b3          	or	a7,a5,a2
    7228:	fe0880e3          	beqz	a7,7208 <__gedf2+0x30>
    722c:	5579                	li	a0,-2
    722e:	8082                	ret
    7230:	00a36533          	or	a0,t1,a0
    7234:	fd65                	bnez	a0,722c <__gedf2+0x54>
    7236:	02e80c63          	beq	a6,a4,726e <__gedf2+0x96>
    723a:	00081463          	bnez	a6,7242 <__gedf2+0x6a>
    723e:	8e5d                	or	a2,a2,a5
    7240:	de79                	beqz	a2,721e <__gedf2+0x46>
    7242:	fcd59ee3          	bne	a1,a3,721e <__gedf2+0x46>
    7246:	fce84ce3          	blt	a6,a4,721e <__gedf2+0x46>
    724a:	01074863          	blt	a4,a6,725a <__gedf2+0x82>
    724e:	fc67e8e3          	bltu	a5,t1,721e <__gedf2+0x46>
    7252:	02f30363          	beq	t1,a5,7278 <__gedf2+0xa0>
    7256:	00f37f63          	bgeu	t1,a5,7274 <__gedf2+0x9c>
    725a:	e581                	bnez	a1,7262 <__gedf2+0x8a>
    725c:	557d                	li	a0,-1
    725e:	8082                	ret
    7260:	def5                	beqz	a3,725c <__gedf2+0x84>
    7262:	4505                	li	a0,1
    7264:	8082                	ret
    7266:	4501                	li	a0,0
    7268:	fa089be3          	bnez	a7,721e <__gedf2+0x46>
    726c:	8082                	ret
    726e:	8e5d                	or	a2,a2,a5
    7270:	da69                	beqz	a2,7242 <__gedf2+0x6a>
    7272:	bf6d                	j	722c <__gedf2+0x54>
    7274:	4501                	li	a0,0
    7276:	8082                	ret
    7278:	fbcee3e3          	bltu	t4,t3,721e <__gedf2+0x46>
    727c:	4501                	li	a0,0
    727e:	fbde72e3          	bgeu	t3,t4,7222 <__gedf2+0x4a>
    7282:	f1e5                	bnez	a1,7262 <__gedf2+0x8a>
    7284:	bfe1                	j	725c <__gedf2+0x84>

00007286 <__muldf3>:
    7286:	7139                	addi	sp,sp,-64
    7288:	d84a                	sw	s2,48(sp)
    728a:	0145d913          	srli	s2,a1,0x14
    728e:	d64e                	sw	s3,44(sp)
    7290:	d452                	sw	s4,40(sp)
    7292:	d256                	sw	s5,36(sp)
    7294:	00c59993          	slli	s3,a1,0xc
    7298:	de06                	sw	ra,60(sp)
    729a:	dc22                	sw	s0,56(sp)
    729c:	da26                	sw	s1,52(sp)
    729e:	d05a                	sw	s6,32(sp)
    72a0:	ce5e                	sw	s7,28(sp)
    72a2:	7ff97913          	andi	s2,s2,2047
    72a6:	8a2a                	mv	s4,a0
    72a8:	00c9d993          	srli	s3,s3,0xc
    72ac:	01f5da93          	srli	s5,a1,0x1f
    72b0:	0e090d63          	beqz	s2,73aa <__muldf3+0x124>
    72b4:	7ff00793          	li	a5,2047
    72b8:	18f90663          	beq	s2,a5,7444 <__muldf3+0x1be>
    72bc:	01d55413          	srli	s0,a0,0x1d
    72c0:	098e                	slli	s3,s3,0x3
    72c2:	013469b3          	or	s3,s0,s3
    72c6:	00800437          	lui	s0,0x800
    72ca:	0089e433          	or	s0,s3,s0
    72ce:	00351493          	slli	s1,a0,0x3
    72d2:	c0190913          	addi	s2,s2,-1023
    72d6:	4981                	li	s3,0
    72d8:	4b81                	li	s7,0
    72da:	0146d713          	srli	a4,a3,0x14
    72de:	00c69a13          	slli	s4,a3,0xc
    72e2:	7ff77713          	andi	a4,a4,2047
    72e6:	85b2                	mv	a1,a2
    72e8:	00ca5a13          	srli	s4,s4,0xc
    72ec:	01f6db13          	srli	s6,a3,0x1f
    72f0:	10070b63          	beqz	a4,7406 <__muldf3+0x180>
    72f4:	7ff00793          	li	a5,2047
    72f8:	04f70363          	beq	a4,a5,733e <__muldf3+0xb8>
    72fc:	01d65793          	srli	a5,a2,0x1d
    7300:	0a0e                	slli	s4,s4,0x3
    7302:	0147ea33          	or	s4,a5,s4
    7306:	c0170713          	addi	a4,a4,-1023
    730a:	008007b7          	lui	a5,0x800
    730e:	00fa67b3          	or	a5,s4,a5
    7312:	00361593          	slli	a1,a2,0x3
    7316:	993a                	add	s2,s2,a4
    7318:	4881                	li	a7,0
    731a:	016ac733          	xor	a4,s5,s6
    731e:	46bd                	li	a3,15
    7320:	853a                	mv	a0,a4
    7322:	00190813          	addi	a6,s2,1
    7326:	1736e863          	bltu	a3,s3,7496 <__muldf3+0x210>
    732a:	00005617          	auipc	a2,0x5
    732e:	14e60613          	addi	a2,a2,334 # c478 <rtable.3322+0x114>
    7332:	098a                	slli	s3,s3,0x2
    7334:	99b2                	add	s3,s3,a2
    7336:	0009a683          	lw	a3,0(s3)
    733a:	96b2                	add	a3,a3,a2
    733c:	8682                	jr	a3
    733e:	00ca67b3          	or	a5,s4,a2
    7342:	7ff90913          	addi	s2,s2,2047
    7346:	12079963          	bnez	a5,7478 <__muldf3+0x1f2>
    734a:	0029e993          	ori	s3,s3,2
    734e:	4581                	li	a1,0
    7350:	4889                	li	a7,2
    7352:	b7e1                	j	731a <__muldf3+0x94>
    7354:	4701                	li	a4,0
    7356:	7ff00793          	li	a5,2047
    735a:	00080437          	lui	s0,0x80
    735e:	4481                	li	s1,0
    7360:	0432                	slli	s0,s0,0xc
    7362:	07d2                	slli	a5,a5,0x14
    7364:	8031                	srli	s0,s0,0xc
    7366:	077e                	slli	a4,a4,0x1f
    7368:	8c5d                	or	s0,s0,a5
    736a:	8c59                	or	s0,s0,a4
    736c:	85a2                	mv	a1,s0
    736e:	50f2                	lw	ra,60(sp)
    7370:	5462                	lw	s0,56(sp)
    7372:	8526                	mv	a0,s1
    7374:	5942                	lw	s2,48(sp)
    7376:	54d2                	lw	s1,52(sp)
    7378:	59b2                	lw	s3,44(sp)
    737a:	5a22                	lw	s4,40(sp)
    737c:	5a92                	lw	s5,36(sp)
    737e:	5b02                	lw	s6,32(sp)
    7380:	4bf2                	lw	s7,28(sp)
    7382:	6121                	addi	sp,sp,64
    7384:	8082                	ret
    7386:	855a                	mv	a0,s6
    7388:	843e                	mv	s0,a5
    738a:	84ae                	mv	s1,a1
    738c:	8bc6                	mv	s7,a7
    738e:	4789                	li	a5,2
    7390:	0efb8d63          	beq	s7,a5,748a <__muldf3+0x204>
    7394:	478d                	li	a5,3
    7396:	fafb8fe3          	beq	s7,a5,7354 <__muldf3+0xce>
    739a:	4785                	li	a5,1
    739c:	872a                	mv	a4,a0
    739e:	38fb9e63          	bne	s7,a5,773a <__muldf3+0x4b4>
    73a2:	4781                	li	a5,0
    73a4:	4401                	li	s0,0
    73a6:	4481                	li	s1,0
    73a8:	bf65                	j	7360 <__muldf3+0xda>
    73aa:	00a9e433          	or	s0,s3,a0
    73ae:	c061                	beqz	s0,746e <__muldf3+0x1e8>
    73b0:	c636                	sw	a3,12(sp)
    73b2:	c432                	sw	a2,8(sp)
    73b4:	2a098c63          	beqz	s3,766c <__muldf3+0x3e6>
    73b8:	854e                	mv	a0,s3
    73ba:	f93fe0ef          	jal	ra,634c <__clzsi2>
    73be:	4622                	lw	a2,8(sp)
    73c0:	46b2                	lw	a3,12(sp)
    73c2:	87aa                	mv	a5,a0
    73c4:	ff550713          	addi	a4,a0,-11
    73c8:	4475                	li	s0,29
    73ca:	ff878493          	addi	s1,a5,-8 # 7ffff8 <_data_lma+0x7f38a4>
    73ce:	8c19                	sub	s0,s0,a4
    73d0:	009999b3          	sll	s3,s3,s1
    73d4:	008a5433          	srl	s0,s4,s0
    73d8:	01346433          	or	s0,s0,s3
    73dc:	009a14b3          	sll	s1,s4,s1
    73e0:	0146d713          	srli	a4,a3,0x14
    73e4:	c0d00913          	li	s2,-1011
    73e8:	00c69a13          	slli	s4,a3,0xc
    73ec:	7ff77713          	andi	a4,a4,2047
    73f0:	40f90933          	sub	s2,s2,a5
    73f4:	4981                	li	s3,0
    73f6:	4b81                	li	s7,0
    73f8:	85b2                	mv	a1,a2
    73fa:	00ca5a13          	srli	s4,s4,0xc
    73fe:	01f6db13          	srli	s6,a3,0x1f
    7402:	ee0719e3          	bnez	a4,72f4 <__muldf3+0x6e>
    7406:	00ca67b3          	or	a5,s4,a2
    740a:	c7b1                	beqz	a5,7456 <__muldf3+0x1d0>
    740c:	220a0f63          	beqz	s4,764a <__muldf3+0x3c4>
    7410:	8552                	mv	a0,s4
    7412:	c432                	sw	a2,8(sp)
    7414:	f39fe0ef          	jal	ra,634c <__clzsi2>
    7418:	4622                	lw	a2,8(sp)
    741a:	872a                	mv	a4,a0
    741c:	ff550693          	addi	a3,a0,-11
    7420:	47f5                	li	a5,29
    7422:	ff870593          	addi	a1,a4,-8
    7426:	8f95                	sub	a5,a5,a3
    7428:	00ba1a33          	sll	s4,s4,a1
    742c:	00f657b3          	srl	a5,a2,a5
    7430:	0147e7b3          	or	a5,a5,s4
    7434:	00b615b3          	sll	a1,a2,a1
    7438:	40e90933          	sub	s2,s2,a4
    743c:	c0d90913          	addi	s2,s2,-1011
    7440:	4881                	li	a7,0
    7442:	bde1                	j	731a <__muldf3+0x94>
    7444:	00a9e433          	or	s0,s3,a0
    7448:	ec01                	bnez	s0,7460 <__muldf3+0x1da>
    744a:	49a1                	li	s3,8
    744c:	4481                	li	s1,0
    744e:	7ff00913          	li	s2,2047
    7452:	4b89                	li	s7,2
    7454:	b559                	j	72da <__muldf3+0x54>
    7456:	0019e993          	ori	s3,s3,1
    745a:	4581                	li	a1,0
    745c:	4885                	li	a7,1
    745e:	bd75                	j	731a <__muldf3+0x94>
    7460:	844e                	mv	s0,s3
    7462:	84aa                	mv	s1,a0
    7464:	49b1                	li	s3,12
    7466:	7ff00913          	li	s2,2047
    746a:	4b8d                	li	s7,3
    746c:	b5bd                	j	72da <__muldf3+0x54>
    746e:	4991                	li	s3,4
    7470:	4481                	li	s1,0
    7472:	4901                	li	s2,0
    7474:	4b85                	li	s7,1
    7476:	b595                	j	72da <__muldf3+0x54>
    7478:	0039e993          	ori	s3,s3,3
    747c:	87d2                	mv	a5,s4
    747e:	488d                	li	a7,3
    7480:	bd69                	j	731a <__muldf3+0x94>
    7482:	4789                	li	a5,2
    7484:	8556                	mv	a0,s5
    7486:	f0fb97e3          	bne	s7,a5,7394 <__muldf3+0x10e>
    748a:	872a                	mv	a4,a0
    748c:	7ff00793          	li	a5,2047
    7490:	4401                	li	s0,0
    7492:	4481                	li	s1,0
    7494:	b5f1                	j	7360 <__muldf3+0xda>
    7496:	6ec1                	lui	t4,0x10
    7498:	fffe8613          	addi	a2,t4,-1 # ffff <_data_lma+0x38ab>
    749c:	0104d693          	srli	a3,s1,0x10
    74a0:	0105de13          	srli	t3,a1,0x10
    74a4:	8cf1                	and	s1,s1,a2
    74a6:	8df1                	and	a1,a1,a2
    74a8:	02958633          	mul	a2,a1,s1
    74ac:	02b68333          	mul	t1,a3,a1
    74b0:	01065893          	srli	a7,a2,0x10
    74b4:	029e0533          	mul	a0,t3,s1
    74b8:	951a                	add	a0,a0,t1
    74ba:	98aa                	add	a7,a7,a0
    74bc:	03c682b3          	mul	t0,a3,t3
    74c0:	0068f363          	bgeu	a7,t1,74c6 <__muldf3+0x240>
    74c4:	92f6                	add	t0,t0,t4
    74c6:	6fc1                	lui	t6,0x10
    74c8:	ffff8313          	addi	t1,t6,-1 # ffff <_data_lma+0x38ab>
    74cc:	0067f533          	and	a0,a5,t1
    74d0:	0107d393          	srli	t2,a5,0x10
    74d4:	0068f7b3          	and	a5,a7,t1
    74d8:	07c2                	slli	a5,a5,0x10
    74da:	00667333          	and	t1,a2,t1
    74de:	933e                	add	t1,t1,a5
    74e0:	02950633          	mul	a2,a0,s1
    74e4:	0108d893          	srli	a7,a7,0x10
    74e8:	02a687b3          	mul	a5,a3,a0
    74ec:	01065f13          	srli	t5,a2,0x10
    74f0:	029384b3          	mul	s1,t2,s1
    74f4:	94be                	add	s1,s1,a5
    74f6:	94fa                	add	s1,s1,t5
    74f8:	02768eb3          	mul	t4,a3,t2
    74fc:	00f4f363          	bgeu	s1,a5,7502 <__muldf3+0x27c>
    7500:	9efe                	add	t4,t4,t6
    7502:	6a41                	lui	s4,0x10
    7504:	fffa0793          	addi	a5,s4,-1 # ffff <_data_lma+0x38ab>
    7508:	01045f93          	srli	t6,s0,0x10
    750c:	00f476b3          	and	a3,s0,a5
    7510:	00f4f9b3          	and	s3,s1,a5
    7514:	8e7d                	and	a2,a2,a5
    7516:	80c1                	srli	s1,s1,0x10
    7518:	02d58433          	mul	s0,a1,a3
    751c:	09c2                	slli	s3,s3,0x10
    751e:	01d48f33          	add	t5,s1,t4
    7522:	99b2                	add	s3,s3,a2
    7524:	98ce                	add	a7,a7,s3
    7526:	02de07b3          	mul	a5,t3,a3
    752a:	01045e93          	srli	t4,s0,0x10
    752e:	02bf85b3          	mul	a1,t6,a1
    7532:	97ae                	add	a5,a5,a1
    7534:	9ebe                	add	t4,t4,a5
    7536:	03fe0e33          	mul	t3,t3,t6
    753a:	00bef363          	bgeu	t4,a1,7540 <__muldf3+0x2ba>
    753e:	9e52                	add	t3,t3,s4
    7540:	67c1                	lui	a5,0x10
    7542:	fff78593          	addi	a1,a5,-1 # ffff <_data_lma+0x38ab>
    7546:	00bef633          	and	a2,t4,a1
    754a:	8c6d                	and	s0,s0,a1
    754c:	0642                	slli	a2,a2,0x10
    754e:	9622                	add	a2,a2,s0
    7550:	010ede93          	srli	t4,t4,0x10
    7554:	02d505b3          	mul	a1,a0,a3
    7558:	9e76                	add	t3,t3,t4
    755a:	02af8533          	mul	a0,t6,a0
    755e:	0105d413          	srli	s0,a1,0x10
    7562:	02d386b3          	mul	a3,t2,a3
    7566:	96aa                	add	a3,a3,a0
    7568:	96a2                	add	a3,a3,s0
    756a:	03f38fb3          	mul	t6,t2,t6
    756e:	00a6f363          	bgeu	a3,a0,7574 <__muldf3+0x2ee>
    7572:	9fbe                	add	t6,t6,a5
    7574:	6541                	lui	a0,0x10
    7576:	157d                	addi	a0,a0,-1
    7578:	00a6f7b3          	and	a5,a3,a0
    757c:	07c2                	slli	a5,a5,0x10
    757e:	8d6d                	and	a0,a0,a1
    7580:	97aa                	add	a5,a5,a0
    7582:	005885b3          	add	a1,a7,t0
    7586:	0135b9b3          	sltu	s3,a1,s3
    758a:	97fa                	add	a5,a5,t5
    758c:	95b2                	add	a1,a1,a2
    758e:	01378433          	add	s0,a5,s3
    7592:	00c5b633          	sltu	a2,a1,a2
    7596:	01c40eb3          	add	t4,s0,t3
    759a:	00ce8533          	add	a0,t4,a2
    759e:	01343433          	sltu	s0,s0,s3
    75a2:	01e7b7b3          	sltu	a5,a5,t5
    75a6:	8fc1                	or	a5,a5,s0
    75a8:	01cebe33          	sltu	t3,t4,t3
    75ac:	0106d413          	srli	s0,a3,0x10
    75b0:	00c53633          	sltu	a2,a0,a2
    75b4:	943e                	add	s0,s0,a5
    75b6:	00ce6633          	or	a2,t3,a2
    75ba:	00959493          	slli	s1,a1,0x9
    75be:	9432                	add	s0,s0,a2
    75c0:	947e                	add	s0,s0,t6
    75c2:	0064e4b3          	or	s1,s1,t1
    75c6:	0426                	slli	s0,s0,0x9
    75c8:	01755693          	srli	a3,a0,0x17
    75cc:	009034b3          	snez	s1,s1
    75d0:	81dd                	srli	a1,a1,0x17
    75d2:	00951793          	slli	a5,a0,0x9
    75d6:	8ccd                	or	s1,s1,a1
    75d8:	8c55                	or	s0,s0,a3
    75da:	8cdd                	or	s1,s1,a5
    75dc:	00741793          	slli	a5,s0,0x7
    75e0:	0007db63          	bgez	a5,75f6 <__muldf3+0x370>
    75e4:	0014d793          	srli	a5,s1,0x1
    75e8:	8885                	andi	s1,s1,1
    75ea:	01f41693          	slli	a3,s0,0x1f
    75ee:	8cdd                	or	s1,s1,a5
    75f0:	8cd5                	or	s1,s1,a3
    75f2:	8005                	srli	s0,s0,0x1
    75f4:	8942                	mv	s2,a6
    75f6:	3ff90793          	addi	a5,s2,1023
    75fa:	08f05963          	blez	a5,768c <__muldf3+0x406>
    75fe:	0074f693          	andi	a3,s1,7
    7602:	ce81                	beqz	a3,761a <__muldf3+0x394>
    7604:	00f4f693          	andi	a3,s1,15
    7608:	4611                	li	a2,4
    760a:	00c68863          	beq	a3,a2,761a <__muldf3+0x394>
    760e:	00448693          	addi	a3,s1,4
    7612:	0096b4b3          	sltu	s1,a3,s1
    7616:	9426                	add	s0,s0,s1
    7618:	84b6                	mv	s1,a3
    761a:	00741693          	slli	a3,s0,0x7
    761e:	0006d863          	bgez	a3,762e <__muldf3+0x3a8>
    7622:	ff0007b7          	lui	a5,0xff000
    7626:	17fd                	addi	a5,a5,-1
    7628:	8c7d                	and	s0,s0,a5
    762a:	40090793          	addi	a5,s2,1024
    762e:	7fe00693          	li	a3,2046
    7632:	0ef6cf63          	blt	a3,a5,7730 <__muldf3+0x4aa>
    7636:	0034d693          	srli	a3,s1,0x3
    763a:	01d41493          	slli	s1,s0,0x1d
    763e:	0426                	slli	s0,s0,0x9
    7640:	8cd5                	or	s1,s1,a3
    7642:	8031                	srli	s0,s0,0xc
    7644:	7ff7f793          	andi	a5,a5,2047
    7648:	bb21                	j	7360 <__muldf3+0xda>
    764a:	8532                	mv	a0,a2
    764c:	c432                	sw	a2,8(sp)
    764e:	cfffe0ef          	jal	ra,634c <__clzsi2>
    7652:	01550693          	addi	a3,a0,21 # 10015 <_data_lma+0x38c1>
    7656:	47f1                	li	a5,28
    7658:	02050713          	addi	a4,a0,32
    765c:	4622                	lw	a2,8(sp)
    765e:	dcd7d1e3          	bge	a5,a3,7420 <__muldf3+0x19a>
    7662:	1561                	addi	a0,a0,-8
    7664:	00a617b3          	sll	a5,a2,a0
    7668:	4581                	li	a1,0
    766a:	b3f9                	j	7438 <__muldf3+0x1b2>
    766c:	ce1fe0ef          	jal	ra,634c <__clzsi2>
    7670:	01550713          	addi	a4,a0,21
    7674:	45f1                	li	a1,28
    7676:	02050793          	addi	a5,a0,32
    767a:	4622                	lw	a2,8(sp)
    767c:	46b2                	lw	a3,12(sp)
    767e:	d4e5d5e3          	bge	a1,a4,73c8 <__muldf3+0x142>
    7682:	1561                	addi	a0,a0,-8
    7684:	00aa1433          	sll	s0,s4,a0
    7688:	4481                	li	s1,0
    768a:	bb99                	j	73e0 <__muldf3+0x15a>
    768c:	4685                	li	a3,1
    768e:	8e9d                	sub	a3,a3,a5
    7690:	e7b1                	bnez	a5,76dc <__muldf3+0x456>
    7692:	41e90913          	addi	s2,s2,1054
    7696:	012497b3          	sll	a5,s1,s2
    769a:	00d4d4b3          	srl	s1,s1,a3
    769e:	01241933          	sll	s2,s0,s2
    76a2:	00f037b3          	snez	a5,a5
    76a6:	009964b3          	or	s1,s2,s1
    76aa:	8cdd                	or	s1,s1,a5
    76ac:	0074f793          	andi	a5,s1,7
    76b0:	00d456b3          	srl	a3,s0,a3
    76b4:	cf81                	beqz	a5,76cc <__muldf3+0x446>
    76b6:	00f4f793          	andi	a5,s1,15
    76ba:	4611                	li	a2,4
    76bc:	00c78863          	beq	a5,a2,76cc <__muldf3+0x446>
    76c0:	00448793          	addi	a5,s1,4
    76c4:	0097b4b3          	sltu	s1,a5,s1
    76c8:	96a6                	add	a3,a3,s1
    76ca:	84be                	mv	s1,a5
    76cc:	00869793          	slli	a5,a3,0x8
    76d0:	0407d863          	bgez	a5,7720 <__muldf3+0x49a>
    76d4:	4785                	li	a5,1
    76d6:	4401                	li	s0,0
    76d8:	4481                	li	s1,0
    76da:	b159                	j	7360 <__muldf3+0xda>
    76dc:	03800613          	li	a2,56
    76e0:	ccd641e3          	blt	a2,a3,73a2 <__muldf3+0x11c>
    76e4:	467d                	li	a2,31
    76e6:	fad656e3          	bge	a2,a3,7692 <__muldf3+0x40c>
    76ea:	5605                	li	a2,-31
    76ec:	40f607b3          	sub	a5,a2,a5
    76f0:	02000593          	li	a1,32
    76f4:	00f45633          	srl	a2,s0,a5
    76f8:	00b68763          	beq	a3,a1,7706 <__muldf3+0x480>
    76fc:	43e90913          	addi	s2,s2,1086
    7700:	012417b3          	sll	a5,s0,s2
    7704:	8cdd                	or	s1,s1,a5
    7706:	009034b3          	snez	s1,s1
    770a:	8cd1                	or	s1,s1,a2
    770c:	0074f693          	andi	a3,s1,7
    7710:	4401                	li	s0,0
    7712:	ca99                	beqz	a3,7728 <__muldf3+0x4a2>
    7714:	00f4f793          	andi	a5,s1,15
    7718:	4611                	li	a2,4
    771a:	4681                	li	a3,0
    771c:	fac792e3          	bne	a5,a2,76c0 <__muldf3+0x43a>
    7720:	00969413          	slli	s0,a3,0x9
    7724:	8031                	srli	s0,s0,0xc
    7726:	06f6                	slli	a3,a3,0x1d
    7728:	808d                	srli	s1,s1,0x3
    772a:	8cd5                	or	s1,s1,a3
    772c:	4781                	li	a5,0
    772e:	b90d                	j	7360 <__muldf3+0xda>
    7730:	7ff00793          	li	a5,2047
    7734:	4401                	li	s0,0
    7736:	4481                	li	s1,0
    7738:	b125                	j	7360 <__muldf3+0xda>
    773a:	8942                	mv	s2,a6
    773c:	bd6d                	j	75f6 <__muldf3+0x370>

0000773e <__subdf3>:
    773e:	00100737          	lui	a4,0x100
    7742:	177d                	addi	a4,a4,-1
    7744:	1101                	addi	sp,sp,-32
    7746:	00b77333          	and	t1,a4,a1
    774a:	0146d893          	srli	a7,a3,0x14
    774e:	8f75                	and	a4,a4,a3
    7750:	01d65e93          	srli	t4,a2,0x1d
    7754:	cc22                	sw	s0,24(sp)
    7756:	ca26                	sw	s1,20(sp)
    7758:	030e                	slli	t1,t1,0x3
    775a:	0145d493          	srli	s1,a1,0x14
    775e:	01d55793          	srli	a5,a0,0x1d
    7762:	070e                	slli	a4,a4,0x3
    7764:	ce06                	sw	ra,28(sp)
    7766:	c84a                	sw	s2,16(sp)
    7768:	c64e                	sw	s3,12(sp)
    776a:	7ff8f893          	andi	a7,a7,2047
    776e:	7ff00e13          	li	t3,2047
    7772:	00eee733          	or	a4,t4,a4
    7776:	7ff4f493          	andi	s1,s1,2047
    777a:	01f5d413          	srli	s0,a1,0x1f
    777e:	0067e333          	or	t1,a5,t1
    7782:	00351f13          	slli	t5,a0,0x3
    7786:	82fd                	srli	a3,a3,0x1f
    7788:	00361e93          	slli	t4,a2,0x3
    778c:	19c88063          	beq	a7,t3,790c <__subdf3+0x1ce>
    7790:	0016c693          	xori	a3,a3,1
    7794:	411485b3          	sub	a1,s1,a7
    7798:	12d40563          	beq	s0,a3,78c2 <__subdf3+0x184>
    779c:	18b05163          	blez	a1,791e <__subdf3+0x1e0>
    77a0:	1a088b63          	beqz	a7,7956 <__subdf3+0x218>
    77a4:	008007b7          	lui	a5,0x800
    77a8:	8f5d                	or	a4,a4,a5
    77aa:	59c48163          	beq	s1,t3,7d2c <__subdf3+0x5ee>
    77ae:	03800793          	li	a5,56
    77b2:	34b7c463          	blt	a5,a1,7afa <__subdf3+0x3bc>
    77b6:	47fd                	li	a5,31
    77b8:	48b7c563          	blt	a5,a1,7c42 <__subdf3+0x504>
    77bc:	02000793          	li	a5,32
    77c0:	8f8d                	sub	a5,a5,a1
    77c2:	00bed9b3          	srl	s3,t4,a1
    77c6:	00f71833          	sll	a6,a4,a5
    77ca:	00fe9eb3          	sll	t4,t4,a5
    77ce:	01386833          	or	a6,a6,s3
    77d2:	00b75733          	srl	a4,a4,a1
    77d6:	01d039b3          	snez	s3,t4
    77da:	01386833          	or	a6,a6,s3
    77de:	40e30333          	sub	t1,t1,a4
    77e2:	410f09b3          	sub	s3,t5,a6
    77e6:	013f37b3          	sltu	a5,t5,s3
    77ea:	40f30633          	sub	a2,t1,a5
    77ee:	00861793          	slli	a5,a2,0x8
    77f2:	2407d363          	bgez	a5,7a38 <__subdf3+0x2fa>
    77f6:	00800937          	lui	s2,0x800
    77fa:	197d                	addi	s2,s2,-1
    77fc:	01267933          	and	s2,a2,s2
    7800:	2c090f63          	beqz	s2,7ade <__subdf3+0x3a0>
    7804:	854a                	mv	a0,s2
    7806:	b47fe0ef          	jal	ra,634c <__clzsi2>
    780a:	ff850713          	addi	a4,a0,-8
    780e:	02000793          	li	a5,32
    7812:	8f99                	sub	a5,a5,a4
    7814:	00f9d7b3          	srl	a5,s3,a5
    7818:	00e91633          	sll	a2,s2,a4
    781c:	8fd1                	or	a5,a5,a2
    781e:	00e999b3          	sll	s3,s3,a4
    7822:	2a974463          	blt	a4,s1,7aca <__subdf3+0x38c>
    7826:	8f05                	sub	a4,a4,s1
    7828:	00170613          	addi	a2,a4,1 # 100001 <_data_lma+0xf38ad>
    782c:	46fd                	li	a3,31
    782e:	3ac6c563          	blt	a3,a2,7bd8 <__subdf3+0x49a>
    7832:	02000713          	li	a4,32
    7836:	8f11                	sub	a4,a4,a2
    7838:	00c9d6b3          	srl	a3,s3,a2
    783c:	00e99833          	sll	a6,s3,a4
    7840:	00e79733          	sll	a4,a5,a4
    7844:	8f55                	or	a4,a4,a3
    7846:	01003833          	snez	a6,a6
    784a:	010769b3          	or	s3,a4,a6
    784e:	00c7d633          	srl	a2,a5,a2
    7852:	4481                	li	s1,0
    7854:	0079f793          	andi	a5,s3,7
    7858:	cf81                	beqz	a5,7870 <__subdf3+0x132>
    785a:	00f9f693          	andi	a3,s3,15
    785e:	4791                	li	a5,4
    7860:	00f68863          	beq	a3,a5,7870 <__subdf3+0x132>
    7864:	00498693          	addi	a3,s3,4
    7868:	0136b833          	sltu	a6,a3,s3
    786c:	9642                	add	a2,a2,a6
    786e:	89b6                	mv	s3,a3
    7870:	00861793          	slli	a5,a2,0x8
    7874:	1c07d663          	bgez	a5,7a40 <__subdf3+0x302>
    7878:	00148713          	addi	a4,s1,1
    787c:	7ff00793          	li	a5,2047
    7880:	8805                	andi	s0,s0,1
    7882:	20f70663          	beq	a4,a5,7a8e <__subdf3+0x350>
    7886:	ff8007b7          	lui	a5,0xff800
    788a:	17fd                	addi	a5,a5,-1
    788c:	8ff1                	and	a5,a5,a2
    788e:	01d79813          	slli	a6,a5,0x1d
    7892:	0039d993          	srli	s3,s3,0x3
    7896:	07a6                	slli	a5,a5,0x9
    7898:	01386833          	or	a6,a6,s3
    789c:	83b1                	srli	a5,a5,0xc
    789e:	7ff77713          	andi	a4,a4,2047
    78a2:	00c79693          	slli	a3,a5,0xc
    78a6:	0752                	slli	a4,a4,0x14
    78a8:	82b1                	srli	a3,a3,0xc
    78aa:	047e                	slli	s0,s0,0x1f
    78ac:	8ed9                	or	a3,a3,a4
    78ae:	8ec1                	or	a3,a3,s0
    78b0:	40f2                	lw	ra,28(sp)
    78b2:	4462                	lw	s0,24(sp)
    78b4:	44d2                	lw	s1,20(sp)
    78b6:	4942                	lw	s2,16(sp)
    78b8:	49b2                	lw	s3,12(sp)
    78ba:	8542                	mv	a0,a6
    78bc:	85b6                	mv	a1,a3
    78be:	6105                	addi	sp,sp,32
    78c0:	8082                	ret
    78c2:	0ab05663          	blez	a1,796e <__subdf3+0x230>
    78c6:	12088a63          	beqz	a7,79fa <__subdf3+0x2bc>
    78ca:	008007b7          	lui	a5,0x800
    78ce:	8f5d                	or	a4,a4,a5
    78d0:	2dc48763          	beq	s1,t3,7b9e <__subdf3+0x460>
    78d4:	03800793          	li	a5,56
    78d8:	18b7c763          	blt	a5,a1,7a66 <__subdf3+0x328>
    78dc:	47fd                	li	a5,31
    78de:	3cb7d263          	bge	a5,a1,7ca2 <__subdf3+0x564>
    78e2:	fe058813          	addi	a6,a1,-32 # ffe0 <_data_lma+0x388c>
    78e6:	02000793          	li	a5,32
    78ea:	010759b3          	srl	s3,a4,a6
    78ee:	00f58a63          	beq	a1,a5,7902 <__subdf3+0x1c4>
    78f2:	04000793          	li	a5,64
    78f6:	40b785b3          	sub	a1,a5,a1
    78fa:	00b71733          	sll	a4,a4,a1
    78fe:	00eeeeb3          	or	t4,t4,a4
    7902:	01d03833          	snez	a6,t4
    7906:	01386833          	or	a6,a6,s3
    790a:	a295                	j	7a6e <__subdf3+0x330>
    790c:	01d767b3          	or	a5,a4,t4
    7910:	80148593          	addi	a1,s1,-2047
    7914:	e399                	bnez	a5,791a <__subdf3+0x1dc>
    7916:	0016c693          	xori	a3,a3,1
    791a:	04d40a63          	beq	s0,a3,796e <__subdf3+0x230>
    791e:	e1d1                	bnez	a1,79a2 <__subdf3+0x264>
    7920:	00148793          	addi	a5,s1,1
    7924:	7fe7f793          	andi	a5,a5,2046
    7928:	1e079963          	bnez	a5,7b1a <__subdf3+0x3dc>
    792c:	01e367b3          	or	a5,t1,t5
    7930:	01d76833          	or	a6,a4,t4
    7934:	16049263          	bnez	s1,7a98 <__subdf3+0x35a>
    7938:	3c078263          	beqz	a5,7cfc <__subdf3+0x5be>
    793c:	42081663          	bnez	a6,7d68 <__subdf3+0x62a>
    7940:	00351813          	slli	a6,a0,0x3
    7944:	01d31693          	slli	a3,t1,0x1d
    7948:	00385813          	srli	a6,a6,0x3
    794c:	0106e833          	or	a6,a3,a6
    7950:	00335793          	srli	a5,t1,0x3
    7954:	a219                	j	7a5a <__subdf3+0x31c>
    7956:	01d767b3          	or	a5,a4,t4
    795a:	1a078563          	beqz	a5,7b04 <__subdf3+0x3c6>
    795e:	fff58793          	addi	a5,a1,-1
    7962:	3a078b63          	beqz	a5,7d18 <__subdf3+0x5da>
    7966:	23c58c63          	beq	a1,t3,7b9e <__subdf3+0x460>
    796a:	85be                	mv	a1,a5
    796c:	b589                	j	77ae <__subdf3+0x70>
    796e:	1c059963          	bnez	a1,7b40 <__subdf3+0x402>
    7972:	00148693          	addi	a3,s1,1
    7976:	7fe6f793          	andi	a5,a3,2046
    797a:	efc1                	bnez	a5,7a12 <__subdf3+0x2d4>
    797c:	01e367b3          	or	a5,t1,t5
    7980:	36049063          	bnez	s1,7ce0 <__subdf3+0x5a2>
    7984:	44078d63          	beqz	a5,7dde <__subdf3+0x6a0>
    7988:	01d767b3          	or	a5,a4,t4
    798c:	46079463          	bnez	a5,7df4 <__subdf3+0x6b6>
    7990:	050e                	slli	a0,a0,0x3
    7992:	01d31813          	slli	a6,t1,0x1d
    7996:	810d                	srli	a0,a0,0x3
    7998:	00a86833          	or	a6,a6,a0
    799c:	00335793          	srli	a5,t1,0x3
    79a0:	a86d                	j	7a5a <__subdf3+0x31c>
    79a2:	409885b3          	sub	a1,a7,s1
    79a6:	20049763          	bnez	s1,7bb4 <__subdf3+0x476>
    79aa:	01e367b3          	or	a5,t1,t5
    79ae:	30078d63          	beqz	a5,7cc8 <__subdf3+0x58a>
    79b2:	fff58793          	addi	a5,a1,-1
    79b6:	40078963          	beqz	a5,7dc8 <__subdf3+0x68a>
    79ba:	7ff00513          	li	a0,2047
    79be:	20a58363          	beq	a1,a0,7bc4 <__subdf3+0x486>
    79c2:	85be                	mv	a1,a5
    79c4:	03800793          	li	a5,56
    79c8:	2ab7c263          	blt	a5,a1,7c6c <__subdf3+0x52e>
    79cc:	47fd                	li	a5,31
    79ce:	3cb7c863          	blt	a5,a1,7d9e <__subdf3+0x660>
    79d2:	02000793          	li	a5,32
    79d6:	8f8d                	sub	a5,a5,a1
    79d8:	00f31833          	sll	a6,t1,a5
    79dc:	00bf5633          	srl	a2,t5,a1
    79e0:	00ff17b3          	sll	a5,t5,a5
    79e4:	00c86833          	or	a6,a6,a2
    79e8:	00f039b3          	snez	s3,a5
    79ec:	00b35333          	srl	t1,t1,a1
    79f0:	01386833          	or	a6,a6,s3
    79f4:	40670733          	sub	a4,a4,t1
    79f8:	acb5                	j	7c74 <__subdf3+0x536>
    79fa:	01d767b3          	or	a5,a4,t4
    79fe:	10078363          	beqz	a5,7b04 <__subdf3+0x3c6>
    7a02:	fff58793          	addi	a5,a1,-1
    7a06:	1e078f63          	beqz	a5,7c04 <__subdf3+0x4c6>
    7a0a:	2fc58063          	beq	a1,t3,7cea <__subdf3+0x5ac>
    7a0e:	85be                	mv	a1,a5
    7a10:	b5d1                	j	78d4 <__subdf3+0x196>
    7a12:	7ff00793          	li	a5,2047
    7a16:	06f68b63          	beq	a3,a5,7a8c <__subdf3+0x34e>
    7a1a:	9efa                	add	t4,t4,t5
    7a1c:	01eeb633          	sltu	a2,t4,t5
    7a20:	00e307b3          	add	a5,t1,a4
    7a24:	97b2                	add	a5,a5,a2
    7a26:	01f79813          	slli	a6,a5,0x1f
    7a2a:	001ede93          	srli	t4,t4,0x1
    7a2e:	01d869b3          	or	s3,a6,t4
    7a32:	0017d613          	srli	a2,a5,0x1
    7a36:	84b6                	mv	s1,a3
    7a38:	0079f793          	andi	a5,s3,7
    7a3c:	e0079fe3          	bnez	a5,785a <__subdf3+0x11c>
    7a40:	01d61793          	slli	a5,a2,0x1d
    7a44:	0039d813          	srli	a6,s3,0x3
    7a48:	00f86833          	or	a6,a6,a5
    7a4c:	85a6                	mv	a1,s1
    7a4e:	00365793          	srli	a5,a2,0x3
    7a52:	7ff00713          	li	a4,2047
    7a56:	06e58063          	beq	a1,a4,7ab6 <__subdf3+0x378>
    7a5a:	07b2                	slli	a5,a5,0xc
    7a5c:	83b1                	srli	a5,a5,0xc
    7a5e:	7ff5f713          	andi	a4,a1,2047
    7a62:	8805                	andi	s0,s0,1
    7a64:	bd3d                	j	78a2 <__subdf3+0x164>
    7a66:	01d76733          	or	a4,a4,t4
    7a6a:	00e03833          	snez	a6,a4
    7a6e:	01e809b3          	add	s3,a6,t5
    7a72:	01e9b7b3          	sltu	a5,s3,t5
    7a76:	00678633          	add	a2,a5,t1
    7a7a:	00861793          	slli	a5,a2,0x8
    7a7e:	fa07dde3          	bgez	a5,7a38 <__subdf3+0x2fa>
    7a82:	0485                	addi	s1,s1,1
    7a84:	7ff00793          	li	a5,2047
    7a88:	18f49c63          	bne	s1,a5,7c20 <__subdf3+0x4e2>
    7a8c:	8805                	andi	s0,s0,1
    7a8e:	7ff00713          	li	a4,2047
    7a92:	4781                	li	a5,0
    7a94:	4801                	li	a6,0
    7a96:	b531                	j	78a2 <__subdf3+0x164>
    7a98:	10079163          	bnez	a5,7b9a <__subdf3+0x45c>
    7a9c:	3c080163          	beqz	a6,7e5e <__subdf3+0x720>
    7aa0:	00361813          	slli	a6,a2,0x3
    7aa4:	01d71793          	slli	a5,a4,0x1d
    7aa8:	00385813          	srli	a6,a6,0x3
    7aac:	00f86833          	or	a6,a6,a5
    7ab0:	8436                	mv	s0,a3
    7ab2:	00375793          	srli	a5,a4,0x3
    7ab6:	00f867b3          	or	a5,a6,a5
    7aba:	dbe9                	beqz	a5,7a8c <__subdf3+0x34e>
    7abc:	4401                	li	s0,0
    7abe:	7ff00713          	li	a4,2047
    7ac2:	000807b7          	lui	a5,0x80
    7ac6:	4801                	li	a6,0
    7ac8:	bbe9                	j	78a2 <__subdf3+0x164>
    7aca:	ff800637          	lui	a2,0xff800
    7ace:	167d                	addi	a2,a2,-1
    7ad0:	8e7d                	and	a2,a2,a5
    7ad2:	0079f793          	andi	a5,s3,7
    7ad6:	8c99                	sub	s1,s1,a4
    7ad8:	d80791e3          	bnez	a5,785a <__subdf3+0x11c>
    7adc:	b795                	j	7a40 <__subdf3+0x302>
    7ade:	854e                	mv	a0,s3
    7ae0:	86dfe0ef          	jal	ra,634c <__clzsi2>
    7ae4:	01850713          	addi	a4,a0,24
    7ae8:	47fd                	li	a5,31
    7aea:	d2e7d2e3          	bge	a5,a4,780e <__subdf3+0xd0>
    7aee:	ff850613          	addi	a2,a0,-8
    7af2:	00c997b3          	sll	a5,s3,a2
    7af6:	4981                	li	s3,0
    7af8:	b32d                	j	7822 <__subdf3+0xe4>
    7afa:	01d76833          	or	a6,a4,t4
    7afe:	01003833          	snez	a6,a6
    7b02:	b1c5                	j	77e2 <__subdf3+0xa4>
    7b04:	00351813          	slli	a6,a0,0x3
    7b08:	01d31793          	slli	a5,t1,0x1d
    7b0c:	00385813          	srli	a6,a6,0x3
    7b10:	00f86833          	or	a6,a6,a5
    7b14:	00335793          	srli	a5,t1,0x3
    7b18:	bf2d                	j	7a52 <__subdf3+0x314>
    7b1a:	41df09b3          	sub	s3,t5,t4
    7b1e:	40e30933          	sub	s2,t1,a4
    7b22:	013f3633          	sltu	a2,t5,s3
    7b26:	40c90933          	sub	s2,s2,a2
    7b2a:	00891793          	slli	a5,s2,0x8
    7b2e:	2007ca63          	bltz	a5,7d42 <__subdf3+0x604>
    7b32:	0129e833          	or	a6,s3,s2
    7b36:	cc0815e3          	bnez	a6,7800 <__subdf3+0xc2>
    7b3a:	4781                	li	a5,0
    7b3c:	4401                	li	s0,0
    7b3e:	bf31                	j	7a5a <__subdf3+0x31c>
    7b40:	409885b3          	sub	a1,a7,s1
    7b44:	14048163          	beqz	s1,7c86 <__subdf3+0x548>
    7b48:	008006b7          	lui	a3,0x800
    7b4c:	7ff00793          	li	a5,2047
    7b50:	00d36333          	or	t1,t1,a3
    7b54:	20f88163          	beq	a7,a5,7d56 <__subdf3+0x618>
    7b58:	03800793          	li	a5,56
    7b5c:	22b7cc63          	blt	a5,a1,7d94 <__subdf3+0x656>
    7b60:	47fd                	li	a5,31
    7b62:	2cb7c963          	blt	a5,a1,7e34 <__subdf3+0x6f6>
    7b66:	02000793          	li	a5,32
    7b6a:	8f8d                	sub	a5,a5,a1
    7b6c:	00f31833          	sll	a6,t1,a5
    7b70:	00bf56b3          	srl	a3,t5,a1
    7b74:	00ff17b3          	sll	a5,t5,a5
    7b78:	00d86833          	or	a6,a6,a3
    7b7c:	00f039b3          	snez	s3,a5
    7b80:	00b35333          	srl	t1,t1,a1
    7b84:	01386833          	or	a6,a6,s3
    7b88:	971a                	add	a4,a4,t1
    7b8a:	01d809b3          	add	s3,a6,t4
    7b8e:	01d9b7b3          	sltu	a5,s3,t4
    7b92:	00e78633          	add	a2,a5,a4
    7b96:	84c6                	mv	s1,a7
    7b98:	b5cd                	j	7a7a <__subdf3+0x33c>
    7b9a:	f20811e3          	bnez	a6,7abc <__subdf3+0x37e>
    7b9e:	00351813          	slli	a6,a0,0x3
    7ba2:	01d31793          	slli	a5,t1,0x1d
    7ba6:	00385813          	srli	a6,a6,0x3
    7baa:	00f86833          	or	a6,a6,a5
    7bae:	00335793          	srli	a5,t1,0x3
    7bb2:	b711                	j	7ab6 <__subdf3+0x378>
    7bb4:	00800537          	lui	a0,0x800
    7bb8:	7ff00793          	li	a5,2047
    7bbc:	00a36333          	or	t1,t1,a0
    7bc0:	e0f892e3          	bne	a7,a5,79c4 <__subdf3+0x286>
    7bc4:	060e                	slli	a2,a2,0x3
    7bc6:	01d71813          	slli	a6,a4,0x1d
    7bca:	820d                	srli	a2,a2,0x3
    7bcc:	00c86833          	or	a6,a6,a2
    7bd0:	00375793          	srli	a5,a4,0x3
    7bd4:	8436                	mv	s0,a3
    7bd6:	b5c5                	j	7ab6 <__subdf3+0x378>
    7bd8:	1705                	addi	a4,a4,-31
    7bda:	02000693          	li	a3,32
    7bde:	00e7d733          	srl	a4,a5,a4
    7be2:	00d60a63          	beq	a2,a3,7bf6 <__subdf3+0x4b8>
    7be6:	04000693          	li	a3,64
    7bea:	40c68633          	sub	a2,a3,a2
    7bee:	00c79633          	sll	a2,a5,a2
    7bf2:	00c9e9b3          	or	s3,s3,a2
    7bf6:	01303833          	snez	a6,s3
    7bfa:	00e869b3          	or	s3,a6,a4
    7bfe:	4601                	li	a2,0
    7c00:	4481                	li	s1,0
    7c02:	bd1d                	j	7a38 <__subdf3+0x2fa>
    7c04:	01df09b3          	add	s3,t5,t4
    7c08:	00e307b3          	add	a5,t1,a4
    7c0c:	01e9bf33          	sltu	t5,s3,t5
    7c10:	01e78633          	add	a2,a5,t5
    7c14:	00861793          	slli	a5,a2,0x8
    7c18:	4485                	li	s1,1
    7c1a:	e007dfe3          	bgez	a5,7a38 <__subdf3+0x2fa>
    7c1e:	4489                	li	s1,2
    7c20:	ff8007b7          	lui	a5,0xff800
    7c24:	17fd                	addi	a5,a5,-1
    7c26:	8ff1                	and	a5,a5,a2
    7c28:	0019d713          	srli	a4,s3,0x1
    7c2c:	0019f813          	andi	a6,s3,1
    7c30:	01076833          	or	a6,a4,a6
    7c34:	01f79993          	slli	s3,a5,0x1f
    7c38:	0109e9b3          	or	s3,s3,a6
    7c3c:	0017d613          	srli	a2,a5,0x1
    7c40:	b911                	j	7854 <__subdf3+0x116>
    7c42:	fe058813          	addi	a6,a1,-32
    7c46:	02000793          	li	a5,32
    7c4a:	010759b3          	srl	s3,a4,a6
    7c4e:	00f58a63          	beq	a1,a5,7c62 <__subdf3+0x524>
    7c52:	04000793          	li	a5,64
    7c56:	40b785b3          	sub	a1,a5,a1
    7c5a:	00b71733          	sll	a4,a4,a1
    7c5e:	00eeeeb3          	or	t4,t4,a4
    7c62:	01d03833          	snez	a6,t4
    7c66:	01386833          	or	a6,a6,s3
    7c6a:	bea5                	j	77e2 <__subdf3+0xa4>
    7c6c:	01e36333          	or	t1,t1,t5
    7c70:	00603833          	snez	a6,t1
    7c74:	410e89b3          	sub	s3,t4,a6
    7c78:	013eb7b3          	sltu	a5,t4,s3
    7c7c:	40f70633          	sub	a2,a4,a5
    7c80:	84c6                	mv	s1,a7
    7c82:	8436                	mv	s0,a3
    7c84:	b6ad                	j	77ee <__subdf3+0xb0>
    7c86:	01e367b3          	or	a5,t1,t5
    7c8a:	18078763          	beqz	a5,7e18 <__subdf3+0x6da>
    7c8e:	fff58793          	addi	a5,a1,-1
    7c92:	1c078c63          	beqz	a5,7e6a <__subdf3+0x72c>
    7c96:	7ff00693          	li	a3,2047
    7c9a:	0ad58e63          	beq	a1,a3,7d56 <__subdf3+0x618>
    7c9e:	85be                	mv	a1,a5
    7ca0:	bd65                	j	7b58 <__subdf3+0x41a>
    7ca2:	02000793          	li	a5,32
    7ca6:	8f8d                	sub	a5,a5,a1
    7ca8:	00bed9b3          	srl	s3,t4,a1
    7cac:	00f71833          	sll	a6,a4,a5
    7cb0:	00fe9eb3          	sll	t4,t4,a5
    7cb4:	01386833          	or	a6,a6,s3
    7cb8:	00b75733          	srl	a4,a4,a1
    7cbc:	01d039b3          	snez	s3,t4
    7cc0:	01386833          	or	a6,a6,s3
    7cc4:	933a                	add	t1,t1,a4
    7cc6:	b365                	j	7a6e <__subdf3+0x330>
    7cc8:	00361813          	slli	a6,a2,0x3
    7ccc:	01d71793          	slli	a5,a4,0x1d
    7cd0:	00385813          	srli	a6,a6,0x3
    7cd4:	0107e833          	or	a6,a5,a6
    7cd8:	8436                	mv	s0,a3
    7cda:	00375793          	srli	a5,a4,0x3
    7cde:	bb95                	j	7a52 <__subdf3+0x314>
    7ce0:	cbbd                	beqz	a5,7d56 <__subdf3+0x618>
    7ce2:	01d76733          	or	a4,a4,t4
    7ce6:	dc071be3          	bnez	a4,7abc <__subdf3+0x37e>
    7cea:	050e                	slli	a0,a0,0x3
    7cec:	01d31813          	slli	a6,t1,0x1d
    7cf0:	810d                	srli	a0,a0,0x3
    7cf2:	00a86833          	or	a6,a6,a0
    7cf6:	00335793          	srli	a5,t1,0x3
    7cfa:	bb75                	j	7ab6 <__subdf3+0x378>
    7cfc:	e2080fe3          	beqz	a6,7b3a <__subdf3+0x3fc>
    7d00:	00361813          	slli	a6,a2,0x3
    7d04:	01d71793          	slli	a5,a4,0x1d
    7d08:	00385813          	srli	a6,a6,0x3
    7d0c:	00f86833          	or	a6,a6,a5
    7d10:	8436                	mv	s0,a3
    7d12:	00375793          	srli	a5,a4,0x3
    7d16:	b391                	j	7a5a <__subdf3+0x31c>
    7d18:	41df09b3          	sub	s3,t5,t4
    7d1c:	40e307b3          	sub	a5,t1,a4
    7d20:	013f3f33          	sltu	t5,t5,s3
    7d24:	41e78633          	sub	a2,a5,t5
    7d28:	4485                	li	s1,1
    7d2a:	b4d1                	j	77ee <__subdf3+0xb0>
    7d2c:	00351813          	slli	a6,a0,0x3
    7d30:	01d31693          	slli	a3,t1,0x1d
    7d34:	00385813          	srli	a6,a6,0x3
    7d38:	0106e833          	or	a6,a3,a6
    7d3c:	00335793          	srli	a5,t1,0x3
    7d40:	bb9d                	j	7ab6 <__subdf3+0x378>
    7d42:	41ee89b3          	sub	s3,t4,t5
    7d46:	40670633          	sub	a2,a4,t1
    7d4a:	013eb933          	sltu	s2,t4,s3
    7d4e:	41260933          	sub	s2,a2,s2
    7d52:	8436                	mv	s0,a3
    7d54:	b475                	j	7800 <__subdf3+0xc2>
    7d56:	060e                	slli	a2,a2,0x3
    7d58:	01d71813          	slli	a6,a4,0x1d
    7d5c:	820d                	srli	a2,a2,0x3
    7d5e:	00c86833          	or	a6,a6,a2
    7d62:	00375793          	srli	a5,a4,0x3
    7d66:	bb81                	j	7ab6 <__subdf3+0x378>
    7d68:	41df09b3          	sub	s3,t5,t4
    7d6c:	40e307b3          	sub	a5,t1,a4
    7d70:	013f3633          	sltu	a2,t5,s3
    7d74:	40c78633          	sub	a2,a5,a2
    7d78:	00861793          	slli	a5,a2,0x8
    7d7c:	0a07d763          	bgez	a5,7e2a <__subdf3+0x6ec>
    7d80:	41ee89b3          	sub	s3,t4,t5
    7d84:	406707b3          	sub	a5,a4,t1
    7d88:	013ebeb3          	sltu	t4,t4,s3
    7d8c:	41d78633          	sub	a2,a5,t4
    7d90:	8436                	mv	s0,a3
    7d92:	b4c9                	j	7854 <__subdf3+0x116>
    7d94:	01e36333          	or	t1,t1,t5
    7d98:	00603833          	snez	a6,t1
    7d9c:	b3fd                	j	7b8a <__subdf3+0x44c>
    7d9e:	fe058813          	addi	a6,a1,-32
    7da2:	02000793          	li	a5,32
    7da6:	010359b3          	srl	s3,t1,a6
    7daa:	00f58a63          	beq	a1,a5,7dbe <__subdf3+0x680>
    7dae:	04000793          	li	a5,64
    7db2:	40b785b3          	sub	a1,a5,a1
    7db6:	00b31333          	sll	t1,t1,a1
    7dba:	006f6f33          	or	t5,t5,t1
    7dbe:	01e03833          	snez	a6,t5
    7dc2:	01386833          	or	a6,a6,s3
    7dc6:	b57d                	j	7c74 <__subdf3+0x536>
    7dc8:	41ee89b3          	sub	s3,t4,t5
    7dcc:	406707b3          	sub	a5,a4,t1
    7dd0:	013ebeb3          	sltu	t4,t4,s3
    7dd4:	41d78633          	sub	a2,a5,t4
    7dd8:	8436                	mv	s0,a3
    7dda:	4485                	li	s1,1
    7ddc:	bc09                	j	77ee <__subdf3+0xb0>
    7dde:	00361813          	slli	a6,a2,0x3
    7de2:	01d71793          	slli	a5,a4,0x1d
    7de6:	00385813          	srli	a6,a6,0x3
    7dea:	00f86833          	or	a6,a6,a5
    7dee:	00375793          	srli	a5,a4,0x3
    7df2:	b1a5                	j	7a5a <__subdf3+0x31c>
    7df4:	01df09b3          	add	s3,t5,t4
    7df8:	00e307b3          	add	a5,t1,a4
    7dfc:	01e9bf33          	sltu	t5,s3,t5
    7e00:	01e78633          	add	a2,a5,t5
    7e04:	00861793          	slli	a5,a2,0x8
    7e08:	c207d8e3          	bgez	a5,7a38 <__subdf3+0x2fa>
    7e0c:	ff8007b7          	lui	a5,0xff800
    7e10:	17fd                	addi	a5,a5,-1
    7e12:	8e7d                	and	a2,a2,a5
    7e14:	4485                	li	s1,1
    7e16:	b10d                	j	7a38 <__subdf3+0x2fa>
    7e18:	060e                	slli	a2,a2,0x3
    7e1a:	01d71813          	slli	a6,a4,0x1d
    7e1e:	820d                	srli	a2,a2,0x3
    7e20:	00c86833          	or	a6,a6,a2
    7e24:	00375793          	srli	a5,a4,0x3
    7e28:	b12d                	j	7a52 <__subdf3+0x314>
    7e2a:	00c9e833          	or	a6,s3,a2
    7e2e:	d00806e3          	beqz	a6,7b3a <__subdf3+0x3fc>
    7e32:	b119                	j	7a38 <__subdf3+0x2fa>
    7e34:	fe058813          	addi	a6,a1,-32
    7e38:	02000793          	li	a5,32
    7e3c:	010359b3          	srl	s3,t1,a6
    7e40:	00f58a63          	beq	a1,a5,7e54 <__subdf3+0x716>
    7e44:	04000793          	li	a5,64
    7e48:	40b785b3          	sub	a1,a5,a1
    7e4c:	00b31333          	sll	t1,t1,a1
    7e50:	006f6f33          	or	t5,t5,t1
    7e54:	01e03833          	snez	a6,t5
    7e58:	01386833          	or	a6,a6,s3
    7e5c:	b33d                	j	7b8a <__subdf3+0x44c>
    7e5e:	4401                	li	s0,0
    7e60:	7ff00713          	li	a4,2047
    7e64:	000807b7          	lui	a5,0x80
    7e68:	bc2d                	j	78a2 <__subdf3+0x164>
    7e6a:	01df09b3          	add	s3,t5,t4
    7e6e:	00e307b3          	add	a5,t1,a4
    7e72:	01d9beb3          	sltu	t4,s3,t4
    7e76:	01d78633          	add	a2,a5,t4
    7e7a:	bb69                	j	7c14 <__subdf3+0x4d6>

00007e7c <__unorddf2>:
    7e7c:	0145d713          	srli	a4,a1,0x14
    7e80:	001007b7          	lui	a5,0x100
    7e84:	17fd                	addi	a5,a5,-1
    7e86:	fff74713          	not	a4,a4
    7e8a:	0146d813          	srli	a6,a3,0x14
    7e8e:	8dfd                	and	a1,a1,a5
    7e90:	8ff5                	and	a5,a5,a3
    7e92:	01571693          	slli	a3,a4,0x15
    7e96:	7ff87813          	andi	a6,a6,2047
    7e9a:	ca99                	beqz	a3,7eb0 <__unorddf2+0x34>
    7e9c:	7ff00713          	li	a4,2047
    7ea0:	4501                	li	a0,0
    7ea2:	00e80363          	beq	a6,a4,7ea8 <__unorddf2+0x2c>
    7ea6:	8082                	ret
    7ea8:	8fd1                	or	a5,a5,a2
    7eaa:	00f03533          	snez	a0,a5
    7eae:	8082                	ret
    7eb0:	8dc9                	or	a1,a1,a0
    7eb2:	4505                	li	a0,1
    7eb4:	d5e5                	beqz	a1,7e9c <__unorddf2+0x20>
    7eb6:	8082                	ret

00007eb8 <__floatsidf>:
    7eb8:	1141                	addi	sp,sp,-16
    7eba:	c606                	sw	ra,12(sp)
    7ebc:	c422                	sw	s0,8(sp)
    7ebe:	c226                	sw	s1,4(sp)
    7ec0:	cd0d                	beqz	a0,7efa <__floatsidf+0x42>
    7ec2:	41f55793          	srai	a5,a0,0x1f
    7ec6:	00a7c4b3          	xor	s1,a5,a0
    7eca:	8c9d                	sub	s1,s1,a5
    7ecc:	842a                	mv	s0,a0
    7ece:	8526                	mv	a0,s1
    7ed0:	c7cfe0ef          	jal	ra,634c <__clzsi2>
    7ed4:	41e00693          	li	a3,1054
    7ed8:	8e89                	sub	a3,a3,a0
    7eda:	47a9                	li	a5,10
    7edc:	807d                	srli	s0,s0,0x1f
    7ede:	7ff6f693          	andi	a3,a3,2047
    7ee2:	02a7cd63          	blt	a5,a0,7f1c <__floatsidf+0x64>
    7ee6:	472d                	li	a4,11
    7ee8:	8f09                	sub	a4,a4,a0
    7eea:	00e4d7b3          	srl	a5,s1,a4
    7eee:	0555                	addi	a0,a0,21
    7ef0:	07b2                	slli	a5,a5,0xc
    7ef2:	00a494b3          	sll	s1,s1,a0
    7ef6:	83b1                	srli	a5,a5,0xc
    7ef8:	a029                	j	7f02 <__floatsidf+0x4a>
    7efa:	4401                	li	s0,0
    7efc:	4681                	li	a3,0
    7efe:	4781                	li	a5,0
    7f00:	4481                	li	s1,0
    7f02:	07b2                	slli	a5,a5,0xc
    7f04:	06d2                	slli	a3,a3,0x14
    7f06:	83b1                	srli	a5,a5,0xc
    7f08:	047e                	slli	s0,s0,0x1f
    7f0a:	8fd5                	or	a5,a5,a3
    7f0c:	8fc1                	or	a5,a5,s0
    7f0e:	40b2                	lw	ra,12(sp)
    7f10:	4422                	lw	s0,8(sp)
    7f12:	8526                	mv	a0,s1
    7f14:	85be                	mv	a1,a5
    7f16:	4492                	lw	s1,4(sp)
    7f18:	0141                	addi	sp,sp,16
    7f1a:	8082                	ret
    7f1c:	1555                	addi	a0,a0,-11
    7f1e:	00a497b3          	sll	a5,s1,a0
    7f22:	07b2                	slli	a5,a5,0xc
    7f24:	83b1                	srli	a5,a5,0xc
    7f26:	4481                	li	s1,0
    7f28:	bfe9                	j	7f02 <__floatsidf+0x4a>

00007f2a <__divsf3>:
    7f2a:	7139                	addi	sp,sp,-64
    7f2c:	01755793          	srli	a5,a0,0x17
    7f30:	d84a                	sw	s2,48(sp)
    7f32:	d256                	sw	s5,36(sp)
    7f34:	ce5e                	sw	s7,28(sp)
    7f36:	00951a93          	slli	s5,a0,0x9
    7f3a:	01f55913          	srli	s2,a0,0x1f
    7f3e:	de06                	sw	ra,60(sp)
    7f40:	dc22                	sw	s0,56(sp)
    7f42:	da26                	sw	s1,52(sp)
    7f44:	d64e                	sw	s3,44(sp)
    7f46:	d452                	sw	s4,40(sp)
    7f48:	d05a                	sw	s6,32(sp)
    7f4a:	0ff7f793          	andi	a5,a5,255
    7f4e:	009ada93          	srli	s5,s5,0x9
    7f52:	8bca                	mv	s7,s2
    7f54:	12078263          	beqz	a5,8078 <__divsf3+0x14e>
    7f58:	0ff00713          	li	a4,255
    7f5c:	12e78463          	beq	a5,a4,8084 <__divsf3+0x15a>
    7f60:	0a8e                	slli	s5,s5,0x3
    7f62:	04000737          	lui	a4,0x4000
    7f66:	00eaeab3          	or	s5,s5,a4
    7f6a:	f8178a13          	addi	s4,a5,-127 # fff81 <_data_lma+0xf382d>
    7f6e:	4401                	li	s0,0
    7f70:	4b01                	li	s6,0
    7f72:	0175d793          	srli	a5,a1,0x17
    7f76:	00959493          	slli	s1,a1,0x9
    7f7a:	0ff7f793          	andi	a5,a5,255
    7f7e:	80a5                	srli	s1,s1,0x9
    7f80:	01f5d993          	srli	s3,a1,0x1f
    7f84:	c7fd                	beqz	a5,8072 <__divsf3+0x148>
    7f86:	0ff00713          	li	a4,255
    7f8a:	02e78763          	beq	a5,a4,7fb8 <__divsf3+0x8e>
    7f8e:	048e                	slli	s1,s1,0x3
    7f90:	f8178793          	addi	a5,a5,-127
    7f94:	04000737          	lui	a4,0x4000
    7f98:	8cd9                	or	s1,s1,a4
    7f9a:	40fa0a33          	sub	s4,s4,a5
    7f9e:	4681                	li	a3,0
    7fa0:	8c55                	or	s0,s0,a3
    7fa2:	00004717          	auipc	a4,0x4
    7fa6:	51670713          	addi	a4,a4,1302 # c4b8 <rtable.3322+0x154>
    7faa:	040a                	slli	s0,s0,0x2
    7fac:	943a                	add	s0,s0,a4
    7fae:	401c                	lw	a5,0(s0)
    7fb0:	01394933          	xor	s2,s2,s3
    7fb4:	97ba                	add	a5,a5,a4
    7fb6:	8782                	jr	a5
    7fb8:	f01a0a13          	addi	s4,s4,-255
    7fbc:	e8f9                	bnez	s1,8092 <__divsf3+0x168>
    7fbe:	4689                	li	a3,2
    7fc0:	8c55                	or	s0,s0,a3
    7fc2:	00004717          	auipc	a4,0x4
    7fc6:	53670713          	addi	a4,a4,1334 # c4f8 <rtable.3322+0x194>
    7fca:	040a                	slli	s0,s0,0x2
    7fcc:	943a                	add	s0,s0,a4
    7fce:	401c                	lw	a5,0(s0)
    7fd0:	01394933          	xor	s2,s2,s3
    7fd4:	97ba                	add	a5,a5,a4
    7fd6:	8782                	jr	a5
    7fd8:	4901                	li	s2,0
    7fda:	0ff00713          	li	a4,255
    7fde:	004007b7          	lui	a5,0x400
    7fe2:	00979513          	slli	a0,a5,0x9
    7fe6:	50f2                	lw	ra,60(sp)
    7fe8:	5462                	lw	s0,56(sp)
    7fea:	01771793          	slli	a5,a4,0x17
    7fee:	8125                	srli	a0,a0,0x9
    7ff0:	097e                	slli	s2,s2,0x1f
    7ff2:	8d5d                	or	a0,a0,a5
    7ff4:	01256533          	or	a0,a0,s2
    7ff8:	54d2                	lw	s1,52(sp)
    7ffa:	5942                	lw	s2,48(sp)
    7ffc:	59b2                	lw	s3,44(sp)
    7ffe:	5a22                	lw	s4,40(sp)
    8000:	5a92                	lw	s5,36(sp)
    8002:	5b02                	lw	s6,32(sp)
    8004:	4bf2                	lw	s7,28(sp)
    8006:	6121                	addi	sp,sp,64
    8008:	8082                	ret
    800a:	0ff00713          	li	a4,255
    800e:	4781                	li	a5,0
    8010:	bfc9                	j	7fe2 <__divsf3+0xb8>
    8012:	8aa6                	mv	s5,s1
    8014:	8bce                	mv	s7,s3
    8016:	8b36                	mv	s6,a3
    8018:	4789                	li	a5,2
    801a:	1afb0b63          	beq	s6,a5,81d0 <__divsf3+0x2a6>
    801e:	478d                	li	a5,3
    8020:	fafb0ce3          	beq	s6,a5,7fd8 <__divsf3+0xae>
    8024:	4785                	li	a5,1
    8026:	0afb0a63          	beq	s6,a5,80da <__divsf3+0x1b0>
    802a:	07fa0713          	addi	a4,s4,127
    802e:	001bf913          	andi	s2,s7,1
    8032:	12e05763          	blez	a4,8160 <__divsf3+0x236>
    8036:	007af793          	andi	a5,s5,7
    803a:	c799                	beqz	a5,8048 <__divsf3+0x11e>
    803c:	00faf793          	andi	a5,s5,15
    8040:	4691                	li	a3,4
    8042:	00d78363          	beq	a5,a3,8048 <__divsf3+0x11e>
    8046:	0a91                	addi	s5,s5,4
    8048:	004a9793          	slli	a5,s5,0x4
    804c:	0007d963          	bgez	a5,805e <__divsf3+0x134>
    8050:	f80007b7          	lui	a5,0xf8000
    8054:	17fd                	addi	a5,a5,-1
    8056:	00fafab3          	and	s5,s5,a5
    805a:	080a0713          	addi	a4,s4,128
    805e:	0fe00793          	li	a5,254
    8062:	fae7c4e3          	blt	a5,a4,800a <__divsf3+0xe0>
    8066:	006a9793          	slli	a5,s5,0x6
    806a:	83a5                	srli	a5,a5,0x9
    806c:	0ff77713          	andi	a4,a4,255
    8070:	bf8d                	j	7fe2 <__divsf3+0xb8>
    8072:	e4b9                	bnez	s1,80c0 <__divsf3+0x196>
    8074:	4685                	li	a3,1
    8076:	b7a9                	j	7fc0 <__divsf3+0x96>
    8078:	020a9463          	bnez	s5,80a0 <__divsf3+0x176>
    807c:	4411                	li	s0,4
    807e:	4a01                	li	s4,0
    8080:	4b05                	li	s6,1
    8082:	bdc5                	j	7f72 <__divsf3+0x48>
    8084:	000a9963          	bnez	s5,8096 <__divsf3+0x16c>
    8088:	4421                	li	s0,8
    808a:	0ff00a13          	li	s4,255
    808e:	4b09                	li	s6,2
    8090:	b5cd                	j	7f72 <__divsf3+0x48>
    8092:	468d                	li	a3,3
    8094:	b731                	j	7fa0 <__divsf3+0x76>
    8096:	4431                	li	s0,12
    8098:	0ff00a13          	li	s4,255
    809c:	4b0d                	li	s6,3
    809e:	bdd1                	j	7f72 <__divsf3+0x48>
    80a0:	8556                	mv	a0,s5
    80a2:	c62e                	sw	a1,12(sp)
    80a4:	aa8fe0ef          	jal	ra,634c <__clzsi2>
    80a8:	ffb50793          	addi	a5,a0,-5 # 7ffffb <_data_lma+0x7f38a7>
    80ac:	00fa9ab3          	sll	s5,s5,a5
    80b0:	f8a00793          	li	a5,-118
    80b4:	40a78a33          	sub	s4,a5,a0
    80b8:	4401                	li	s0,0
    80ba:	4b01                	li	s6,0
    80bc:	45b2                	lw	a1,12(sp)
    80be:	bd55                	j	7f72 <__divsf3+0x48>
    80c0:	8526                	mv	a0,s1
    80c2:	a8afe0ef          	jal	ra,634c <__clzsi2>
    80c6:	ffb50713          	addi	a4,a0,-5
    80ca:	00aa07b3          	add	a5,s4,a0
    80ce:	00e494b3          	sll	s1,s1,a4
    80d2:	07678a13          	addi	s4,a5,118 # f8000076 <_eusrstack+0xd7ff8076>
    80d6:	4681                	li	a3,0
    80d8:	b5e1                	j	7fa0 <__divsf3+0x76>
    80da:	001bf913          	andi	s2,s7,1
    80de:	4701                	li	a4,0
    80e0:	4781                	li	a5,0
    80e2:	b701                	j	7fe2 <__divsf3+0xb8>
    80e4:	6641                	lui	a2,0x10
    80e6:	00549513          	slli	a0,s1,0x5
    80ea:	167d                	addi	a2,a2,-1
    80ec:	01055793          	srli	a5,a0,0x10
    80f0:	8e69                	and	a2,a2,a0
    80f2:	0a9afa63          	bgeu	s5,s1,81a6 <__divsf3+0x27c>
    80f6:	02fad5b3          	divu	a1,s5,a5
    80fa:	1a7d                	addi	s4,s4,-1
    80fc:	86d6                	mv	a3,s5
    80fe:	4701                	li	a4,0
    8100:	02c58833          	mul	a6,a1,a2
    8104:	02f6f6b3          	remu	a3,a3,a5
    8108:	06c2                	slli	a3,a3,0x10
    810a:	8f55                	or	a4,a4,a3
    810c:	01077b63          	bgeu	a4,a6,8122 <__divsf3+0x1f8>
    8110:	972a                	add	a4,a4,a0
    8112:	fff58693          	addi	a3,a1,-1
    8116:	0aa76863          	bltu	a4,a0,81c6 <__divsf3+0x29c>
    811a:	0b077663          	bgeu	a4,a6,81c6 <__divsf3+0x29c>
    811e:	15f9                	addi	a1,a1,-2
    8120:	972a                	add	a4,a4,a0
    8122:	41070733          	sub	a4,a4,a6
    8126:	02f756b3          	divu	a3,a4,a5
    812a:	02f77733          	remu	a4,a4,a5
    812e:	02c68ab3          	mul	s5,a3,a2
    8132:	01071793          	slli	a5,a4,0x10
    8136:	0157fb63          	bgeu	a5,s5,814c <__divsf3+0x222>
    813a:	97aa                	add	a5,a5,a0
    813c:	fff68713          	addi	a4,a3,-1 # 7fffff <_data_lma+0x7f38ab>
    8140:	08a7e163          	bltu	a5,a0,81c2 <__divsf3+0x298>
    8144:	0757ff63          	bgeu	a5,s5,81c2 <__divsf3+0x298>
    8148:	16f9                	addi	a3,a3,-2
    814a:	97aa                	add	a5,a5,a0
    814c:	05c2                	slli	a1,a1,0x10
    814e:	41578ab3          	sub	s5,a5,s5
    8152:	8dd5                	or	a1,a1,a3
    8154:	01503ab3          	snez	s5,s5
    8158:	0155eab3          	or	s5,a1,s5
    815c:	8bca                	mv	s7,s2
    815e:	b5f1                	j	802a <__divsf3+0x100>
    8160:	4685                	li	a3,1
    8162:	8e99                	sub	a3,a3,a4
    8164:	c711                	beqz	a4,8170 <__divsf3+0x246>
    8166:	466d                	li	a2,27
    8168:	4701                	li	a4,0
    816a:	4781                	li	a5,0
    816c:	e6d64be3          	blt	a2,a3,7fe2 <__divsf3+0xb8>
    8170:	09ea0a13          	addi	s4,s4,158
    8174:	014a9a33          	sll	s4,s5,s4
    8178:	00dad7b3          	srl	a5,s5,a3
    817c:	01403ab3          	snez	s5,s4
    8180:	0157e7b3          	or	a5,a5,s5
    8184:	0077f713          	andi	a4,a5,7
    8188:	c719                	beqz	a4,8196 <__divsf3+0x26c>
    818a:	00f7f713          	andi	a4,a5,15
    818e:	4691                	li	a3,4
    8190:	00d70363          	beq	a4,a3,8196 <__divsf3+0x26c>
    8194:	0791                	addi	a5,a5,4
    8196:	00579713          	slli	a4,a5,0x5
    819a:	02074863          	bltz	a4,81ca <__divsf3+0x2a0>
    819e:	079a                	slli	a5,a5,0x6
    81a0:	83a5                	srli	a5,a5,0x9
    81a2:	4701                	li	a4,0
    81a4:	bd3d                	j	7fe2 <__divsf3+0xb8>
    81a6:	001ad693          	srli	a3,s5,0x1
    81aa:	02f6d5b3          	divu	a1,a3,a5
    81ae:	01fa9713          	slli	a4,s5,0x1f
    81b2:	8341                	srli	a4,a4,0x10
    81b4:	02c58833          	mul	a6,a1,a2
    81b8:	b7b1                	j	8104 <__divsf3+0x1da>
    81ba:	8bce                	mv	s7,s3
    81bc:	8b36                	mv	s6,a3
    81be:	4a81                	li	s5,0
    81c0:	bda1                	j	8018 <__divsf3+0xee>
    81c2:	86ba                	mv	a3,a4
    81c4:	b761                	j	814c <__divsf3+0x222>
    81c6:	85b6                	mv	a1,a3
    81c8:	bfa9                	j	8122 <__divsf3+0x1f8>
    81ca:	4705                	li	a4,1
    81cc:	4781                	li	a5,0
    81ce:	bd11                	j	7fe2 <__divsf3+0xb8>
    81d0:	001bf913          	andi	s2,s7,1
    81d4:	0ff00713          	li	a4,255
    81d8:	4781                	li	a5,0
    81da:	b521                	j	7fe2 <__divsf3+0xb8>

000081dc <__eqsf2>:
    81dc:	01755693          	srli	a3,a0,0x17
    81e0:	008007b7          	lui	a5,0x800
    81e4:	17fd                	addi	a5,a5,-1
    81e6:	0175d613          	srli	a2,a1,0x17
    81ea:	0ff6f693          	andi	a3,a3,255
    81ee:	0ff00813          	li	a6,255
    81f2:	00a7f8b3          	and	a7,a5,a0
    81f6:	01f55713          	srli	a4,a0,0x1f
    81fa:	8fed                	and	a5,a5,a1
    81fc:	0ff67613          	andi	a2,a2,255
    8200:	81fd                	srli	a1,a1,0x1f
    8202:	03068463          	beq	a3,a6,822a <__eqsf2+0x4e>
    8206:	0ff00513          	li	a0,255
    820a:	02a60463          	beq	a2,a0,8232 <__eqsf2+0x56>
    820e:	4505                	li	a0,1
    8210:	00c68363          	beq	a3,a2,8216 <__eqsf2+0x3a>
    8214:	8082                	ret
    8216:	fef89fe3          	bne	a7,a5,8214 <__eqsf2+0x38>
    821a:	4501                	li	a0,0
    821c:	feb70ce3          	beq	a4,a1,8214 <__eqsf2+0x38>
    8220:	4505                	li	a0,1
    8222:	faed                	bnez	a3,8214 <__eqsf2+0x38>
    8224:	01103533          	snez	a0,a7
    8228:	8082                	ret
    822a:	4505                	li	a0,1
    822c:	fc088de3          	beqz	a7,8206 <__eqsf2+0x2a>
    8230:	8082                	ret
    8232:	4505                	li	a0,1
    8234:	dfe9                	beqz	a5,820e <__eqsf2+0x32>
    8236:	8082                	ret

00008238 <__gesf2>:
    8238:	01755693          	srli	a3,a0,0x17
    823c:	008007b7          	lui	a5,0x800
    8240:	17fd                	addi	a5,a5,-1
    8242:	0175d613          	srli	a2,a1,0x17
    8246:	0ff6f693          	andi	a3,a3,255
    824a:	0ff00813          	li	a6,255
    824e:	00a7f8b3          	and	a7,a5,a0
    8252:	01f55713          	srli	a4,a0,0x1f
    8256:	8fed                	and	a5,a5,a1
    8258:	0ff67613          	andi	a2,a2,255
    825c:	81fd                	srli	a1,a1,0x1f
    825e:	03068163          	beq	a3,a6,8280 <__gesf2+0x48>
    8262:	01060c63          	beq	a2,a6,827a <__gesf2+0x42>
    8266:	e28d                	bnez	a3,8288 <__gesf2+0x50>
    8268:	e211                	bnez	a2,826c <__gesf2+0x34>
    826a:	c3b1                	beqz	a5,82ae <__gesf2+0x76>
    826c:	02088e63          	beqz	a7,82a8 <__gesf2+0x70>
    8270:	04b70563          	beq	a4,a1,82ba <__gesf2+0x82>
    8274:	4505                	li	a0,1
    8276:	e71d                	bnez	a4,82a4 <__gesf2+0x6c>
    8278:	8082                	ret
    827a:	d7f5                	beqz	a5,8266 <__gesf2+0x2e>
    827c:	5579                	li	a0,-2
    827e:	8082                	ret
    8280:	fe089ee3          	bnez	a7,827c <__gesf2+0x44>
    8284:	02d60963          	beq	a2,a3,82b6 <__gesf2+0x7e>
    8288:	e211                	bnez	a2,828c <__gesf2+0x54>
    828a:	d7ed                	beqz	a5,8274 <__gesf2+0x3c>
    828c:	feb714e3          	bne	a4,a1,8274 <__gesf2+0x3c>
    8290:	fed642e3          	blt	a2,a3,8274 <__gesf2+0x3c>
    8294:	00c6c763          	blt	a3,a2,82a2 <__gesf2+0x6a>
    8298:	fd17eee3          	bltu	a5,a7,8274 <__gesf2+0x3c>
    829c:	4501                	li	a0,0
    829e:	fcf8fde3          	bgeu	a7,a5,8278 <__gesf2+0x40>
    82a2:	e701                	bnez	a4,82aa <__gesf2+0x72>
    82a4:	557d                	li	a0,-1
    82a6:	8082                	ret
    82a8:	ddf5                	beqz	a1,82a4 <__gesf2+0x6c>
    82aa:	4505                	li	a0,1
    82ac:	8082                	ret
    82ae:	4501                	li	a0,0
    82b0:	fc0892e3          	bnez	a7,8274 <__gesf2+0x3c>
    82b4:	8082                	ret
    82b6:	dbf9                	beqz	a5,828c <__gesf2+0x54>
    82b8:	b7d1                	j	827c <__gesf2+0x44>
    82ba:	4681                	li	a3,0
    82bc:	bfe1                	j	8294 <__gesf2+0x5c>

000082be <__lesf2>:
    82be:	01755693          	srli	a3,a0,0x17
    82c2:	008007b7          	lui	a5,0x800
    82c6:	17fd                	addi	a5,a5,-1
    82c8:	0175d613          	srli	a2,a1,0x17
    82cc:	0ff6f693          	andi	a3,a3,255
    82d0:	0ff00813          	li	a6,255
    82d4:	00a7f8b3          	and	a7,a5,a0
    82d8:	01f55713          	srli	a4,a0,0x1f
    82dc:	8fed                	and	a5,a5,a1
    82de:	0ff67613          	andi	a2,a2,255
    82e2:	81fd                	srli	a1,a1,0x1f
    82e4:	03068763          	beq	a3,a6,8312 <__lesf2+0x54>
    82e8:	01060963          	beq	a2,a6,82fa <__lesf2+0x3c>
    82ec:	ea85                	bnez	a3,831c <__lesf2+0x5e>
    82ee:	ea11                	bnez	a2,8302 <__lesf2+0x44>
    82f0:	eb89                	bnez	a5,8302 <__lesf2+0x44>
    82f2:	4501                	li	a0,0
    82f4:	00089b63          	bnez	a7,830a <__lesf2+0x4c>
    82f8:	8082                	ret
    82fa:	4509                	li	a0,2
    82fc:	fff5                	bnez	a5,82f8 <__lesf2+0x3a>
    82fe:	dae5                	beqz	a3,82ee <__lesf2+0x30>
    8300:	a831                	j	831c <__lesf2+0x5e>
    8302:	02088c63          	beqz	a7,833a <__lesf2+0x7c>
    8306:	04b70063          	beq	a4,a1,8346 <__lesf2+0x88>
    830a:	4505                	li	a0,1
    830c:	d775                	beqz	a4,82f8 <__lesf2+0x3a>
    830e:	557d                	li	a0,-1
    8310:	8082                	ret
    8312:	4509                	li	a0,2
    8314:	02089863          	bnez	a7,8344 <__lesf2+0x86>
    8318:	02d60463          	beq	a2,a3,8340 <__lesf2+0x82>
    831c:	e211                	bnez	a2,8320 <__lesf2+0x62>
    831e:	d7f5                	beqz	a5,830a <__lesf2+0x4c>
    8320:	feb715e3          	bne	a4,a1,830a <__lesf2+0x4c>
    8324:	fed643e3          	blt	a2,a3,830a <__lesf2+0x4c>
    8328:	00c6c763          	blt	a3,a2,8336 <__lesf2+0x78>
    832c:	fd17efe3          	bltu	a5,a7,830a <__lesf2+0x4c>
    8330:	4501                	li	a0,0
    8332:	fcf8f3e3          	bgeu	a7,a5,82f8 <__lesf2+0x3a>
    8336:	e319                	bnez	a4,833c <__lesf2+0x7e>
    8338:	bfd9                	j	830e <__lesf2+0x50>
    833a:	d9f1                	beqz	a1,830e <__lesf2+0x50>
    833c:	4505                	li	a0,1
    833e:	8082                	ret
    8340:	d3e5                	beqz	a5,8320 <__lesf2+0x62>
    8342:	8082                	ret
    8344:	8082                	ret
    8346:	4681                	li	a3,0
    8348:	b7c5                	j	8328 <__lesf2+0x6a>

0000834a <__mulsf3>:
    834a:	7179                	addi	sp,sp,-48
    834c:	d422                	sw	s0,40(sp)
    834e:	01755413          	srli	s0,a0,0x17
    8352:	ce4e                	sw	s3,28(sp)
    8354:	cc52                	sw	s4,24(sp)
    8356:	00951993          	slli	s3,a0,0x9
    835a:	d606                	sw	ra,44(sp)
    835c:	d226                	sw	s1,36(sp)
    835e:	d04a                	sw	s2,32(sp)
    8360:	ca56                	sw	s5,20(sp)
    8362:	c85a                	sw	s6,16(sp)
    8364:	0ff47413          	andi	s0,s0,255
    8368:	0099d993          	srli	s3,s3,0x9
    836c:	01f55a13          	srli	s4,a0,0x1f
    8370:	c469                	beqz	s0,843a <__mulsf3+0xf0>
    8372:	0ff00793          	li	a5,255
    8376:	0ef40863          	beq	s0,a5,8466 <__mulsf3+0x11c>
    837a:	00399793          	slli	a5,s3,0x3
    837e:	04000737          	lui	a4,0x4000
    8382:	00e7e9b3          	or	s3,a5,a4
    8386:	f8140413          	addi	s0,s0,-127 # 7ff81 <_data_lma+0x7382d>
    838a:	4481                	li	s1,0
    838c:	4b01                	li	s6,0
    838e:	0175d713          	srli	a4,a1,0x17
    8392:	00959a93          	slli	s5,a1,0x9
    8396:	0ff77713          	andi	a4,a4,255
    839a:	009ada93          	srli	s5,s5,0x9
    839e:	01f5d913          	srli	s2,a1,0x1f
    83a2:	cf45                	beqz	a4,845a <__mulsf3+0x110>
    83a4:	0ff00793          	li	a5,255
    83a8:	02f70c63          	beq	a4,a5,83e0 <__mulsf3+0x96>
    83ac:	0a8e                	slli	s5,s5,0x3
    83ae:	f8170713          	addi	a4,a4,-127 # 3ffff81 <_data_lma+0x3ff382d>
    83b2:	040007b7          	lui	a5,0x4000
    83b6:	00faeab3          	or	s5,s5,a5
    83ba:	943a                	add	s0,s0,a4
    83bc:	4601                	li	a2,0
    83be:	012a4533          	xor	a0,s4,s2
    83c2:	47bd                	li	a5,15
    83c4:	86aa                	mv	a3,a0
    83c6:	00140593          	addi	a1,s0,1
    83ca:	1097e263          	bltu	a5,s1,84ce <__mulsf3+0x184>
    83ce:	00004717          	auipc	a4,0x4
    83d2:	16a70713          	addi	a4,a4,362 # c538 <rtable.3322+0x1d4>
    83d6:	048a                	slli	s1,s1,0x2
    83d8:	94ba                	add	s1,s1,a4
    83da:	409c                	lw	a5,0(s1)
    83dc:	97ba                	add	a5,a5,a4
    83de:	8782                	jr	a5
    83e0:	0ff40413          	addi	s0,s0,255
    83e4:	0c0a9863          	bnez	s5,84b4 <__mulsf3+0x16a>
    83e8:	0024e493          	ori	s1,s1,2
    83ec:	4609                	li	a2,2
    83ee:	bfc1                	j	83be <__mulsf3+0x74>
    83f0:	4501                	li	a0,0
    83f2:	0ff00713          	li	a4,255
    83f6:	004007b7          	lui	a5,0x400
    83fa:	50b2                	lw	ra,44(sp)
    83fc:	5422                	lw	s0,40(sp)
    83fe:	07a6                	slli	a5,a5,0x9
    8400:	075e                	slli	a4,a4,0x17
    8402:	83a5                	srli	a5,a5,0x9
    8404:	057e                	slli	a0,a0,0x1f
    8406:	8fd9                	or	a5,a5,a4
    8408:	5492                	lw	s1,36(sp)
    840a:	5902                	lw	s2,32(sp)
    840c:	49f2                	lw	s3,28(sp)
    840e:	4a62                	lw	s4,24(sp)
    8410:	4ad2                	lw	s5,20(sp)
    8412:	4b42                	lw	s6,16(sp)
    8414:	8d5d                	or	a0,a0,a5
    8416:	6145                	addi	sp,sp,48
    8418:	8082                	ret
    841a:	86ca                	mv	a3,s2
    841c:	89d6                	mv	s3,s5
    841e:	8b32                	mv	s6,a2
    8420:	4789                	li	a5,2
    8422:	0afb0163          	beq	s6,a5,84c4 <__mulsf3+0x17a>
    8426:	478d                	li	a5,3
    8428:	fcfb04e3          	beq	s6,a5,83f0 <__mulsf3+0xa6>
    842c:	4785                	li	a5,1
    842e:	8536                	mv	a0,a3
    8430:	1afb1263          	bne	s6,a5,85d4 <__mulsf3+0x28a>
    8434:	4701                	li	a4,0
    8436:	4781                	li	a5,0
    8438:	b7c9                	j	83fa <__mulsf3+0xb0>
    843a:	04099e63          	bnez	s3,8496 <__mulsf3+0x14c>
    843e:	0175d713          	srli	a4,a1,0x17
    8442:	00959a93          	slli	s5,a1,0x9
    8446:	0ff77713          	andi	a4,a4,255
    844a:	4491                	li	s1,4
    844c:	4401                	li	s0,0
    844e:	4b05                	li	s6,1
    8450:	009ada93          	srli	s5,s5,0x9
    8454:	01f5d913          	srli	s2,a1,0x1f
    8458:	f731                	bnez	a4,83a4 <__mulsf3+0x5a>
    845a:	000a9d63          	bnez	s5,8474 <__mulsf3+0x12a>
    845e:	0014e493          	ori	s1,s1,1
    8462:	4605                	li	a2,1
    8464:	bfa9                	j	83be <__mulsf3+0x74>
    8466:	02099363          	bnez	s3,848c <__mulsf3+0x142>
    846a:	44a1                	li	s1,8
    846c:	0ff00413          	li	s0,255
    8470:	4b09                	li	s6,2
    8472:	bf31                	j	838e <__mulsf3+0x44>
    8474:	8556                	mv	a0,s5
    8476:	ed7fd0ef          	jal	ra,634c <__clzsi2>
    847a:	ffb50793          	addi	a5,a0,-5
    847e:	8c09                	sub	s0,s0,a0
    8480:	00fa9ab3          	sll	s5,s5,a5
    8484:	f8a40413          	addi	s0,s0,-118
    8488:	4601                	li	a2,0
    848a:	bf15                	j	83be <__mulsf3+0x74>
    848c:	44b1                	li	s1,12
    848e:	0ff00413          	li	s0,255
    8492:	4b0d                	li	s6,3
    8494:	bded                	j	838e <__mulsf3+0x44>
    8496:	854e                	mv	a0,s3
    8498:	c62e                	sw	a1,12(sp)
    849a:	eb3fd0ef          	jal	ra,634c <__clzsi2>
    849e:	ffb50793          	addi	a5,a0,-5
    84a2:	f8a00413          	li	s0,-118
    84a6:	00f999b3          	sll	s3,s3,a5
    84aa:	8c09                	sub	s0,s0,a0
    84ac:	4481                	li	s1,0
    84ae:	4b01                	li	s6,0
    84b0:	45b2                	lw	a1,12(sp)
    84b2:	bdf1                	j	838e <__mulsf3+0x44>
    84b4:	0034e493          	ori	s1,s1,3
    84b8:	460d                	li	a2,3
    84ba:	b711                	j	83be <__mulsf3+0x74>
    84bc:	4789                	li	a5,2
    84be:	86d2                	mv	a3,s4
    84c0:	f6fb13e3          	bne	s6,a5,8426 <__mulsf3+0xdc>
    84c4:	8536                	mv	a0,a3
    84c6:	0ff00713          	li	a4,255
    84ca:	4781                	li	a5,0
    84cc:	b73d                	j	83fa <__mulsf3+0xb0>
    84ce:	6341                	lui	t1,0x10
    84d0:	fff30693          	addi	a3,t1,-1 # ffff <_data_lma+0x38ab>
    84d4:	0109d613          	srli	a2,s3,0x10
    84d8:	010ad893          	srli	a7,s5,0x10
    84dc:	00d9f7b3          	and	a5,s3,a3
    84e0:	00dafab3          	and	s5,s5,a3
    84e4:	03578833          	mul	a6,a5,s5
    84e8:	02f889b3          	mul	s3,a7,a5
    84ec:	01085713          	srli	a4,a6,0x10
    84f0:	03560ab3          	mul	s5,a2,s5
    84f4:	99d6                	add	s3,s3,s5
    84f6:	974e                	add	a4,a4,s3
    84f8:	03160633          	mul	a2,a2,a7
    84fc:	01577363          	bgeu	a4,s5,8502 <__mulsf3+0x1b8>
    8500:	961a                	add	a2,a2,t1
    8502:	67c1                	lui	a5,0x10
    8504:	17fd                	addi	a5,a5,-1
    8506:	00f776b3          	and	a3,a4,a5
    850a:	00f87833          	and	a6,a6,a5
    850e:	06c2                	slli	a3,a3,0x10
    8510:	96c2                	add	a3,a3,a6
    8512:	00669993          	slli	s3,a3,0x6
    8516:	01075793          	srli	a5,a4,0x10
    851a:	013039b3          	snez	s3,s3
    851e:	82e9                	srli	a3,a3,0x1a
    8520:	97b2                	add	a5,a5,a2
    8522:	079a                	slli	a5,a5,0x6
    8524:	00d9e6b3          	or	a3,s3,a3
    8528:	00d7e9b3          	or	s3,a5,a3
    852c:	00499793          	slli	a5,s3,0x4
    8530:	0007d963          	bgez	a5,8542 <__mulsf3+0x1f8>
    8534:	0019d713          	srli	a4,s3,0x1
    8538:	0019f793          	andi	a5,s3,1
    853c:	00f769b3          	or	s3,a4,a5
    8540:	842e                	mv	s0,a1
    8542:	07f40713          	addi	a4,s0,127
    8546:	04e05063          	blez	a4,8586 <__mulsf3+0x23c>
    854a:	0079f793          	andi	a5,s3,7
    854e:	c799                	beqz	a5,855c <__mulsf3+0x212>
    8550:	00f9f793          	andi	a5,s3,15
    8554:	4691                	li	a3,4
    8556:	00d78363          	beq	a5,a3,855c <__mulsf3+0x212>
    855a:	0991                	addi	s3,s3,4
    855c:	00499793          	slli	a5,s3,0x4
    8560:	0007d963          	bgez	a5,8572 <__mulsf3+0x228>
    8564:	f80007b7          	lui	a5,0xf8000
    8568:	17fd                	addi	a5,a5,-1
    856a:	00f9f9b3          	and	s3,s3,a5
    856e:	08040713          	addi	a4,s0,128
    8572:	0fe00793          	li	a5,254
    8576:	04e7cb63          	blt	a5,a4,85cc <__mulsf3+0x282>
    857a:	00699793          	slli	a5,s3,0x6
    857e:	83a5                	srli	a5,a5,0x9
    8580:	0ff77713          	andi	a4,a4,255
    8584:	bd9d                	j	83fa <__mulsf3+0xb0>
    8586:	4785                	li	a5,1
    8588:	40e786b3          	sub	a3,a5,a4
    858c:	c711                	beqz	a4,8598 <__mulsf3+0x24e>
    858e:	466d                	li	a2,27
    8590:	4701                	li	a4,0
    8592:	4781                	li	a5,0
    8594:	e6d643e3          	blt	a2,a3,83fa <__mulsf3+0xb0>
    8598:	09e40713          	addi	a4,s0,158
    859c:	00e99733          	sll	a4,s3,a4
    85a0:	00e03733          	snez	a4,a4
    85a4:	00d9d7b3          	srl	a5,s3,a3
    85a8:	8fd9                	or	a5,a5,a4
    85aa:	0077f713          	andi	a4,a5,7
    85ae:	c719                	beqz	a4,85bc <__mulsf3+0x272>
    85b0:	00f7f713          	andi	a4,a5,15
    85b4:	4691                	li	a3,4
    85b6:	00d70363          	beq	a4,a3,85bc <__mulsf3+0x272>
    85ba:	0791                	addi	a5,a5,4
    85bc:	00579713          	slli	a4,a5,0x5
    85c0:	00074c63          	bltz	a4,85d8 <__mulsf3+0x28e>
    85c4:	079a                	slli	a5,a5,0x6
    85c6:	83a5                	srli	a5,a5,0x9
    85c8:	4701                	li	a4,0
    85ca:	bd05                	j	83fa <__mulsf3+0xb0>
    85cc:	0ff00713          	li	a4,255
    85d0:	4781                	li	a5,0
    85d2:	b525                	j	83fa <__mulsf3+0xb0>
    85d4:	842e                	mv	s0,a1
    85d6:	b7b5                	j	8542 <__mulsf3+0x1f8>
    85d8:	4705                	li	a4,1
    85da:	4781                	li	a5,0
    85dc:	bd39                	j	83fa <__mulsf3+0xb0>

000085de <__subsf3>:
    85de:	00800737          	lui	a4,0x800
    85e2:	1141                	addi	sp,sp,-16
    85e4:	177d                	addi	a4,a4,-1
    85e6:	01755693          	srli	a3,a0,0x17
    85ea:	0175d813          	srli	a6,a1,0x17
    85ee:	00a777b3          	and	a5,a4,a0
    85f2:	0ff6f693          	andi	a3,a3,255
    85f6:	01f55e93          	srli	t4,a0,0x1f
    85fa:	00b77633          	and	a2,a4,a1
    85fe:	c226                	sw	s1,4(sp)
    8600:	c04a                	sw	s2,0(sp)
    8602:	0ff87813          	andi	a6,a6,255
    8606:	c606                	sw	ra,12(sp)
    8608:	c422                	sw	s0,8(sp)
    860a:	0ff00313          	li	t1,255
    860e:	8e3e                	mv	t3,a5
    8610:	8936                	mv	s2,a3
    8612:	84f6                	mv	s1,t4
    8614:	00379f13          	slli	t5,a5,0x3
    8618:	81fd                	srli	a1,a1,0x1f
    861a:	00361513          	slli	a0,a2,0x3
    861e:	410688b3          	sub	a7,a3,a6
    8622:	10680363          	beq	a6,t1,8728 <__subsf3+0x14a>
    8626:	0015c593          	xori	a1,a1,1
    862a:	10be8d63          	beq	t4,a1,8744 <__subsf3+0x166>
    862e:	0d105563          	blez	a7,86f8 <__subsf3+0x11a>
    8632:	10081163          	bnez	a6,8734 <__subsf3+0x156>
    8636:	1e050563          	beqz	a0,8820 <__subsf3+0x242>
    863a:	18fd                	addi	a7,a7,-1
    863c:	40af07b3          	sub	a5,t5,a0
    8640:	02088663          	beqz	a7,866c <__subsf3+0x8e>
    8644:	0ff00793          	li	a5,255
    8648:	16f68963          	beq	a3,a5,87ba <__subsf3+0x1dc>
    864c:	47ed                	li	a5,27
    864e:	2917c863          	blt	a5,a7,88de <__subsf3+0x300>
    8652:	02000713          	li	a4,32
    8656:	41170733          	sub	a4,a4,a7
    865a:	00e51733          	sll	a4,a0,a4
    865e:	011557b3          	srl	a5,a0,a7
    8662:	00e03733          	snez	a4,a4
    8666:	8fd9                	or	a5,a5,a4
    8668:	40ff07b3          	sub	a5,t5,a5
    866c:	00579713          	slli	a4,a5,0x5
    8670:	1a075263          	bgez	a4,8814 <__subsf3+0x236>
    8674:	04000437          	lui	s0,0x4000
    8678:	147d                	addi	s0,s0,-1
    867a:	8c7d                	and	s0,s0,a5
    867c:	8522                	mv	a0,s0
    867e:	ccffd0ef          	jal	ra,634c <__clzsi2>
    8682:	156d                	addi	a0,a0,-5
    8684:	00a417b3          	sll	a5,s0,a0
    8688:	1b254e63          	blt	a0,s2,8844 <__subsf3+0x266>
    868c:	41250533          	sub	a0,a0,s2
    8690:	00150413          	addi	s0,a0,1
    8694:	02000713          	li	a4,32
    8698:	8f01                	sub	a4,a4,s0
    869a:	00e79733          	sll	a4,a5,a4
    869e:	00e03733          	snez	a4,a4
    86a2:	0087d7b3          	srl	a5,a5,s0
    86a6:	8fd9                	or	a5,a5,a4
    86a8:	4901                	li	s2,0
    86aa:	0077f713          	andi	a4,a5,7
    86ae:	c719                	beqz	a4,86bc <__subsf3+0xde>
    86b0:	00f7f713          	andi	a4,a5,15
    86b4:	4691                	li	a3,4
    86b6:	00d70363          	beq	a4,a3,86bc <__subsf3+0xde>
    86ba:	0791                	addi	a5,a5,4
    86bc:	00579713          	slli	a4,a5,0x5
    86c0:	14075e63          	bgez	a4,881c <__subsf3+0x23e>
    86c4:	00190693          	addi	a3,s2,1 # 800001 <_data_lma+0x7f38ad>
    86c8:	0ff00713          	li	a4,255
    86cc:	0014fe93          	andi	t4,s1,1
    86d0:	16e68663          	beq	a3,a4,883c <__subsf3+0x25e>
    86d4:	079a                	slli	a5,a5,0x6
    86d6:	83a5                	srli	a5,a5,0x9
    86d8:	0ff6f693          	andi	a3,a3,255
    86dc:	07a6                	slli	a5,a5,0x9
    86de:	40b2                	lw	ra,12(sp)
    86e0:	4422                	lw	s0,8(sp)
    86e2:	0097d513          	srli	a0,a5,0x9
    86e6:	06de                	slli	a3,a3,0x17
    86e8:	01fe9793          	slli	a5,t4,0x1f
    86ec:	8d55                	or	a0,a0,a3
    86ee:	4492                	lw	s1,4(sp)
    86f0:	4902                	lw	s2,0(sp)
    86f2:	8d5d                	or	a0,a0,a5
    86f4:	0141                	addi	sp,sp,16
    86f6:	8082                	ret
    86f8:	0a089263          	bnez	a7,879c <__subsf3+0x1be>
    86fc:	00168713          	addi	a4,a3,1
    8700:	0fe77713          	andi	a4,a4,254
    8704:	14071b63          	bnez	a4,885a <__subsf3+0x27c>
    8708:	22069463          	bnez	a3,8930 <__subsf3+0x352>
    870c:	200f0263          	beqz	t5,8910 <__subsf3+0x332>
    8710:	d571                	beqz	a0,86dc <__subsf3+0xfe>
    8712:	40af07b3          	sub	a5,t5,a0
    8716:	00579713          	slli	a4,a5,0x5
    871a:	22075563          	bgez	a4,8944 <__subsf3+0x366>
    871e:	41e507b3          	sub	a5,a0,t5
    8722:	4901                	li	s2,0
    8724:	84ae                	mv	s1,a1
    8726:	b751                	j	86aa <__subsf3+0xcc>
    8728:	ee050fe3          	beqz	a0,8626 <__subsf3+0x48>
    872c:	0abe8a63          	beq	t4,a1,87e0 <__subsf3+0x202>
    8730:	fd1054e3          	blez	a7,86f8 <__subsf3+0x11a>
    8734:	0ff00793          	li	a5,255
    8738:	08f68163          	beq	a3,a5,87ba <__subsf3+0x1dc>
    873c:	040007b7          	lui	a5,0x4000
    8740:	8d5d                	or	a0,a0,a5
    8742:	b729                	j	864c <__subsf3+0x6e>
    8744:	09105e63          	blez	a7,87e0 <__subsf3+0x202>
    8748:	08080163          	beqz	a6,87ca <__subsf3+0x1ec>
    874c:	0ff00793          	li	a5,255
    8750:	06f68563          	beq	a3,a5,87ba <__subsf3+0x1dc>
    8754:	040007b7          	lui	a5,0x4000
    8758:	8d5d                	or	a0,a0,a5
    875a:	47ed                	li	a5,27
    875c:	1f17c063          	blt	a5,a7,893c <__subsf3+0x35e>
    8760:	02000713          	li	a4,32
    8764:	41170733          	sub	a4,a4,a7
    8768:	00e51733          	sll	a4,a0,a4
    876c:	011557b3          	srl	a5,a0,a7
    8770:	00e03733          	snez	a4,a4
    8774:	8fd9                	or	a5,a5,a4
    8776:	97fa                	add	a5,a5,t5
    8778:	00579713          	slli	a4,a5,0x5
    877c:	08075c63          	bgez	a4,8814 <__subsf3+0x236>
    8780:	0905                	addi	s2,s2,1
    8782:	0ff00713          	li	a4,255
    8786:	0ae90b63          	beq	s2,a4,883c <__subsf3+0x25e>
    878a:	7e0006b7          	lui	a3,0x7e000
    878e:	0017d713          	srli	a4,a5,0x1
    8792:	16fd                	addi	a3,a3,-1
    8794:	8b85                	andi	a5,a5,1
    8796:	8f75                	and	a4,a4,a3
    8798:	8fd9                	or	a5,a5,a4
    879a:	bf01                	j	86aa <__subsf3+0xcc>
    879c:	40d80733          	sub	a4,a6,a3
    87a0:	10069563          	bnez	a3,88aa <__subsf3+0x2cc>
    87a4:	140f0d63          	beqz	t5,88fe <__subsf3+0x320>
    87a8:	177d                	addi	a4,a4,-1
    87aa:	1a070363          	beqz	a4,8950 <__subsf3+0x372>
    87ae:	0ff00793          	li	a5,255
    87b2:	10f81463          	bne	a6,a5,88ba <__subsf3+0x2dc>
    87b6:	84ae                	mv	s1,a1
    87b8:	8e32                	mv	t3,a2
    87ba:	060e0f63          	beqz	t3,8838 <__subsf3+0x25a>
    87be:	4e81                	li	t4,0
    87c0:	0ff00693          	li	a3,255
    87c4:	004007b7          	lui	a5,0x400
    87c8:	bf11                	j	86dc <__subsf3+0xfe>
    87ca:	c939                	beqz	a0,8820 <__subsf3+0x242>
    87cc:	18fd                	addi	a7,a7,-1
    87ce:	00af07b3          	add	a5,t5,a0
    87d2:	fa0883e3          	beqz	a7,8778 <__subsf3+0x19a>
    87d6:	0ff00793          	li	a5,255
    87da:	f8f690e3          	bne	a3,a5,875a <__subsf3+0x17c>
    87de:	bff1                	j	87ba <__subsf3+0x1dc>
    87e0:	08089963          	bnez	a7,8872 <__subsf3+0x294>
    87e4:	00168913          	addi	s2,a3,1 # 7e000001 <_eusrstack+0x5dff8001>
    87e8:	0fe97713          	andi	a4,s2,254
    87ec:	12071663          	bnez	a4,8918 <__subsf3+0x33a>
    87f0:	10069b63          	bnez	a3,8906 <__subsf3+0x328>
    87f4:	160f0363          	beqz	t5,895a <__subsf3+0x37c>
    87f8:	ee0502e3          	beqz	a0,86dc <__subsf3+0xfe>
    87fc:	00af07b3          	add	a5,t5,a0
    8800:	00579713          	slli	a4,a5,0x5
    8804:	4901                	li	s2,0
    8806:	00075763          	bgez	a4,8814 <__subsf3+0x236>
    880a:	fc000737          	lui	a4,0xfc000
    880e:	177d                	addi	a4,a4,-1
    8810:	8ff9                	and	a5,a5,a4
    8812:	4905                	li	s2,1
    8814:	0077f713          	andi	a4,a5,7
    8818:	e8071ce3          	bnez	a4,86b0 <__subsf3+0xd2>
    881c:	0037de13          	srli	t3,a5,0x3
    8820:	0ff00793          	li	a5,255
    8824:	f8f90be3          	beq	s2,a5,87ba <__subsf3+0x1dc>
    8828:	009e1793          	slli	a5,t3,0x9
    882c:	83a5                	srli	a5,a5,0x9
    882e:	0ff97693          	andi	a3,s2,255
    8832:	0014fe93          	andi	t4,s1,1
    8836:	b55d                	j	86dc <__subsf3+0xfe>
    8838:	0014fe93          	andi	t4,s1,1
    883c:	0ff00693          	li	a3,255
    8840:	4781                	li	a5,0
    8842:	bd69                	j	86dc <__subsf3+0xfe>
    8844:	fc000737          	lui	a4,0xfc000
    8848:	177d                	addi	a4,a4,-1
    884a:	8ff9                	and	a5,a5,a4
    884c:	0077f713          	andi	a4,a5,7
    8850:	40a90933          	sub	s2,s2,a0
    8854:	e4071ee3          	bnez	a4,86b0 <__subsf3+0xd2>
    8858:	b7d1                	j	881c <__subsf3+0x23e>
    885a:	40af0433          	sub	s0,t5,a0
    885e:	00541793          	slli	a5,s0,0x5
    8862:	0c07c363          	bltz	a5,8928 <__subsf3+0x34a>
    8866:	e0041be3          	bnez	s0,867c <__subsf3+0x9e>
    886a:	4e81                	li	t4,0
    886c:	4681                	li	a3,0
    886e:	4781                	li	a5,0
    8870:	b5b5                	j	86dc <__subsf3+0xfe>
    8872:	40d80733          	sub	a4,a6,a3
    8876:	c6b5                	beqz	a3,88e2 <__subsf3+0x304>
    8878:	0ff00793          	li	a5,255
    887c:	f2f80ee3          	beq	a6,a5,87b8 <__subsf3+0x1da>
    8880:	040007b7          	lui	a5,0x4000
    8884:	00ff6f33          	or	t5,t5,a5
    8888:	47ed                	li	a5,27
    888a:	0ce7cd63          	blt	a5,a4,8964 <__subsf3+0x386>
    888e:	02000793          	li	a5,32
    8892:	8f99                	sub	a5,a5,a4
    8894:	00ff17b3          	sll	a5,t5,a5
    8898:	00ef5733          	srl	a4,t5,a4
    889c:	00f037b3          	snez	a5,a5
    88a0:	8f5d                	or	a4,a4,a5
    88a2:	00a707b3          	add	a5,a4,a0
    88a6:	8942                	mv	s2,a6
    88a8:	bdc1                	j	8778 <__subsf3+0x19a>
    88aa:	0ff00793          	li	a5,255
    88ae:	f0f804e3          	beq	a6,a5,87b6 <__subsf3+0x1d8>
    88b2:	040007b7          	lui	a5,0x4000
    88b6:	00ff6f33          	or	t5,t5,a5
    88ba:	47ed                	li	a5,27
    88bc:	08e7c263          	blt	a5,a4,8940 <__subsf3+0x362>
    88c0:	02000793          	li	a5,32
    88c4:	8f99                	sub	a5,a5,a4
    88c6:	00ff17b3          	sll	a5,t5,a5
    88ca:	00ef5733          	srl	a4,t5,a4
    88ce:	00f037b3          	snez	a5,a5
    88d2:	8fd9                	or	a5,a5,a4
    88d4:	40f507b3          	sub	a5,a0,a5
    88d8:	8942                	mv	s2,a6
    88da:	84ae                	mv	s1,a1
    88dc:	bb41                	j	866c <__subsf3+0x8e>
    88de:	4785                	li	a5,1
    88e0:	b361                	j	8668 <__subsf3+0x8a>
    88e2:	060f0e63          	beqz	t5,895e <__subsf3+0x380>
    88e6:	177d                	addi	a4,a4,-1
    88e8:	00af07b3          	add	a5,t5,a0
    88ec:	8942                	mv	s2,a6
    88ee:	e80705e3          	beqz	a4,8778 <__subsf3+0x19a>
    88f2:	0ff00793          	li	a5,255
    88f6:	f8f819e3          	bne	a6,a5,8888 <__subsf3+0x2aa>
    88fa:	8e32                	mv	t3,a2
    88fc:	bd7d                	j	87ba <__subsf3+0x1dc>
    88fe:	8e32                	mv	t3,a2
    8900:	8942                	mv	s2,a6
    8902:	84ae                	mv	s1,a1
    8904:	bf31                	j	8820 <__subsf3+0x242>
    8906:	ea0f09e3          	beqz	t5,87b8 <__subsf3+0x1da>
    890a:	ea0508e3          	beqz	a0,87ba <__subsf3+0x1dc>
    890e:	bd45                	j	87be <__subsf3+0x1e0>
    8910:	cd0d                	beqz	a0,894a <__subsf3+0x36c>
    8912:	8eae                	mv	t4,a1
    8914:	87b2                	mv	a5,a2
    8916:	b3d9                	j	86dc <__subsf3+0xfe>
    8918:	0ff00793          	li	a5,255
    891c:	f2f900e3          	beq	s2,a5,883c <__subsf3+0x25e>
    8920:	00af07b3          	add	a5,t5,a0
    8924:	8385                	srli	a5,a5,0x1
    8926:	b5fd                	j	8814 <__subsf3+0x236>
    8928:	41e50433          	sub	s0,a0,t5
    892c:	84ae                	mv	s1,a1
    892e:	b3b9                	j	867c <__subsf3+0x9e>
    8930:	fc0f1de3          	bnez	t5,890a <__subsf3+0x32c>
    8934:	e80505e3          	beqz	a0,87be <__subsf3+0x1e0>
    8938:	84ae                	mv	s1,a1
    893a:	bdbd                	j	87b8 <__subsf3+0x1da>
    893c:	4785                	li	a5,1
    893e:	bd25                	j	8776 <__subsf3+0x198>
    8940:	4785                	li	a5,1
    8942:	bf49                	j	88d4 <__subsf3+0x2f6>
    8944:	4901                	li	s2,0
    8946:	ec0797e3          	bnez	a5,8814 <__subsf3+0x236>
    894a:	4e81                	li	t4,0
    894c:	4781                	li	a5,0
    894e:	b379                	j	86dc <__subsf3+0xfe>
    8950:	41e507b3          	sub	a5,a0,t5
    8954:	8942                	mv	s2,a6
    8956:	84ae                	mv	s1,a1
    8958:	bb11                	j	866c <__subsf3+0x8e>
    895a:	87b2                	mv	a5,a2
    895c:	b341                	j	86dc <__subsf3+0xfe>
    895e:	8e32                	mv	t3,a2
    8960:	8942                	mv	s2,a6
    8962:	bd7d                	j	8820 <__subsf3+0x242>
    8964:	4705                	li	a4,1
    8966:	bf35                	j	88a2 <__subsf3+0x2c4>

00008968 <__fixsfsi>:
    8968:	00800637          	lui	a2,0x800
    896c:	01755713          	srli	a4,a0,0x17
    8970:	fff60793          	addi	a5,a2,-1 # 7fffff <_data_lma+0x7f38ab>
    8974:	0ff77713          	andi	a4,a4,255
    8978:	07e00593          	li	a1,126
    897c:	00a7f6b3          	and	a3,a5,a0
    8980:	01f55793          	srli	a5,a0,0x1f
    8984:	00e5fc63          	bgeu	a1,a4,899c <__fixsfsi+0x34>
    8988:	09d00593          	li	a1,157
    898c:	00e5fa63          	bgeu	a1,a4,89a0 <__fixsfsi+0x38>
    8990:	80000537          	lui	a0,0x80000
    8994:	fff54513          	not	a0,a0
    8998:	953e                	add	a0,a0,a5
    899a:	8082                	ret
    899c:	4501                	li	a0,0
    899e:	8082                	ret
    89a0:	09500593          	li	a1,149
    89a4:	8ed1                	or	a3,a3,a2
    89a6:	00e5cd63          	blt	a1,a4,89c0 <__fixsfsi+0x58>
    89aa:	09600613          	li	a2,150
    89ae:	40e60733          	sub	a4,a2,a4
    89b2:	00e6d733          	srl	a4,a3,a4
    89b6:	40e00533          	neg	a0,a4
    89ba:	f3f5                	bnez	a5,899e <__fixsfsi+0x36>
    89bc:	853a                	mv	a0,a4
    89be:	8082                	ret
    89c0:	f6a70713          	addi	a4,a4,-150 # fbffff6a <_eusrstack+0xdbff7f6a>
    89c4:	00e69733          	sll	a4,a3,a4
    89c8:	b7fd                	j	89b6 <__fixsfsi+0x4e>

000089ca <__floatsisf>:
    89ca:	1141                	addi	sp,sp,-16
    89cc:	c606                	sw	ra,12(sp)
    89ce:	c422                	sw	s0,8(sp)
    89d0:	c226                	sw	s1,4(sp)
    89d2:	cd15                	beqz	a0,8a0e <__floatsisf+0x44>
    89d4:	41f55793          	srai	a5,a0,0x1f
    89d8:	00a7c433          	xor	s0,a5,a0
    89dc:	8c1d                	sub	s0,s0,a5
    89de:	84aa                	mv	s1,a0
    89e0:	8522                	mv	a0,s0
    89e2:	96bfd0ef          	jal	ra,634c <__clzsi2>
    89e6:	09e00793          	li	a5,158
    89ea:	40a78733          	sub	a4,a5,a0
    89ee:	09600793          	li	a5,150
    89f2:	80fd                	srli	s1,s1,0x1f
    89f4:	02e7cc63          	blt	a5,a4,8a2c <__floatsisf+0x62>
    89f8:	46a1                	li	a3,8
    89fa:	0ff77793          	andi	a5,a4,255
    89fe:	00a6d563          	bge	a3,a0,8a08 <__floatsisf+0x3e>
    8a02:	1561                	addi	a0,a0,-8
    8a04:	00a41433          	sll	s0,s0,a0
    8a08:	0426                	slli	s0,s0,0x9
    8a0a:	8025                	srli	s0,s0,0x9
    8a0c:	a021                	j	8a14 <__floatsisf+0x4a>
    8a0e:	4481                	li	s1,0
    8a10:	4781                	li	a5,0
    8a12:	4401                	li	s0,0
    8a14:	0426                	slli	s0,s0,0x9
    8a16:	00945513          	srli	a0,s0,0x9
    8a1a:	40b2                	lw	ra,12(sp)
    8a1c:	4422                	lw	s0,8(sp)
    8a1e:	07de                	slli	a5,a5,0x17
    8a20:	04fe                	slli	s1,s1,0x1f
    8a22:	8d5d                	or	a0,a0,a5
    8a24:	8d45                	or	a0,a0,s1
    8a26:	4492                	lw	s1,4(sp)
    8a28:	0141                	addi	sp,sp,16
    8a2a:	8082                	ret
    8a2c:	09900793          	li	a5,153
    8a30:	00e7dd63          	bge	a5,a4,8a4a <__floatsisf+0x80>
    8a34:	01b50793          	addi	a5,a0,27 # 8000001b <_eusrstack+0x5fff801b>
    8a38:	4695                	li	a3,5
    8a3a:	00f417b3          	sll	a5,s0,a5
    8a3e:	8e89                	sub	a3,a3,a0
    8a40:	00d45433          	srl	s0,s0,a3
    8a44:	00f037b3          	snez	a5,a5
    8a48:	8c5d                	or	s0,s0,a5
    8a4a:	4795                	li	a5,5
    8a4c:	00a7d663          	bge	a5,a0,8a58 <__floatsisf+0x8e>
    8a50:	ffb50793          	addi	a5,a0,-5
    8a54:	00f41433          	sll	s0,s0,a5
    8a58:	fc0006b7          	lui	a3,0xfc000
    8a5c:	16fd                	addi	a3,a3,-1
    8a5e:	00747793          	andi	a5,s0,7
    8a62:	00d47633          	and	a2,s0,a3
    8a66:	c385                	beqz	a5,8a86 <__floatsisf+0xbc>
    8a68:	00f47793          	andi	a5,s0,15
    8a6c:	4591                	li	a1,4
    8a6e:	00b78c63          	beq	a5,a1,8a86 <__floatsisf+0xbc>
    8a72:	0611                	addi	a2,a2,4
    8a74:	00561793          	slli	a5,a2,0x5
    8a78:	0007d763          	bgez	a5,8a86 <__floatsisf+0xbc>
    8a7c:	09f00793          	li	a5,159
    8a80:	8e75                	and	a2,a2,a3
    8a82:	40a78733          	sub	a4,a5,a0
    8a86:	00661413          	slli	s0,a2,0x6
    8a8a:	8025                	srli	s0,s0,0x9
    8a8c:	0ff77793          	andi	a5,a4,255
    8a90:	b751                	j	8a14 <__floatsisf+0x4a>

00008a92 <__floatunsisf>:
    8a92:	1141                	addi	sp,sp,-16
    8a94:	c606                	sw	ra,12(sp)
    8a96:	c422                	sw	s0,8(sp)
    8a98:	cd1d                	beqz	a0,8ad6 <__floatunsisf+0x44>
    8a9a:	842a                	mv	s0,a0
    8a9c:	8b1fd0ef          	jal	ra,634c <__clzsi2>
    8aa0:	09e00793          	li	a5,158
    8aa4:	40a78733          	sub	a4,a5,a0
    8aa8:	09600793          	li	a5,150
    8aac:	04e7c063          	blt	a5,a4,8aec <__floatunsisf+0x5a>
    8ab0:	46a1                	li	a3,8
    8ab2:	0ff77793          	andi	a5,a4,255
    8ab6:	00a6d563          	bge	a3,a0,8ac0 <__floatunsisf+0x2e>
    8aba:	1561                	addi	a0,a0,-8
    8abc:	00a41433          	sll	s0,s0,a0
    8ac0:	0426                	slli	s0,s0,0x9
    8ac2:	8025                	srli	s0,s0,0x9
    8ac4:	0426                	slli	s0,s0,0x9
    8ac6:	00945513          	srli	a0,s0,0x9
    8aca:	40b2                	lw	ra,12(sp)
    8acc:	4422                	lw	s0,8(sp)
    8ace:	07de                	slli	a5,a5,0x17
    8ad0:	8d5d                	or	a0,a0,a5
    8ad2:	0141                	addi	sp,sp,16
    8ad4:	8082                	ret
    8ad6:	4401                	li	s0,0
    8ad8:	0426                	slli	s0,s0,0x9
    8ada:	00945513          	srli	a0,s0,0x9
    8ade:	40b2                	lw	ra,12(sp)
    8ae0:	4422                	lw	s0,8(sp)
    8ae2:	4781                	li	a5,0
    8ae4:	07de                	slli	a5,a5,0x17
    8ae6:	8d5d                	or	a0,a0,a5
    8ae8:	0141                	addi	sp,sp,16
    8aea:	8082                	ret
    8aec:	09900793          	li	a5,153
    8af0:	00e7dd63          	bge	a5,a4,8b0a <__floatunsisf+0x78>
    8af4:	01b50793          	addi	a5,a0,27
    8af8:	4695                	li	a3,5
    8afa:	00f417b3          	sll	a5,s0,a5
    8afe:	8e89                	sub	a3,a3,a0
    8b00:	00f037b3          	snez	a5,a5
    8b04:	00d45433          	srl	s0,s0,a3
    8b08:	8c5d                	or	s0,s0,a5
    8b0a:	4795                	li	a5,5
    8b0c:	00a7d663          	bge	a5,a0,8b18 <__floatunsisf+0x86>
    8b10:	ffb50793          	addi	a5,a0,-5
    8b14:	00f41433          	sll	s0,s0,a5
    8b18:	fc0006b7          	lui	a3,0xfc000
    8b1c:	16fd                	addi	a3,a3,-1
    8b1e:	00747793          	andi	a5,s0,7
    8b22:	00d47633          	and	a2,s0,a3
    8b26:	c385                	beqz	a5,8b46 <__floatunsisf+0xb4>
    8b28:	00f47793          	andi	a5,s0,15
    8b2c:	4591                	li	a1,4
    8b2e:	00b78c63          	beq	a5,a1,8b46 <__floatunsisf+0xb4>
    8b32:	0611                	addi	a2,a2,4
    8b34:	00561793          	slli	a5,a2,0x5
    8b38:	0007d763          	bgez	a5,8b46 <__floatunsisf+0xb4>
    8b3c:	09f00793          	li	a5,159
    8b40:	8e75                	and	a2,a2,a3
    8b42:	40a78733          	sub	a4,a5,a0
    8b46:	00661413          	slli	s0,a2,0x6
    8b4a:	8025                	srli	s0,s0,0x9
    8b4c:	0426                	slli	s0,s0,0x9
    8b4e:	00945513          	srli	a0,s0,0x9
    8b52:	40b2                	lw	ra,12(sp)
    8b54:	4422                	lw	s0,8(sp)
    8b56:	0ff77793          	andi	a5,a4,255
    8b5a:	07de                	slli	a5,a5,0x17
    8b5c:	8d5d                	or	a0,a0,a5
    8b5e:	0141                	addi	sp,sp,16
    8b60:	8082                	ret

00008b62 <__extendsfdf2>:
    8b62:	01755713          	srli	a4,a0,0x17
    8b66:	0ff77713          	andi	a4,a4,255
    8b6a:	1141                	addi	sp,sp,-16
    8b6c:	00170793          	addi	a5,a4,1
    8b70:	c422                	sw	s0,8(sp)
    8b72:	c226                	sw	s1,4(sp)
    8b74:	00951413          	slli	s0,a0,0x9
    8b78:	c606                	sw	ra,12(sp)
    8b7a:	0fe7f793          	andi	a5,a5,254
    8b7e:	8025                	srli	s0,s0,0x9
    8b80:	01f55493          	srli	s1,a0,0x1f
    8b84:	c785                	beqz	a5,8bac <__extendsfdf2+0x4a>
    8b86:	00345793          	srli	a5,s0,0x3
    8b8a:	38070713          	addi	a4,a4,896
    8b8e:	0476                	slli	s0,s0,0x1d
    8b90:	07b2                	slli	a5,a5,0xc
    8b92:	0752                	slli	a4,a4,0x14
    8b94:	83b1                	srli	a5,a5,0xc
    8b96:	01f49513          	slli	a0,s1,0x1f
    8b9a:	8fd9                	or	a5,a5,a4
    8b9c:	8fc9                	or	a5,a5,a0
    8b9e:	40b2                	lw	ra,12(sp)
    8ba0:	8522                	mv	a0,s0
    8ba2:	4422                	lw	s0,8(sp)
    8ba4:	4492                	lw	s1,4(sp)
    8ba6:	85be                	mv	a1,a5
    8ba8:	0141                	addi	sp,sp,16
    8baa:	8082                	ret
    8bac:	eb0d                	bnez	a4,8bde <__extendsfdf2+0x7c>
    8bae:	c821                	beqz	s0,8bfe <__extendsfdf2+0x9c>
    8bb0:	8522                	mv	a0,s0
    8bb2:	f9afd0ef          	jal	ra,634c <__clzsi2>
    8bb6:	47a9                	li	a5,10
    8bb8:	04a7c663          	blt	a5,a0,8c04 <__extendsfdf2+0xa2>
    8bbc:	472d                	li	a4,11
    8bbe:	8f09                	sub	a4,a4,a0
    8bc0:	01550793          	addi	a5,a0,21
    8bc4:	00e45733          	srl	a4,s0,a4
    8bc8:	00f41433          	sll	s0,s0,a5
    8bcc:	00c71793          	slli	a5,a4,0xc
    8bd0:	38900713          	li	a4,905
    8bd4:	8f09                	sub	a4,a4,a0
    8bd6:	83b1                	srli	a5,a5,0xc
    8bd8:	7ff77713          	andi	a4,a4,2047
    8bdc:	bf55                	j	8b90 <__extendsfdf2+0x2e>
    8bde:	cc01                	beqz	s0,8bf6 <__extendsfdf2+0x94>
    8be0:	00345713          	srli	a4,s0,0x3
    8be4:	000807b7          	lui	a5,0x80
    8be8:	8fd9                	or	a5,a5,a4
    8bea:	07b2                	slli	a5,a5,0xc
    8bec:	0476                	slli	s0,s0,0x1d
    8bee:	83b1                	srli	a5,a5,0xc
    8bf0:	7ff00713          	li	a4,2047
    8bf4:	bf71                	j	8b90 <__extendsfdf2+0x2e>
    8bf6:	7ff00713          	li	a4,2047
    8bfa:	4781                	li	a5,0
    8bfc:	bf51                	j	8b90 <__extendsfdf2+0x2e>
    8bfe:	4701                	li	a4,0
    8c00:	4781                	li	a5,0
    8c02:	b779                	j	8b90 <__extendsfdf2+0x2e>
    8c04:	ff550713          	addi	a4,a0,-11
    8c08:	00e41733          	sll	a4,s0,a4
    8c0c:	4401                	li	s0,0
    8c0e:	bf7d                	j	8bcc <__extendsfdf2+0x6a>

00008c10 <__truncdfsf2>:
    8c10:	0145d693          	srli	a3,a1,0x14
    8c14:	00c59793          	slli	a5,a1,0xc
    8c18:	7ff6f693          	andi	a3,a3,2047
    8c1c:	83b1                	srli	a5,a5,0xc
    8c1e:	00168613          	addi	a2,a3,1 # fc000001 <_eusrstack+0xdbff8001>
    8c22:	078e                	slli	a5,a5,0x3
    8c24:	01d55713          	srli	a4,a0,0x1d
    8c28:	7fe67613          	andi	a2,a2,2046
    8c2c:	81fd                	srli	a1,a1,0x1f
    8c2e:	8f5d                	or	a4,a4,a5
    8c30:	00351893          	slli	a7,a0,0x3
    8c34:	ce35                	beqz	a2,8cb0 <__truncdfsf2+0xa0>
    8c36:	c8068813          	addi	a6,a3,-896
    8c3a:	0fe00793          	li	a5,254
    8c3e:	0107dd63          	bge	a5,a6,8c58 <__truncdfsf2+0x48>
    8c42:	4781                	li	a5,0
    8c44:	00979513          	slli	a0,a5,0x9
    8c48:	0ff00693          	li	a3,255
    8c4c:	06de                	slli	a3,a3,0x17
    8c4e:	8125                	srli	a0,a0,0x9
    8c50:	05fe                	slli	a1,a1,0x1f
    8c52:	8d55                	or	a0,a0,a3
    8c54:	8d4d                	or	a0,a0,a1
    8c56:	8082                	ret
    8c58:	0b005563          	blez	a6,8d02 <__truncdfsf2+0xf2>
    8c5c:	00651793          	slli	a5,a0,0x6
    8c60:	070e                	slli	a4,a4,0x3
    8c62:	00f037b3          	snez	a5,a5
    8c66:	8fd9                	or	a5,a5,a4
    8c68:	01d8d893          	srli	a7,a7,0x1d
    8c6c:	0117e7b3          	or	a5,a5,a7
    8c70:	0077f713          	andi	a4,a5,7
    8c74:	10070163          	beqz	a4,8d76 <__truncdfsf2+0x166>
    8c78:	00f7f713          	andi	a4,a5,15
    8c7c:	4691                	li	a3,4
    8c7e:	00d70363          	beq	a4,a3,8c84 <__truncdfsf2+0x74>
    8c82:	0791                	addi	a5,a5,4
    8c84:	04000737          	lui	a4,0x4000
    8c88:	8f7d                	and	a4,a4,a5
    8c8a:	c775                	beqz	a4,8d76 <__truncdfsf2+0x166>
    8c8c:	00180713          	addi	a4,a6,1
    8c90:	0ff00613          	li	a2,255
    8c94:	0ff77693          	andi	a3,a4,255
    8c98:	fac705e3          	beq	a4,a2,8c42 <__truncdfsf2+0x32>
    8c9c:	079a                	slli	a5,a5,0x6
    8c9e:	83a5                	srli	a5,a5,0x9
    8ca0:	00979513          	slli	a0,a5,0x9
    8ca4:	06de                	slli	a3,a3,0x17
    8ca6:	8125                	srli	a0,a0,0x9
    8ca8:	05fe                	slli	a1,a1,0x1f
    8caa:	8d55                	or	a0,a0,a3
    8cac:	8d4d                	or	a0,a0,a1
    8cae:	8082                	ret
    8cb0:	011767b3          	or	a5,a4,a7
    8cb4:	ee99                	bnez	a3,8cd2 <__truncdfsf2+0xc2>
    8cb6:	cf85                	beqz	a5,8cee <__truncdfsf2+0xde>
    8cb8:	4795                	li	a5,5
    8cba:	079a                	slli	a5,a5,0x6
    8cbc:	83a5                	srli	a5,a5,0x9
    8cbe:	00979513          	slli	a0,a5,0x9
    8cc2:	0ff6f693          	andi	a3,a3,255
    8cc6:	06de                	slli	a3,a3,0x17
    8cc8:	8125                	srli	a0,a0,0x9
    8cca:	05fe                	slli	a1,a1,0x1f
    8ccc:	8d55                	or	a0,a0,a3
    8cce:	8d4d                	or	a0,a0,a1
    8cd0:	8082                	ret
    8cd2:	dba5                	beqz	a5,8c42 <__truncdfsf2+0x32>
    8cd4:	004007b7          	lui	a5,0x400
    8cd8:	00979513          	slli	a0,a5,0x9
    8cdc:	0ff00693          	li	a3,255
    8ce0:	06de                	slli	a3,a3,0x17
    8ce2:	4581                	li	a1,0
    8ce4:	8125                	srli	a0,a0,0x9
    8ce6:	05fe                	slli	a1,a1,0x1f
    8ce8:	8d55                	or	a0,a0,a3
    8cea:	8d4d                	or	a0,a0,a1
    8cec:	8082                	ret
    8cee:	4781                	li	a5,0
    8cf0:	00979513          	slli	a0,a5,0x9
    8cf4:	4681                	li	a3,0
    8cf6:	06de                	slli	a3,a3,0x17
    8cf8:	8125                	srli	a0,a0,0x9
    8cfa:	05fe                	slli	a1,a1,0x1f
    8cfc:	8d55                	or	a0,a0,a3
    8cfe:	8d4d                	or	a0,a0,a1
    8d00:	8082                	ret
    8d02:	57a5                	li	a5,-23
    8d04:	04f84863          	blt	a6,a5,8d54 <__truncdfsf2+0x144>
    8d08:	47f9                	li	a5,30
    8d0a:	00800637          	lui	a2,0x800
    8d0e:	410787b3          	sub	a5,a5,a6
    8d12:	457d                	li	a0,31
    8d14:	8e59                	or	a2,a2,a4
    8d16:	04f55163          	bge	a0,a5,8d58 <__truncdfsf2+0x148>
    8d1a:	5779                	li	a4,-2
    8d1c:	41070733          	sub	a4,a4,a6
    8d20:	02000513          	li	a0,32
    8d24:	00e65733          	srl	a4,a2,a4
    8d28:	00a78863          	beq	a5,a0,8d38 <__truncdfsf2+0x128>
    8d2c:	ca268693          	addi	a3,a3,-862
    8d30:	00d616b3          	sll	a3,a2,a3
    8d34:	00d8e8b3          	or	a7,a7,a3
    8d38:	011037b3          	snez	a5,a7
    8d3c:	8fd9                	or	a5,a5,a4
    8d3e:	0077f713          	andi	a4,a5,7
    8d42:	4801                	li	a6,0
    8d44:	fb15                	bnez	a4,8c78 <__truncdfsf2+0x68>
    8d46:	00579713          	slli	a4,a5,0x5
    8d4a:	4685                	li	a3,1
    8d4c:	f40748e3          	bltz	a4,8c9c <__truncdfsf2+0x8c>
    8d50:	4681                	li	a3,0
    8d52:	b7a5                	j	8cba <__truncdfsf2+0xaa>
    8d54:	4681                	li	a3,0
    8d56:	b78d                	j	8cb8 <__truncdfsf2+0xa8>
    8d58:	c8268693          	addi	a3,a3,-894
    8d5c:	00d89733          	sll	a4,a7,a3
    8d60:	00e03733          	snez	a4,a4
    8d64:	00d616b3          	sll	a3,a2,a3
    8d68:	00f8d8b3          	srl	a7,a7,a5
    8d6c:	00d767b3          	or	a5,a4,a3
    8d70:	00f8e7b3          	or	a5,a7,a5
    8d74:	b7e9                	j	8d3e <__truncdfsf2+0x12e>
    8d76:	86c2                	mv	a3,a6
    8d78:	b789                	j	8cba <__truncdfsf2+0xaa>

00008d7a <__assert_func>:
    8d7a:	81018793          	addi	a5,gp,-2032 # 200000d0 <_impure_ptr>
    8d7e:	439c                	lw	a5,0(a5)
    8d80:	1141                	addi	sp,sp,-16
    8d82:	8832                	mv	a6,a2
    8d84:	c606                	sw	ra,12(sp)
    8d86:	88aa                	mv	a7,a0
    8d88:	872e                	mv	a4,a1
    8d8a:	47c8                	lw	a0,12(a5)
    8d8c:	8636                	mv	a2,a3
    8d8e:	00004797          	auipc	a5,0x4
    8d92:	8ea78793          	addi	a5,a5,-1814 # c678 <__clz_tab+0x100>
    8d96:	00081763          	bnez	a6,8da4 <__assert_func+0x2a>
    8d9a:	00002797          	auipc	a5,0x2
    8d9e:	ba278793          	addi	a5,a5,-1118 # a93c <_exit+0x2f0>
    8da2:	883e                	mv	a6,a5
    8da4:	86c6                	mv	a3,a7
    8da6:	00004597          	auipc	a1,0x4
    8daa:	8e258593          	addi	a1,a1,-1822 # c688 <__clz_tab+0x110>
    8dae:	2039                	jal	8dbc <fiprintf>
    8db0:	4d5000ef          	jal	ra,9a84 <abort>

00008db4 <__errno>:
    8db4:	81018793          	addi	a5,gp,-2032 # 200000d0 <_impure_ptr>
    8db8:	4388                	lw	a0,0(a5)
    8dba:	8082                	ret

00008dbc <fiprintf>:
    8dbc:	7139                	addi	sp,sp,-64
    8dbe:	d432                	sw	a2,40(sp)
    8dc0:	d636                	sw	a3,44(sp)
    8dc2:	da3e                	sw	a5,52(sp)
    8dc4:	d83a                	sw	a4,48(sp)
    8dc6:	dc42                	sw	a6,56(sp)
    8dc8:	de46                	sw	a7,60(sp)
    8dca:	81018793          	addi	a5,gp,-2032 # 200000d0 <_impure_ptr>
    8dce:	862e                	mv	a2,a1
    8dd0:	85aa                	mv	a1,a0
    8dd2:	4388                	lw	a0,0(a5)
    8dd4:	1034                	addi	a3,sp,40
    8dd6:	ce06                	sw	ra,28(sp)
    8dd8:	c636                	sw	a3,12(sp)
    8dda:	2cf9                	jal	90b8 <_vfiprintf_r>
    8ddc:	40f2                	lw	ra,28(sp)
    8dde:	6121                	addi	sp,sp,64
    8de0:	8082                	ret

00008de2 <malloc>:
    8de2:	81018793          	addi	a5,gp,-2032 # 200000d0 <_impure_ptr>
    8de6:	85aa                	mv	a1,a0
    8de8:	4388                	lw	a0,0(a5)
    8dea:	a269                	j	8f74 <_malloc_r>

00008dec <free>:
    8dec:	81018793          	addi	a5,gp,-2032 # 200000d0 <_impure_ptr>
    8df0:	85aa                	mv	a1,a0
    8df2:	4388                	lw	a0,0(a5)
    8df4:	a8e1                	j	8ecc <_free_r>

00008df6 <memcmp>:
    8df6:	4701                	li	a4,0
    8df8:	00e61463          	bne	a2,a4,8e00 <memcmp+0xa>
    8dfc:	4501                	li	a0,0
    8dfe:	8082                	ret
    8e00:	00e507b3          	add	a5,a0,a4
    8e04:	0705                	addi	a4,a4,1
    8e06:	00e586b3          	add	a3,a1,a4
    8e0a:	239c                	lbu	a5,0(a5)
    8e0c:	fff6c683          	lbu	a3,-1(a3)
    8e10:	fed784e3          	beq	a5,a3,8df8 <memcmp+0x2>
    8e14:	40d78533          	sub	a0,a5,a3
    8e18:	8082                	ret

00008e1a <memcpy>:
    8e1a:	00a5c7b3          	xor	a5,a1,a0
    8e1e:	8b8d                	andi	a5,a5,3
    8e20:	00c50733          	add	a4,a0,a2
    8e24:	e781                	bnez	a5,8e2c <memcpy+0x12>
    8e26:	478d                	li	a5,3
    8e28:	00c7ed63          	bltu	a5,a2,8e42 <memcpy+0x28>
    8e2c:	87aa                	mv	a5,a0
    8e2e:	08e57e63          	bgeu	a0,a4,8eca <memcpy+0xb0>
    8e32:	2194                	lbu	a3,0(a1)
    8e34:	0785                	addi	a5,a5,1
    8e36:	0585                	addi	a1,a1,1
    8e38:	fed78fa3          	sb	a3,-1(a5)
    8e3c:	fee7ebe3          	bltu	a5,a4,8e32 <memcpy+0x18>
    8e40:	8082                	ret
    8e42:	00357693          	andi	a3,a0,3
    8e46:	87aa                	mv	a5,a0
    8e48:	ca89                	beqz	a3,8e5a <memcpy+0x40>
    8e4a:	2194                	lbu	a3,0(a1)
    8e4c:	0785                	addi	a5,a5,1
    8e4e:	0585                	addi	a1,a1,1
    8e50:	fed78fa3          	sb	a3,-1(a5)
    8e54:	0037f693          	andi	a3,a5,3
    8e58:	bfc5                	j	8e48 <memcpy+0x2e>
    8e5a:	ffc77693          	andi	a3,a4,-4
    8e5e:	fe068613          	addi	a2,a3,-32
    8e62:	06c7f063          	bgeu	a5,a2,8ec2 <memcpy+0xa8>
    8e66:	0005a383          	lw	t2,0(a1)
    8e6a:	0045a283          	lw	t0,4(a1)
    8e6e:	0085af83          	lw	t6,8(a1)
    8e72:	00c5af03          	lw	t5,12(a1)
    8e76:	0105ae83          	lw	t4,16(a1)
    8e7a:	0145ae03          	lw	t3,20(a1)
    8e7e:	0185a303          	lw	t1,24(a1)
    8e82:	01c5a883          	lw	a7,28(a1)
    8e86:	02458593          	addi	a1,a1,36
    8e8a:	0077a023          	sw	t2,0(a5)
    8e8e:	ffc5a803          	lw	a6,-4(a1)
    8e92:	0057a223          	sw	t0,4(a5)
    8e96:	01f7a423          	sw	t6,8(a5)
    8e9a:	01e7a623          	sw	t5,12(a5)
    8e9e:	01d7a823          	sw	t4,16(a5)
    8ea2:	01c7aa23          	sw	t3,20(a5)
    8ea6:	0067ac23          	sw	t1,24(a5)
    8eaa:	0117ae23          	sw	a7,28(a5)
    8eae:	02478793          	addi	a5,a5,36
    8eb2:	ff07ae23          	sw	a6,-4(a5)
    8eb6:	b775                	j	8e62 <memcpy+0x48>
    8eb8:	4190                	lw	a2,0(a1)
    8eba:	0791                	addi	a5,a5,4
    8ebc:	0591                	addi	a1,a1,4
    8ebe:	fec7ae23          	sw	a2,-4(a5)
    8ec2:	fed7ebe3          	bltu	a5,a3,8eb8 <memcpy+0x9e>
    8ec6:	f6e7e6e3          	bltu	a5,a4,8e32 <memcpy+0x18>
    8eca:	8082                	ret

00008ecc <_free_r>:
    8ecc:	c1dd                	beqz	a1,8f72 <_free_r+0xa6>
    8ece:	ffc5a783          	lw	a5,-4(a1)
    8ed2:	1141                	addi	sp,sp,-16
    8ed4:	c422                	sw	s0,8(sp)
    8ed6:	c606                	sw	ra,12(sp)
    8ed8:	c226                	sw	s1,4(sp)
    8eda:	ffc58413          	addi	s0,a1,-4
    8ede:	0007d363          	bgez	a5,8ee4 <_free_r+0x18>
    8ee2:	943e                	add	s0,s0,a5
    8ee4:	84aa                	mv	s1,a0
    8ee6:	0ba010ef          	jal	ra,9fa0 <__malloc_lock>
    8eea:	86018793          	addi	a5,gp,-1952 # 20000120 <__malloc_free_list>
    8eee:	439c                	lw	a5,0(a5)
    8ef0:	ef81                	bnez	a5,8f08 <_free_r+0x3c>
    8ef2:	00042223          	sw	zero,4(s0) # 4000004 <_data_lma+0x3ff38b0>
    8ef6:	8681a023          	sw	s0,-1952(gp) # 20000120 <__malloc_free_list>
    8efa:	4422                	lw	s0,8(sp)
    8efc:	40b2                	lw	ra,12(sp)
    8efe:	8526                	mv	a0,s1
    8f00:	4492                	lw	s1,4(sp)
    8f02:	0141                	addi	sp,sp,16
    8f04:	09e0106f          	j	9fa2 <__malloc_unlock>
    8f08:	00f47e63          	bgeu	s0,a5,8f24 <_free_r+0x58>
    8f0c:	4014                	lw	a3,0(s0)
    8f0e:	00d40733          	add	a4,s0,a3
    8f12:	00e79663          	bne	a5,a4,8f1e <_free_r+0x52>
    8f16:	4398                	lw	a4,0(a5)
    8f18:	43dc                	lw	a5,4(a5)
    8f1a:	9736                	add	a4,a4,a3
    8f1c:	c018                	sw	a4,0(s0)
    8f1e:	c05c                	sw	a5,4(s0)
    8f20:	bfd9                	j	8ef6 <_free_r+0x2a>
    8f22:	87ba                	mv	a5,a4
    8f24:	43d8                	lw	a4,4(a5)
    8f26:	c319                	beqz	a4,8f2c <_free_r+0x60>
    8f28:	fee47de3          	bgeu	s0,a4,8f22 <_free_r+0x56>
    8f2c:	4394                	lw	a3,0(a5)
    8f2e:	00d78633          	add	a2,a5,a3
    8f32:	00861f63          	bne	a2,s0,8f50 <_free_r+0x84>
    8f36:	4010                	lw	a2,0(s0)
    8f38:	96b2                	add	a3,a3,a2
    8f3a:	c394                	sw	a3,0(a5)
    8f3c:	00d78633          	add	a2,a5,a3
    8f40:	fac71de3          	bne	a4,a2,8efa <_free_r+0x2e>
    8f44:	4310                	lw	a2,0(a4)
    8f46:	4358                	lw	a4,4(a4)
    8f48:	96b2                	add	a3,a3,a2
    8f4a:	c394                	sw	a3,0(a5)
    8f4c:	c3d8                	sw	a4,4(a5)
    8f4e:	b775                	j	8efa <_free_r+0x2e>
    8f50:	00c47563          	bgeu	s0,a2,8f5a <_free_r+0x8e>
    8f54:	47b1                	li	a5,12
    8f56:	c09c                	sw	a5,0(s1)
    8f58:	b74d                	j	8efa <_free_r+0x2e>
    8f5a:	4010                	lw	a2,0(s0)
    8f5c:	00c406b3          	add	a3,s0,a2
    8f60:	00d71663          	bne	a4,a3,8f6c <_free_r+0xa0>
    8f64:	4314                	lw	a3,0(a4)
    8f66:	4358                	lw	a4,4(a4)
    8f68:	96b2                	add	a3,a3,a2
    8f6a:	c014                	sw	a3,0(s0)
    8f6c:	c058                	sw	a4,4(s0)
    8f6e:	c3c0                	sw	s0,4(a5)
    8f70:	b769                	j	8efa <_free_r+0x2e>
    8f72:	8082                	ret

00008f74 <_malloc_r>:
    8f74:	1101                	addi	sp,sp,-32
    8f76:	ca26                	sw	s1,20(sp)
    8f78:	00358493          	addi	s1,a1,3
    8f7c:	98f1                	andi	s1,s1,-4
    8f7e:	ce06                	sw	ra,28(sp)
    8f80:	cc22                	sw	s0,24(sp)
    8f82:	c84a                	sw	s2,16(sp)
    8f84:	c64e                	sw	s3,12(sp)
    8f86:	04a1                	addi	s1,s1,8
    8f88:	47b1                	li	a5,12
    8f8a:	04f4f563          	bgeu	s1,a5,8fd4 <_malloc_r+0x60>
    8f8e:	44b1                	li	s1,12
    8f90:	04b4e463          	bltu	s1,a1,8fd8 <_malloc_r+0x64>
    8f94:	892a                	mv	s2,a0
    8f96:	00a010ef          	jal	ra,9fa0 <__malloc_lock>
    8f9a:	86018793          	addi	a5,gp,-1952 # 20000120 <__malloc_free_list>
    8f9e:	4398                	lw	a4,0(a5)
    8fa0:	843a                	mv	s0,a4
    8fa2:	e429                	bnez	s0,8fec <_malloc_r+0x78>
    8fa4:	86418793          	addi	a5,gp,-1948 # 20000124 <__malloc_sbrk_start>
    8fa8:	439c                	lw	a5,0(a5)
    8faa:	e799                	bnez	a5,8fb8 <_malloc_r+0x44>
    8fac:	4581                	li	a1,0
    8fae:	854a                	mv	a0,s2
    8fb0:	067000ef          	jal	ra,9816 <_sbrk_r>
    8fb4:	86a1a223          	sw	a0,-1948(gp) # 20000124 <__malloc_sbrk_start>
    8fb8:	85a6                	mv	a1,s1
    8fba:	854a                	mv	a0,s2
    8fbc:	05b000ef          	jal	ra,9816 <_sbrk_r>
    8fc0:	59fd                	li	s3,-1
    8fc2:	07351963          	bne	a0,s3,9034 <_malloc_r+0xc0>
    8fc6:	47b1                	li	a5,12
    8fc8:	00f92023          	sw	a5,0(s2)
    8fcc:	854a                	mv	a0,s2
    8fce:	7d5000ef          	jal	ra,9fa2 <__malloc_unlock>
    8fd2:	a029                	j	8fdc <_malloc_r+0x68>
    8fd4:	fa04dee3          	bgez	s1,8f90 <_malloc_r+0x1c>
    8fd8:	47b1                	li	a5,12
    8fda:	c11c                	sw	a5,0(a0)
    8fdc:	4501                	li	a0,0
    8fde:	40f2                	lw	ra,28(sp)
    8fe0:	4462                	lw	s0,24(sp)
    8fe2:	44d2                	lw	s1,20(sp)
    8fe4:	4942                	lw	s2,16(sp)
    8fe6:	49b2                	lw	s3,12(sp)
    8fe8:	6105                	addi	sp,sp,32
    8fea:	8082                	ret
    8fec:	401c                	lw	a5,0(s0)
    8fee:	8f85                	sub	a5,a5,s1
    8ff0:	0207cf63          	bltz	a5,902e <_malloc_r+0xba>
    8ff4:	46ad                	li	a3,11
    8ff6:	00f6f663          	bgeu	a3,a5,9002 <_malloc_r+0x8e>
    8ffa:	c01c                	sw	a5,0(s0)
    8ffc:	943e                	add	s0,s0,a5
    8ffe:	c004                	sw	s1,0(s0)
    9000:	a031                	j	900c <_malloc_r+0x98>
    9002:	405c                	lw	a5,4(s0)
    9004:	02871363          	bne	a4,s0,902a <_malloc_r+0xb6>
    9008:	86f1a023          	sw	a5,-1952(gp) # 20000120 <__malloc_free_list>
    900c:	854a                	mv	a0,s2
    900e:	795000ef          	jal	ra,9fa2 <__malloc_unlock>
    9012:	00b40513          	addi	a0,s0,11
    9016:	00440793          	addi	a5,s0,4
    901a:	9961                	andi	a0,a0,-8
    901c:	40f50733          	sub	a4,a0,a5
    9020:	df5d                	beqz	a4,8fde <_malloc_r+0x6a>
    9022:	943a                	add	s0,s0,a4
    9024:	8f89                	sub	a5,a5,a0
    9026:	c01c                	sw	a5,0(s0)
    9028:	bf5d                	j	8fde <_malloc_r+0x6a>
    902a:	c35c                	sw	a5,4(a4)
    902c:	b7c5                	j	900c <_malloc_r+0x98>
    902e:	8722                	mv	a4,s0
    9030:	4040                	lw	s0,4(s0)
    9032:	bf85                	j	8fa2 <_malloc_r+0x2e>
    9034:	00350413          	addi	s0,a0,3
    9038:	9871                	andi	s0,s0,-4
    903a:	fc8502e3          	beq	a0,s0,8ffe <_malloc_r+0x8a>
    903e:	40a405b3          	sub	a1,s0,a0
    9042:	854a                	mv	a0,s2
    9044:	7d2000ef          	jal	ra,9816 <_sbrk_r>
    9048:	fb351be3          	bne	a0,s3,8ffe <_malloc_r+0x8a>
    904c:	bfad                	j	8fc6 <_malloc_r+0x52>

0000904e <__sfputc_r>:
    904e:	461c                	lw	a5,8(a2)
    9050:	17fd                	addi	a5,a5,-1
    9052:	c61c                	sw	a5,8(a2)
    9054:	0007da63          	bgez	a5,9068 <__sfputc_r+0x1a>
    9058:	4e18                	lw	a4,24(a2)
    905a:	00e7c563          	blt	a5,a4,9064 <__sfputc_r+0x16>
    905e:	47a9                	li	a5,10
    9060:	00f59463          	bne	a1,a5,9068 <__sfputc_r+0x1a>
    9064:	0670006f          	j	98ca <__swbuf_r>
    9068:	421c                	lw	a5,0(a2)
    906a:	852e                	mv	a0,a1
    906c:	00178713          	addi	a4,a5,1
    9070:	c218                	sw	a4,0(a2)
    9072:	a38c                	sb	a1,0(a5)
    9074:	8082                	ret

00009076 <__sfputs_r>:
    9076:	1101                	addi	sp,sp,-32
    9078:	cc22                	sw	s0,24(sp)
    907a:	ca26                	sw	s1,20(sp)
    907c:	c84a                	sw	s2,16(sp)
    907e:	c64e                	sw	s3,12(sp)
    9080:	c452                	sw	s4,8(sp)
    9082:	ce06                	sw	ra,28(sp)
    9084:	892a                	mv	s2,a0
    9086:	89ae                	mv	s3,a1
    9088:	8432                	mv	s0,a2
    908a:	00d604b3          	add	s1,a2,a3
    908e:	5a7d                	li	s4,-1
    9090:	00941463          	bne	s0,s1,9098 <__sfputs_r+0x22>
    9094:	4501                	li	a0,0
    9096:	a809                	j	90a8 <__sfputs_r+0x32>
    9098:	200c                	lbu	a1,0(s0)
    909a:	864e                	mv	a2,s3
    909c:	854a                	mv	a0,s2
    909e:	fb1ff0ef          	jal	ra,904e <__sfputc_r>
    90a2:	0405                	addi	s0,s0,1
    90a4:	ff4516e3          	bne	a0,s4,9090 <__sfputs_r+0x1a>
    90a8:	40f2                	lw	ra,28(sp)
    90aa:	4462                	lw	s0,24(sp)
    90ac:	44d2                	lw	s1,20(sp)
    90ae:	4942                	lw	s2,16(sp)
    90b0:	49b2                	lw	s3,12(sp)
    90b2:	4a22                	lw	s4,8(sp)
    90b4:	6105                	addi	sp,sp,32
    90b6:	8082                	ret

000090b8 <_vfiprintf_r>:
    90b8:	7135                	addi	sp,sp,-160
    90ba:	cd22                	sw	s0,152(sp)
    90bc:	cb26                	sw	s1,148(sp)
    90be:	c94a                	sw	s2,144(sp)
    90c0:	c74e                	sw	s3,140(sp)
    90c2:	cf06                	sw	ra,156(sp)
    90c4:	c552                	sw	s4,136(sp)
    90c6:	c356                	sw	s5,132(sp)
    90c8:	c15a                	sw	s6,128(sp)
    90ca:	dede                	sw	s7,124(sp)
    90cc:	dce2                	sw	s8,120(sp)
    90ce:	dae6                	sw	s9,116(sp)
    90d0:	89aa                	mv	s3,a0
    90d2:	84ae                	mv	s1,a1
    90d4:	8932                	mv	s2,a2
    90d6:	8436                	mv	s0,a3
    90d8:	c509                	beqz	a0,90e2 <_vfiprintf_r+0x2a>
    90da:	4d1c                	lw	a5,24(a0)
    90dc:	e399                	bnez	a5,90e2 <_vfiprintf_r+0x2a>
    90de:	407000ef          	jal	ra,9ce4 <__sinit>
    90e2:	00003797          	auipc	a5,0x3
    90e6:	63278793          	addi	a5,a5,1586 # c714 <__sf_fake_stdin>
    90ea:	0cf49963          	bne	s1,a5,91bc <_vfiprintf_r+0x104>
    90ee:	0049a483          	lw	s1,4(s3)
    90f2:	24de                	lhu	a5,12(s1)
    90f4:	8ba1                	andi	a5,a5,8
    90f6:	c7ed                	beqz	a5,91e0 <_vfiprintf_r+0x128>
    90f8:	489c                	lw	a5,16(s1)
    90fa:	c3fd                	beqz	a5,91e0 <_vfiprintf_r+0x128>
    90fc:	02000793          	li	a5,32
    9100:	02f104a3          	sb	a5,41(sp)
    9104:	03000793          	li	a5,48
    9108:	d202                	sw	zero,36(sp)
    910a:	02f10523          	sb	a5,42(sp)
    910e:	c622                	sw	s0,12(sp)
    9110:	02500b93          	li	s7,37
    9114:	00003a97          	auipc	s5,0x3
    9118:	5a4a8a93          	addi	s5,s5,1444 # c6b8 <__clz_tab+0x140>
    911c:	4c05                	li	s8,1
    911e:	4b29                	li	s6,10
    9120:	844a                	mv	s0,s2
    9122:	201c                	lbu	a5,0(s0)
    9124:	c399                	beqz	a5,912a <_vfiprintf_r+0x72>
    9126:	0f779063          	bne	a5,s7,9206 <_vfiprintf_r+0x14e>
    912a:	41240cb3          	sub	s9,s0,s2
    912e:	000c8e63          	beqz	s9,914a <_vfiprintf_r+0x92>
    9132:	86e6                	mv	a3,s9
    9134:	864a                	mv	a2,s2
    9136:	85a6                	mv	a1,s1
    9138:	854e                	mv	a0,s3
    913a:	f3dff0ef          	jal	ra,9076 <__sfputs_r>
    913e:	57fd                	li	a5,-1
    9140:	1ef50263          	beq	a0,a5,9324 <_vfiprintf_r+0x26c>
    9144:	5692                	lw	a3,36(sp)
    9146:	96e6                	add	a3,a3,s9
    9148:	d236                	sw	a3,36(sp)
    914a:	201c                	lbu	a5,0(s0)
    914c:	1c078c63          	beqz	a5,9324 <_vfiprintf_r+0x26c>
    9150:	57fd                	li	a5,-1
    9152:	00140913          	addi	s2,s0,1
    9156:	c802                	sw	zero,16(sp)
    9158:	ce02                	sw	zero,28(sp)
    915a:	ca3e                	sw	a5,20(sp)
    915c:	cc02                	sw	zero,24(sp)
    915e:	040109a3          	sb	zero,83(sp)
    9162:	d482                	sw	zero,104(sp)
    9164:	00094583          	lbu	a1,0(s2)
    9168:	4615                	li	a2,5
    916a:	8556                	mv	a0,s5
    916c:	5d7000ef          	jal	ra,9f42 <memchr>
    9170:	00190413          	addi	s0,s2,1
    9174:	47c2                	lw	a5,16(sp)
    9176:	e951                	bnez	a0,920a <_vfiprintf_r+0x152>
    9178:	0107f713          	andi	a4,a5,16
    917c:	c709                	beqz	a4,9186 <_vfiprintf_r+0xce>
    917e:	02000713          	li	a4,32
    9182:	04e109a3          	sb	a4,83(sp)
    9186:	0087f713          	andi	a4,a5,8
    918a:	c709                	beqz	a4,9194 <_vfiprintf_r+0xdc>
    918c:	02b00713          	li	a4,43
    9190:	04e109a3          	sb	a4,83(sp)
    9194:	00094683          	lbu	a3,0(s2)
    9198:	02a00713          	li	a4,42
    919c:	06e68f63          	beq	a3,a4,921a <_vfiprintf_r+0x162>
    91a0:	47f2                	lw	a5,28(sp)
    91a2:	844a                	mv	s0,s2
    91a4:	4681                	li	a3,0
    91a6:	4625                	li	a2,9
    91a8:	2018                	lbu	a4,0(s0)
    91aa:	00140593          	addi	a1,s0,1
    91ae:	fd070713          	addi	a4,a4,-48 # 3ffffd0 <_data_lma+0x3ff387c>
    91b2:	0ae67763          	bgeu	a2,a4,9260 <_vfiprintf_r+0x1a8>
    91b6:	cab5                	beqz	a3,922a <_vfiprintf_r+0x172>
    91b8:	ce3e                	sw	a5,28(sp)
    91ba:	a885                	j	922a <_vfiprintf_r+0x172>
    91bc:	00003797          	auipc	a5,0x3
    91c0:	57878793          	addi	a5,a5,1400 # c734 <__sf_fake_stdout>
    91c4:	00f49563          	bne	s1,a5,91ce <_vfiprintf_r+0x116>
    91c8:	0089a483          	lw	s1,8(s3)
    91cc:	b71d                	j	90f2 <_vfiprintf_r+0x3a>
    91ce:	00003797          	auipc	a5,0x3
    91d2:	52678793          	addi	a5,a5,1318 # c6f4 <__sf_fake_stderr>
    91d6:	f0f49ee3          	bne	s1,a5,90f2 <_vfiprintf_r+0x3a>
    91da:	00c9a483          	lw	s1,12(s3)
    91de:	bf11                	j	90f2 <_vfiprintf_r+0x3a>
    91e0:	85a6                	mv	a1,s1
    91e2:	854e                	mv	a0,s3
    91e4:	7a2000ef          	jal	ra,9986 <__swsetup_r>
    91e8:	d911                	beqz	a0,90fc <_vfiprintf_r+0x44>
    91ea:	557d                	li	a0,-1
    91ec:	40fa                	lw	ra,156(sp)
    91ee:	446a                	lw	s0,152(sp)
    91f0:	44da                	lw	s1,148(sp)
    91f2:	494a                	lw	s2,144(sp)
    91f4:	49ba                	lw	s3,140(sp)
    91f6:	4a2a                	lw	s4,136(sp)
    91f8:	4a9a                	lw	s5,132(sp)
    91fa:	4b0a                	lw	s6,128(sp)
    91fc:	5bf6                	lw	s7,124(sp)
    91fe:	5c66                	lw	s8,120(sp)
    9200:	5cd6                	lw	s9,116(sp)
    9202:	610d                	addi	sp,sp,160
    9204:	8082                	ret
    9206:	0405                	addi	s0,s0,1
    9208:	bf29                	j	9122 <_vfiprintf_r+0x6a>
    920a:	41550533          	sub	a0,a0,s5
    920e:	00ac1533          	sll	a0,s8,a0
    9212:	8fc9                	or	a5,a5,a0
    9214:	c83e                	sw	a5,16(sp)
    9216:	8922                	mv	s2,s0
    9218:	b7b1                	j	9164 <_vfiprintf_r+0xac>
    921a:	4732                	lw	a4,12(sp)
    921c:	00470693          	addi	a3,a4,4
    9220:	4318                	lw	a4,0(a4)
    9222:	c636                	sw	a3,12(sp)
    9224:	02074763          	bltz	a4,9252 <_vfiprintf_r+0x19a>
    9228:	ce3a                	sw	a4,28(sp)
    922a:	2018                	lbu	a4,0(s0)
    922c:	02e00793          	li	a5,46
    9230:	04f71d63          	bne	a4,a5,928a <_vfiprintf_r+0x1d2>
    9234:	3018                	lbu	a4,1(s0)
    9236:	02a00793          	li	a5,42
    923a:	02f71b63          	bne	a4,a5,9270 <_vfiprintf_r+0x1b8>
    923e:	47b2                	lw	a5,12(sp)
    9240:	0409                	addi	s0,s0,2
    9242:	00478713          	addi	a4,a5,4
    9246:	439c                	lw	a5,0(a5)
    9248:	c63a                	sw	a4,12(sp)
    924a:	0207c163          	bltz	a5,926c <_vfiprintf_r+0x1b4>
    924e:	ca3e                	sw	a5,20(sp)
    9250:	a82d                	j	928a <_vfiprintf_r+0x1d2>
    9252:	40e00733          	neg	a4,a4
    9256:	0027e793          	ori	a5,a5,2
    925a:	ce3a                	sw	a4,28(sp)
    925c:	c83e                	sw	a5,16(sp)
    925e:	b7f1                	j	922a <_vfiprintf_r+0x172>
    9260:	036787b3          	mul	a5,a5,s6
    9264:	4685                	li	a3,1
    9266:	842e                	mv	s0,a1
    9268:	97ba                	add	a5,a5,a4
    926a:	bf3d                	j	91a8 <_vfiprintf_r+0xf0>
    926c:	57fd                	li	a5,-1
    926e:	b7c5                	j	924e <_vfiprintf_r+0x196>
    9270:	0405                	addi	s0,s0,1
    9272:	ca02                	sw	zero,20(sp)
    9274:	4681                	li	a3,0
    9276:	4781                	li	a5,0
    9278:	4625                	li	a2,9
    927a:	2018                	lbu	a4,0(s0)
    927c:	00140593          	addi	a1,s0,1
    9280:	fd070713          	addi	a4,a4,-48
    9284:	06e67663          	bgeu	a2,a4,92f0 <_vfiprintf_r+0x238>
    9288:	f2f9                	bnez	a3,924e <_vfiprintf_r+0x196>
    928a:	200c                	lbu	a1,0(s0)
    928c:	460d                	li	a2,3
    928e:	00003517          	auipc	a0,0x3
    9292:	43250513          	addi	a0,a0,1074 # c6c0 <__clz_tab+0x148>
    9296:	4ad000ef          	jal	ra,9f42 <memchr>
    929a:	cd11                	beqz	a0,92b6 <_vfiprintf_r+0x1fe>
    929c:	00003797          	auipc	a5,0x3
    92a0:	42478793          	addi	a5,a5,1060 # c6c0 <__clz_tab+0x148>
    92a4:	8d1d                	sub	a0,a0,a5
    92a6:	04000793          	li	a5,64
    92aa:	00a797b3          	sll	a5,a5,a0
    92ae:	4542                	lw	a0,16(sp)
    92b0:	0405                	addi	s0,s0,1
    92b2:	8d5d                	or	a0,a0,a5
    92b4:	c82a                	sw	a0,16(sp)
    92b6:	200c                	lbu	a1,0(s0)
    92b8:	4619                	li	a2,6
    92ba:	00003517          	auipc	a0,0x3
    92be:	40a50513          	addi	a0,a0,1034 # c6c4 <__clz_tab+0x14c>
    92c2:	00140913          	addi	s2,s0,1
    92c6:	02b10423          	sb	a1,40(sp)
    92ca:	479000ef          	jal	ra,9f42 <memchr>
    92ce:	c135                	beqz	a0,9332 <_vfiprintf_r+0x27a>
    92d0:	ffff7797          	auipc	a5,0xffff7
    92d4:	d3078793          	addi	a5,a5,-720 # 0 <_sinit>
    92d8:	e795                	bnez	a5,9304 <_vfiprintf_r+0x24c>
    92da:	4742                	lw	a4,16(sp)
    92dc:	47b2                	lw	a5,12(sp)
    92de:	10077713          	andi	a4,a4,256
    92e2:	cf09                	beqz	a4,92fc <_vfiprintf_r+0x244>
    92e4:	0791                	addi	a5,a5,4
    92e6:	c63e                	sw	a5,12(sp)
    92e8:	5792                	lw	a5,36(sp)
    92ea:	97d2                	add	a5,a5,s4
    92ec:	d23e                	sw	a5,36(sp)
    92ee:	bd0d                	j	9120 <_vfiprintf_r+0x68>
    92f0:	036787b3          	mul	a5,a5,s6
    92f4:	4685                	li	a3,1
    92f6:	842e                	mv	s0,a1
    92f8:	97ba                	add	a5,a5,a4
    92fa:	b741                	j	927a <_vfiprintf_r+0x1c2>
    92fc:	079d                	addi	a5,a5,7
    92fe:	9be1                	andi	a5,a5,-8
    9300:	07a1                	addi	a5,a5,8
    9302:	b7d5                	j	92e6 <_vfiprintf_r+0x22e>
    9304:	0078                	addi	a4,sp,12
    9306:	00000697          	auipc	a3,0x0
    930a:	d7068693          	addi	a3,a3,-656 # 9076 <__sfputs_r>
    930e:	8626                	mv	a2,s1
    9310:	080c                	addi	a1,sp,16
    9312:	854e                	mv	a0,s3
    9314:	00000097          	auipc	ra,0x0
    9318:	000000e7          	jalr	zero # 0 <_sinit>
    931c:	57fd                	li	a5,-1
    931e:	8a2a                	mv	s4,a0
    9320:	fcf514e3          	bne	a0,a5,92e8 <_vfiprintf_r+0x230>
    9324:	24de                	lhu	a5,12(s1)
    9326:	0407f793          	andi	a5,a5,64
    932a:	ec0790e3          	bnez	a5,91ea <_vfiprintf_r+0x132>
    932e:	5512                	lw	a0,36(sp)
    9330:	bd75                	j	91ec <_vfiprintf_r+0x134>
    9332:	0078                	addi	a4,sp,12
    9334:	00000697          	auipc	a3,0x0
    9338:	d4268693          	addi	a3,a3,-702 # 9076 <__sfputs_r>
    933c:	8626                	mv	a2,s1
    933e:	080c                	addi	a1,sp,16
    9340:	854e                	mv	a0,s3
    9342:	2a01                	jal	9452 <_printf_i>
    9344:	bfe1                	j	931c <_vfiprintf_r+0x264>

00009346 <_printf_common>:
    9346:	7179                	addi	sp,sp,-48
    9348:	ca56                	sw	s5,20(sp)
    934a:	499c                	lw	a5,16(a1)
    934c:	8aba                	mv	s5,a4
    934e:	4598                	lw	a4,8(a1)
    9350:	d422                	sw	s0,40(sp)
    9352:	d226                	sw	s1,36(sp)
    9354:	ce4e                	sw	s3,28(sp)
    9356:	cc52                	sw	s4,24(sp)
    9358:	d606                	sw	ra,44(sp)
    935a:	d04a                	sw	s2,32(sp)
    935c:	c85a                	sw	s6,16(sp)
    935e:	c65e                	sw	s7,12(sp)
    9360:	89aa                	mv	s3,a0
    9362:	842e                	mv	s0,a1
    9364:	84b2                	mv	s1,a2
    9366:	8a36                	mv	s4,a3
    9368:	00e7d363          	bge	a5,a4,936e <_printf_common+0x28>
    936c:	87ba                	mv	a5,a4
    936e:	c09c                	sw	a5,0(s1)
    9370:	04344703          	lbu	a4,67(s0)
    9374:	c319                	beqz	a4,937a <_printf_common+0x34>
    9376:	0785                	addi	a5,a5,1
    9378:	c09c                	sw	a5,0(s1)
    937a:	401c                	lw	a5,0(s0)
    937c:	0207f793          	andi	a5,a5,32
    9380:	c781                	beqz	a5,9388 <_printf_common+0x42>
    9382:	409c                	lw	a5,0(s1)
    9384:	0789                	addi	a5,a5,2
    9386:	c09c                	sw	a5,0(s1)
    9388:	00042903          	lw	s2,0(s0)
    938c:	00697913          	andi	s2,s2,6
    9390:	00091a63          	bnez	s2,93a4 <_printf_common+0x5e>
    9394:	01940b13          	addi	s6,s0,25
    9398:	5bfd                	li	s7,-1
    939a:	445c                	lw	a5,12(s0)
    939c:	4098                	lw	a4,0(s1)
    939e:	8f99                	sub	a5,a5,a4
    93a0:	04f94c63          	blt	s2,a5,93f8 <_printf_common+0xb2>
    93a4:	401c                	lw	a5,0(s0)
    93a6:	04344683          	lbu	a3,67(s0)
    93aa:	0207f793          	andi	a5,a5,32
    93ae:	00d036b3          	snez	a3,a3
    93b2:	eba5                	bnez	a5,9422 <_printf_common+0xdc>
    93b4:	04340613          	addi	a2,s0,67
    93b8:	85d2                	mv	a1,s4
    93ba:	854e                	mv	a0,s3
    93bc:	9a82                	jalr	s5
    93be:	57fd                	li	a5,-1
    93c0:	04f50363          	beq	a0,a5,9406 <_printf_common+0xc0>
    93c4:	401c                	lw	a5,0(s0)
    93c6:	4611                	li	a2,4
    93c8:	4098                	lw	a4,0(s1)
    93ca:	8b99                	andi	a5,a5,6
    93cc:	4454                	lw	a3,12(s0)
    93ce:	4481                	li	s1,0
    93d0:	00c79763          	bne	a5,a2,93de <_printf_common+0x98>
    93d4:	40e684b3          	sub	s1,a3,a4
    93d8:	0004d363          	bgez	s1,93de <_printf_common+0x98>
    93dc:	4481                	li	s1,0
    93de:	441c                	lw	a5,8(s0)
    93e0:	4818                	lw	a4,16(s0)
    93e2:	00f75463          	bge	a4,a5,93ea <_printf_common+0xa4>
    93e6:	8f99                	sub	a5,a5,a4
    93e8:	94be                	add	s1,s1,a5
    93ea:	4901                	li	s2,0
    93ec:	0469                	addi	s0,s0,26
    93ee:	5b7d                	li	s6,-1
    93f0:	05249863          	bne	s1,s2,9440 <_printf_common+0xfa>
    93f4:	4501                	li	a0,0
    93f6:	a809                	j	9408 <_printf_common+0xc2>
    93f8:	4685                	li	a3,1
    93fa:	865a                	mv	a2,s6
    93fc:	85d2                	mv	a1,s4
    93fe:	854e                	mv	a0,s3
    9400:	9a82                	jalr	s5
    9402:	01751e63          	bne	a0,s7,941e <_printf_common+0xd8>
    9406:	557d                	li	a0,-1
    9408:	50b2                	lw	ra,44(sp)
    940a:	5422                	lw	s0,40(sp)
    940c:	5492                	lw	s1,36(sp)
    940e:	5902                	lw	s2,32(sp)
    9410:	49f2                	lw	s3,28(sp)
    9412:	4a62                	lw	s4,24(sp)
    9414:	4ad2                	lw	s5,20(sp)
    9416:	4b42                	lw	s6,16(sp)
    9418:	4bb2                	lw	s7,12(sp)
    941a:	6145                	addi	sp,sp,48
    941c:	8082                	ret
    941e:	0905                	addi	s2,s2,1
    9420:	bfad                	j	939a <_printf_common+0x54>
    9422:	00d40733          	add	a4,s0,a3
    9426:	03000613          	li	a2,48
    942a:	04c701a3          	sb	a2,67(a4)
    942e:	04544703          	lbu	a4,69(s0)
    9432:	00168793          	addi	a5,a3,1
    9436:	97a2                	add	a5,a5,s0
    9438:	0689                	addi	a3,a3,2
    943a:	04e781a3          	sb	a4,67(a5)
    943e:	bf9d                	j	93b4 <_printf_common+0x6e>
    9440:	4685                	li	a3,1
    9442:	8622                	mv	a2,s0
    9444:	85d2                	mv	a1,s4
    9446:	854e                	mv	a0,s3
    9448:	9a82                	jalr	s5
    944a:	fb650ee3          	beq	a0,s6,9406 <_printf_common+0xc0>
    944e:	0905                	addi	s2,s2,1
    9450:	b745                	j	93f0 <_printf_common+0xaa>

00009452 <_printf_i>:
    9452:	7179                	addi	sp,sp,-48
    9454:	d422                	sw	s0,40(sp)
    9456:	d226                	sw	s1,36(sp)
    9458:	d04a                	sw	s2,32(sp)
    945a:	ce4e                	sw	s3,28(sp)
    945c:	d606                	sw	ra,44(sp)
    945e:	cc52                	sw	s4,24(sp)
    9460:	ca56                	sw	s5,20(sp)
    9462:	c85a                	sw	s6,16(sp)
    9464:	89b6                	mv	s3,a3
    9466:	2d94                	lbu	a3,24(a1)
    9468:	06900793          	li	a5,105
    946c:	8932                	mv	s2,a2
    946e:	84aa                	mv	s1,a0
    9470:	842e                	mv	s0,a1
    9472:	04358613          	addi	a2,a1,67
    9476:	02f68d63          	beq	a3,a5,94b0 <_printf_i+0x5e>
    947a:	06d7e263          	bltu	a5,a3,94de <_printf_i+0x8c>
    947e:	05800793          	li	a5,88
    9482:	18f68763          	beq	a3,a5,9610 <_printf_i+0x1be>
    9486:	00d7ed63          	bltu	a5,a3,94a0 <_printf_i+0x4e>
    948a:	20068f63          	beqz	a3,96a8 <_printf_i+0x256>
    948e:	04300793          	li	a5,67
    9492:	0af68f63          	beq	a3,a5,9550 <_printf_i+0xfe>
    9496:	04240a93          	addi	s5,s0,66
    949a:	04d40123          	sb	a3,66(s0)
    949e:	a0d1                	j	9562 <_printf_i+0x110>
    94a0:	06300793          	li	a5,99
    94a4:	0af68663          	beq	a3,a5,9550 <_printf_i+0xfe>
    94a8:	06400793          	li	a5,100
    94ac:	fef695e3          	bne	a3,a5,9496 <_printf_i+0x44>
    94b0:	401c                	lw	a5,0(s0)
    94b2:	4308                	lw	a0,0(a4)
    94b4:	0807f693          	andi	a3,a5,128
    94b8:	00450593          	addi	a1,a0,4
    94bc:	c6cd                	beqz	a3,9566 <_printf_i+0x114>
    94be:	411c                	lw	a5,0(a0)
    94c0:	c30c                	sw	a1,0(a4)
    94c2:	0007d863          	bgez	a5,94d2 <_printf_i+0x80>
    94c6:	02d00713          	li	a4,45
    94ca:	40f007b3          	neg	a5,a5
    94ce:	04e401a3          	sb	a4,67(s0)
    94d2:	00003697          	auipc	a3,0x3
    94d6:	1fa68693          	addi	a3,a3,506 # c6cc <__clz_tab+0x154>
    94da:	4729                	li	a4,10
    94dc:	a86d                	j	9596 <_printf_i+0x144>
    94de:	07000793          	li	a5,112
    94e2:	16f68363          	beq	a3,a5,9648 <_printf_i+0x1f6>
    94e6:	02d7e563          	bltu	a5,a3,9510 <_printf_i+0xbe>
    94ea:	06e00793          	li	a5,110
    94ee:	18f68a63          	beq	a3,a5,9682 <_printf_i+0x230>
    94f2:	06f00793          	li	a5,111
    94f6:	faf690e3          	bne	a3,a5,9496 <_printf_i+0x44>
    94fa:	400c                	lw	a1,0(s0)
    94fc:	431c                	lw	a5,0(a4)
    94fe:	0805f813          	andi	a6,a1,128
    9502:	00478513          	addi	a0,a5,4
    9506:	06080863          	beqz	a6,9576 <_printf_i+0x124>
    950a:	c308                	sw	a0,0(a4)
    950c:	439c                	lw	a5,0(a5)
    950e:	a88d                	j	9580 <_printf_i+0x12e>
    9510:	07500793          	li	a5,117
    9514:	fef683e3          	beq	a3,a5,94fa <_printf_i+0xa8>
    9518:	07800793          	li	a5,120
    951c:	12f68a63          	beq	a3,a5,9650 <_printf_i+0x1fe>
    9520:	07300793          	li	a5,115
    9524:	f6f699e3          	bne	a3,a5,9496 <_printf_i+0x44>
    9528:	431c                	lw	a5,0(a4)
    952a:	41d0                	lw	a2,4(a1)
    952c:	4581                	li	a1,0
    952e:	00478693          	addi	a3,a5,4
    9532:	c314                	sw	a3,0(a4)
    9534:	0007aa83          	lw	s5,0(a5)
    9538:	8556                	mv	a0,s5
    953a:	209000ef          	jal	ra,9f42 <memchr>
    953e:	c501                	beqz	a0,9546 <_printf_i+0xf4>
    9540:	41550533          	sub	a0,a0,s5
    9544:	c048                	sw	a0,4(s0)
    9546:	405c                	lw	a5,4(s0)
    9548:	c81c                	sw	a5,16(s0)
    954a:	040401a3          	sb	zero,67(s0)
    954e:	a861                	j	95e6 <_printf_i+0x194>
    9550:	431c                	lw	a5,0(a4)
    9552:	04240a93          	addi	s5,s0,66
    9556:	00478693          	addi	a3,a5,4
    955a:	439c                	lw	a5,0(a5)
    955c:	c314                	sw	a3,0(a4)
    955e:	04f40123          	sb	a5,66(s0)
    9562:	4785                	li	a5,1
    9564:	b7d5                	j	9548 <_printf_i+0xf6>
    9566:	0407f693          	andi	a3,a5,64
    956a:	411c                	lw	a5,0(a0)
    956c:	c30c                	sw	a1,0(a4)
    956e:	dab1                	beqz	a3,94c2 <_printf_i+0x70>
    9570:	07c2                	slli	a5,a5,0x10
    9572:	87c1                	srai	a5,a5,0x10
    9574:	b7b9                	j	94c2 <_printf_i+0x70>
    9576:	0405f593          	andi	a1,a1,64
    957a:	c308                	sw	a0,0(a4)
    957c:	d9c1                	beqz	a1,950c <_printf_i+0xba>
    957e:	239e                	lhu	a5,0(a5)
    9580:	06f00713          	li	a4,111
    9584:	0ee68763          	beq	a3,a4,9672 <_printf_i+0x220>
    9588:	00003697          	auipc	a3,0x3
    958c:	14468693          	addi	a3,a3,324 # c6cc <__clz_tab+0x154>
    9590:	4729                	li	a4,10
    9592:	040401a3          	sb	zero,67(s0)
    9596:	404c                	lw	a1,4(s0)
    9598:	c40c                	sw	a1,8(s0)
    959a:	0005c563          	bltz	a1,95a4 <_printf_i+0x152>
    959e:	4008                	lw	a0,0(s0)
    95a0:	996d                	andi	a0,a0,-5
    95a2:	c008                	sw	a0,0(s0)
    95a4:	e399                	bnez	a5,95aa <_printf_i+0x158>
    95a6:	8ab2                	mv	s5,a2
    95a8:	cd89                	beqz	a1,95c2 <_printf_i+0x170>
    95aa:	8ab2                	mv	s5,a2
    95ac:	02e7f5b3          	remu	a1,a5,a4
    95b0:	1afd                	addi	s5,s5,-1
    95b2:	95b6                	add	a1,a1,a3
    95b4:	218c                	lbu	a1,0(a1)
    95b6:	00ba8023          	sb	a1,0(s5)
    95ba:	02e7d5b3          	divu	a1,a5,a4
    95be:	0ce7f063          	bgeu	a5,a4,967e <_printf_i+0x22c>
    95c2:	47a1                	li	a5,8
    95c4:	00f71e63          	bne	a4,a5,95e0 <_printf_i+0x18e>
    95c8:	401c                	lw	a5,0(s0)
    95ca:	8b85                	andi	a5,a5,1
    95cc:	cb91                	beqz	a5,95e0 <_printf_i+0x18e>
    95ce:	4058                	lw	a4,4(s0)
    95d0:	481c                	lw	a5,16(s0)
    95d2:	00e7c763          	blt	a5,a4,95e0 <_printf_i+0x18e>
    95d6:	03000793          	li	a5,48
    95da:	fefa8fa3          	sb	a5,-1(s5)
    95de:	1afd                	addi	s5,s5,-1
    95e0:	41560633          	sub	a2,a2,s5
    95e4:	c810                	sw	a2,16(s0)
    95e6:	874e                	mv	a4,s3
    95e8:	86ca                	mv	a3,s2
    95ea:	0070                	addi	a2,sp,12
    95ec:	85a2                	mv	a1,s0
    95ee:	8526                	mv	a0,s1
    95f0:	d57ff0ef          	jal	ra,9346 <_printf_common>
    95f4:	5a7d                	li	s4,-1
    95f6:	0b451d63          	bne	a0,s4,96b0 <_printf_i+0x25e>
    95fa:	557d                	li	a0,-1
    95fc:	50b2                	lw	ra,44(sp)
    95fe:	5422                	lw	s0,40(sp)
    9600:	5492                	lw	s1,36(sp)
    9602:	5902                	lw	s2,32(sp)
    9604:	49f2                	lw	s3,28(sp)
    9606:	4a62                	lw	s4,24(sp)
    9608:	4ad2                	lw	s5,20(sp)
    960a:	4b42                	lw	s6,16(sp)
    960c:	6145                	addi	sp,sp,48
    960e:	8082                	ret
    9610:	04d582a3          	sb	a3,69(a1)
    9614:	00003697          	auipc	a3,0x3
    9618:	0b868693          	addi	a3,a3,184 # c6cc <__clz_tab+0x154>
    961c:	400c                	lw	a1,0(s0)
    961e:	4308                	lw	a0,0(a4)
    9620:	0805f813          	andi	a6,a1,128
    9624:	411c                	lw	a5,0(a0)
    9626:	0511                	addi	a0,a0,4
    9628:	02080d63          	beqz	a6,9662 <_printf_i+0x210>
    962c:	c308                	sw	a0,0(a4)
    962e:	0015f713          	andi	a4,a1,1
    9632:	c701                	beqz	a4,963a <_printf_i+0x1e8>
    9634:	0205e593          	ori	a1,a1,32
    9638:	c00c                	sw	a1,0(s0)
    963a:	4741                	li	a4,16
    963c:	fbb9                	bnez	a5,9592 <_printf_i+0x140>
    963e:	400c                	lw	a1,0(s0)
    9640:	fdf5f593          	andi	a1,a1,-33
    9644:	c00c                	sw	a1,0(s0)
    9646:	b7b1                	j	9592 <_printf_i+0x140>
    9648:	419c                	lw	a5,0(a1)
    964a:	0207e793          	ori	a5,a5,32
    964e:	c19c                	sw	a5,0(a1)
    9650:	07800793          	li	a5,120
    9654:	04f402a3          	sb	a5,69(s0)
    9658:	00003697          	auipc	a3,0x3
    965c:	08868693          	addi	a3,a3,136 # c6e0 <__clz_tab+0x168>
    9660:	bf75                	j	961c <_printf_i+0x1ca>
    9662:	0405f813          	andi	a6,a1,64
    9666:	c308                	sw	a0,0(a4)
    9668:	fc0803e3          	beqz	a6,962e <_printf_i+0x1dc>
    966c:	07c2                	slli	a5,a5,0x10
    966e:	83c1                	srli	a5,a5,0x10
    9670:	bf7d                	j	962e <_printf_i+0x1dc>
    9672:	00003697          	auipc	a3,0x3
    9676:	05a68693          	addi	a3,a3,90 # c6cc <__clz_tab+0x154>
    967a:	4721                	li	a4,8
    967c:	bf19                	j	9592 <_printf_i+0x140>
    967e:	87ae                	mv	a5,a1
    9680:	b735                	j	95ac <_printf_i+0x15a>
    9682:	4194                	lw	a3,0(a1)
    9684:	431c                	lw	a5,0(a4)
    9686:	49cc                	lw	a1,20(a1)
    9688:	0806f813          	andi	a6,a3,128
    968c:	00478513          	addi	a0,a5,4
    9690:	00080663          	beqz	a6,969c <_printf_i+0x24a>
    9694:	c308                	sw	a0,0(a4)
    9696:	439c                	lw	a5,0(a5)
    9698:	c38c                	sw	a1,0(a5)
    969a:	a039                	j	96a8 <_printf_i+0x256>
    969c:	c308                	sw	a0,0(a4)
    969e:	0406f693          	andi	a3,a3,64
    96a2:	439c                	lw	a5,0(a5)
    96a4:	daf5                	beqz	a3,9698 <_printf_i+0x246>
    96a6:	a38e                	sh	a1,0(a5)
    96a8:	00042823          	sw	zero,16(s0)
    96ac:	8ab2                	mv	s5,a2
    96ae:	bf25                	j	95e6 <_printf_i+0x194>
    96b0:	4814                	lw	a3,16(s0)
    96b2:	8656                	mv	a2,s5
    96b4:	85ca                	mv	a1,s2
    96b6:	8526                	mv	a0,s1
    96b8:	9982                	jalr	s3
    96ba:	f54500e3          	beq	a0,s4,95fa <_printf_i+0x1a8>
    96be:	401c                	lw	a5,0(s0)
    96c0:	8b89                	andi	a5,a5,2
    96c2:	e78d                	bnez	a5,96ec <_printf_i+0x29a>
    96c4:	47b2                	lw	a5,12(sp)
    96c6:	4448                	lw	a0,12(s0)
    96c8:	f2f55ae3          	bge	a0,a5,95fc <_printf_i+0x1aa>
    96cc:	853e                	mv	a0,a5
    96ce:	b73d                	j	95fc <_printf_i+0x1aa>
    96d0:	4685                	li	a3,1
    96d2:	8656                	mv	a2,s5
    96d4:	85ca                	mv	a1,s2
    96d6:	8526                	mv	a0,s1
    96d8:	9982                	jalr	s3
    96da:	f36500e3          	beq	a0,s6,95fa <_printf_i+0x1a8>
    96de:	0a05                	addi	s4,s4,1
    96e0:	445c                	lw	a5,12(s0)
    96e2:	4732                	lw	a4,12(sp)
    96e4:	8f99                	sub	a5,a5,a4
    96e6:	fefa45e3          	blt	s4,a5,96d0 <_printf_i+0x27e>
    96ea:	bfe9                	j	96c4 <_printf_i+0x272>
    96ec:	4a01                	li	s4,0
    96ee:	01940a93          	addi	s5,s0,25
    96f2:	5b7d                	li	s6,-1
    96f4:	b7f5                	j	96e0 <_printf_i+0x28e>

000096f6 <iprintf>:
    96f6:	7139                	addi	sp,sp,-64
    96f8:	da3e                	sw	a5,52(sp)
    96fa:	d22e                	sw	a1,36(sp)
    96fc:	d432                	sw	a2,40(sp)
    96fe:	d636                	sw	a3,44(sp)
    9700:	d83a                	sw	a4,48(sp)
    9702:	dc42                	sw	a6,56(sp)
    9704:	de46                	sw	a7,60(sp)
    9706:	81018793          	addi	a5,gp,-2032 # 200000d0 <_impure_ptr>
    970a:	cc22                	sw	s0,24(sp)
    970c:	4380                	lw	s0,0(a5)
    970e:	ca26                	sw	s1,20(sp)
    9710:	ce06                	sw	ra,28(sp)
    9712:	84aa                	mv	s1,a0
    9714:	c409                	beqz	s0,971e <iprintf+0x28>
    9716:	4c1c                	lw	a5,24(s0)
    9718:	e399                	bnez	a5,971e <iprintf+0x28>
    971a:	8522                	mv	a0,s0
    971c:	23e1                	jal	9ce4 <__sinit>
    971e:	440c                	lw	a1,8(s0)
    9720:	1054                	addi	a3,sp,36
    9722:	8626                	mv	a2,s1
    9724:	8522                	mv	a0,s0
    9726:	c636                	sw	a3,12(sp)
    9728:	991ff0ef          	jal	ra,90b8 <_vfiprintf_r>
    972c:	40f2                	lw	ra,28(sp)
    972e:	4462                	lw	s0,24(sp)
    9730:	44d2                	lw	s1,20(sp)
    9732:	6121                	addi	sp,sp,64
    9734:	8082                	ret

00009736 <_puts_r>:
    9736:	1101                	addi	sp,sp,-32
    9738:	ca26                	sw	s1,20(sp)
    973a:	c84a                	sw	s2,16(sp)
    973c:	ce06                	sw	ra,28(sp)
    973e:	cc22                	sw	s0,24(sp)
    9740:	c64e                	sw	s3,12(sp)
    9742:	c452                	sw	s4,8(sp)
    9744:	84aa                	mv	s1,a0
    9746:	892e                	mv	s2,a1
    9748:	c501                	beqz	a0,9750 <_puts_r+0x1a>
    974a:	4d1c                	lw	a5,24(a0)
    974c:	e391                	bnez	a5,9750 <_puts_r+0x1a>
    974e:	2b59                	jal	9ce4 <__sinit>
    9750:	4c9c                	lw	a5,24(s1)
    9752:	4480                	lw	s0,8(s1)
    9754:	e399                	bnez	a5,975a <_puts_r+0x24>
    9756:	8526                	mv	a0,s1
    9758:	2371                	jal	9ce4 <__sinit>
    975a:	00003797          	auipc	a5,0x3
    975e:	fba78793          	addi	a5,a5,-70 # c714 <__sf_fake_stdin>
    9762:	02f41b63          	bne	s0,a5,9798 <_puts_r+0x62>
    9766:	40c0                	lw	s0,4(s1)
    9768:	245e                	lhu	a5,12(s0)
    976a:	8ba1                	andi	a5,a5,8
    976c:	c7b1                	beqz	a5,97b8 <_puts_r+0x82>
    976e:	481c                	lw	a5,16(s0)
    9770:	c7a1                	beqz	a5,97b8 <_puts_r+0x82>
    9772:	59fd                	li	s3,-1
    9774:	4a29                	li	s4,10
    9776:	441c                	lw	a5,8(s0)
    9778:	00094583          	lbu	a1,0(s2)
    977c:	17fd                	addi	a5,a5,-1
    977e:	e9b1                	bnez	a1,97d2 <_puts_r+0x9c>
    9780:	c41c                	sw	a5,8(s0)
    9782:	0607dd63          	bgez	a5,97fc <_puts_r+0xc6>
    9786:	8622                	mv	a2,s0
    9788:	45a9                	li	a1,10
    978a:	8526                	mv	a0,s1
    978c:	2a3d                	jal	98ca <__swbuf_r>
    978e:	57fd                	li	a5,-1
    9790:	02f50863          	beq	a0,a5,97c0 <_puts_r+0x8a>
    9794:	4529                	li	a0,10
    9796:	a035                	j	97c2 <_puts_r+0x8c>
    9798:	00003797          	auipc	a5,0x3
    979c:	f9c78793          	addi	a5,a5,-100 # c734 <__sf_fake_stdout>
    97a0:	00f41463          	bne	s0,a5,97a8 <_puts_r+0x72>
    97a4:	4480                	lw	s0,8(s1)
    97a6:	b7c9                	j	9768 <_puts_r+0x32>
    97a8:	00003797          	auipc	a5,0x3
    97ac:	f4c78793          	addi	a5,a5,-180 # c6f4 <__sf_fake_stderr>
    97b0:	faf41ce3          	bne	s0,a5,9768 <_puts_r+0x32>
    97b4:	44c0                	lw	s0,12(s1)
    97b6:	bf4d                	j	9768 <_puts_r+0x32>
    97b8:	85a2                	mv	a1,s0
    97ba:	8526                	mv	a0,s1
    97bc:	22e9                	jal	9986 <__swsetup_r>
    97be:	d955                	beqz	a0,9772 <_puts_r+0x3c>
    97c0:	557d                	li	a0,-1
    97c2:	40f2                	lw	ra,28(sp)
    97c4:	4462                	lw	s0,24(sp)
    97c6:	44d2                	lw	s1,20(sp)
    97c8:	4942                	lw	s2,16(sp)
    97ca:	49b2                	lw	s3,12(sp)
    97cc:	4a22                	lw	s4,8(sp)
    97ce:	6105                	addi	sp,sp,32
    97d0:	8082                	ret
    97d2:	c41c                	sw	a5,8(s0)
    97d4:	0905                	addi	s2,s2,1
    97d6:	0007d763          	bgez	a5,97e4 <_puts_r+0xae>
    97da:	4c18                	lw	a4,24(s0)
    97dc:	00e7ca63          	blt	a5,a4,97f0 <_puts_r+0xba>
    97e0:	01458863          	beq	a1,s4,97f0 <_puts_r+0xba>
    97e4:	401c                	lw	a5,0(s0)
    97e6:	00178713          	addi	a4,a5,1
    97ea:	c018                	sw	a4,0(s0)
    97ec:	a38c                	sb	a1,0(a5)
    97ee:	b761                	j	9776 <_puts_r+0x40>
    97f0:	8622                	mv	a2,s0
    97f2:	8526                	mv	a0,s1
    97f4:	28d9                	jal	98ca <__swbuf_r>
    97f6:	f93510e3          	bne	a0,s3,9776 <_puts_r+0x40>
    97fa:	b7d9                	j	97c0 <_puts_r+0x8a>
    97fc:	401c                	lw	a5,0(s0)
    97fe:	00178713          	addi	a4,a5,1
    9802:	c018                	sw	a4,0(s0)
    9804:	4729                	li	a4,10
    9806:	a398                	sb	a4,0(a5)
    9808:	b771                	j	9794 <_puts_r+0x5e>

0000980a <puts>:
    980a:	81018793          	addi	a5,gp,-2032 # 200000d0 <_impure_ptr>
    980e:	85aa                	mv	a1,a0
    9810:	4388                	lw	a0,0(a5)
    9812:	f25ff06f          	j	9736 <_puts_r>

00009816 <_sbrk_r>:
    9816:	1141                	addi	sp,sp,-16
    9818:	c422                	sw	s0,8(sp)
    981a:	842a                	mv	s0,a0
    981c:	852e                	mv	a0,a1
    981e:	1fff9797          	auipc	a5,0x1fff9
    9822:	9e07af23          	sw	zero,-1538(a5) # 2000221c <errno>
    9826:	c606                	sw	ra,12(sp)
    9828:	dfefc0ef          	jal	ra,5e26 <_sbrk>
    982c:	57fd                	li	a5,-1
    982e:	00f51963          	bne	a0,a5,9840 <_sbrk_r+0x2a>
    9832:	1fff9797          	auipc	a5,0x1fff9
    9836:	9ea78793          	addi	a5,a5,-1558 # 2000221c <errno>
    983a:	439c                	lw	a5,0(a5)
    983c:	c391                	beqz	a5,9840 <_sbrk_r+0x2a>
    983e:	c01c                	sw	a5,0(s0)
    9840:	40b2                	lw	ra,12(sp)
    9842:	4422                	lw	s0,8(sp)
    9844:	0141                	addi	sp,sp,16
    9846:	8082                	ret

00009848 <siprintf>:
    9848:	7135                	addi	sp,sp,-160
    984a:	cb3e                	sw	a5,148(sp)
    984c:	800007b7          	lui	a5,0x80000
    9850:	fff7c793          	not	a5,a5
    9854:	ce3e                	sw	a5,28(sp)
    9856:	c83e                	sw	a5,16(sp)
    9858:	77c1                	lui	a5,0xffff0
    985a:	20878793          	addi	a5,a5,520 # ffff0208 <_eusrstack+0xdffe8208>
    985e:	c532                	sw	a2,136(sp)
    9860:	c736                	sw	a3,140(sp)
    9862:	c93a                	sw	a4,144(sp)
    9864:	cd42                	sw	a6,152(sp)
    9866:	cf46                	sw	a7,156(sp)
    9868:	ca3e                	sw	a5,20(sp)
    986a:	81018793          	addi	a5,gp,-2032 # 200000d0 <_impure_ptr>
    986e:	c42a                	sw	a0,8(sp)
    9870:	cc2a                	sw	a0,24(sp)
    9872:	4388                	lw	a0,0(a5)
    9874:	0134                	addi	a3,sp,136
    9876:	862e                	mv	a2,a1
    9878:	002c                	addi	a1,sp,8
    987a:	de86                	sw	ra,124(sp)
    987c:	c236                	sw	a3,4(sp)
    987e:	063000ef          	jal	ra,a0e0 <_svfiprintf_r>
    9882:	47a2                	lw	a5,8(sp)
    9884:	00078023          	sb	zero,0(a5)
    9888:	50f6                	lw	ra,124(sp)
    988a:	610d                	addi	sp,sp,160
    988c:	8082                	ret

0000988e <strcspn>:
    988e:	87aa                	mv	a5,a0
    9890:	2394                	lbu	a3,0(a5)
    9892:	ea99                	bnez	a3,98a8 <strcspn+0x1a>
    9894:	40a78533          	sub	a0,a5,a0
    9898:	8082                	ret
    989a:	fed60de3          	beq	a2,a3,9894 <strcspn+0x6>
    989e:	0705                	addi	a4,a4,1
    98a0:	2310                	lbu	a2,0(a4)
    98a2:	fe65                	bnez	a2,989a <strcspn+0xc>
    98a4:	0785                	addi	a5,a5,1
    98a6:	b7ed                	j	9890 <strcspn+0x2>
    98a8:	872e                	mv	a4,a1
    98aa:	bfdd                	j	98a0 <strcspn+0x12>

000098ac <strspn>:
    98ac:	87aa                	mv	a5,a0
    98ae:	2394                	lbu	a3,0(a5)
    98b0:	ca81                	beqz	a3,98c0 <strspn+0x14>
    98b2:	872e                	mv	a4,a1
    98b4:	a021                	j	98bc <strspn+0x10>
    98b6:	00d60863          	beq	a2,a3,98c6 <strspn+0x1a>
    98ba:	0705                	addi	a4,a4,1
    98bc:	2310                	lbu	a2,0(a4)
    98be:	fe65                	bnez	a2,98b6 <strspn+0xa>
    98c0:	40a78533          	sub	a0,a5,a0
    98c4:	8082                	ret
    98c6:	0785                	addi	a5,a5,1
    98c8:	b7dd                	j	98ae <strspn+0x2>

000098ca <__swbuf_r>:
    98ca:	1101                	addi	sp,sp,-32
    98cc:	cc22                	sw	s0,24(sp)
    98ce:	ca26                	sw	s1,20(sp)
    98d0:	c84a                	sw	s2,16(sp)
    98d2:	ce06                	sw	ra,28(sp)
    98d4:	c64e                	sw	s3,12(sp)
    98d6:	84aa                	mv	s1,a0
    98d8:	892e                	mv	s2,a1
    98da:	8432                	mv	s0,a2
    98dc:	c501                	beqz	a0,98e4 <__swbuf_r+0x1a>
    98de:	4d1c                	lw	a5,24(a0)
    98e0:	e391                	bnez	a5,98e4 <__swbuf_r+0x1a>
    98e2:	2109                	jal	9ce4 <__sinit>
    98e4:	00003797          	auipc	a5,0x3
    98e8:	e3078793          	addi	a5,a5,-464 # c714 <__sf_fake_stdin>
    98ec:	06f41763          	bne	s0,a5,995a <__swbuf_r+0x90>
    98f0:	40c0                	lw	s0,4(s1)
    98f2:	4c1c                	lw	a5,24(s0)
    98f4:	c41c                	sw	a5,8(s0)
    98f6:	245e                	lhu	a5,12(s0)
    98f8:	8ba1                	andi	a5,a5,8
    98fa:	c3c1                	beqz	a5,997a <__swbuf_r+0xb0>
    98fc:	481c                	lw	a5,16(s0)
    98fe:	cfb5                	beqz	a5,997a <__swbuf_r+0xb0>
    9900:	481c                	lw	a5,16(s0)
    9902:	4008                	lw	a0,0(s0)
    9904:	0ff97993          	andi	s3,s2,255
    9908:	0ff97913          	andi	s2,s2,255
    990c:	8d1d                	sub	a0,a0,a5
    990e:	485c                	lw	a5,20(s0)
    9910:	00f54663          	blt	a0,a5,991c <__swbuf_r+0x52>
    9914:	85a2                	mv	a1,s0
    9916:	8526                	mv	a0,s1
    9918:	247d                	jal	9bc6 <_fflush_r>
    991a:	e525                	bnez	a0,9982 <__swbuf_r+0xb8>
    991c:	441c                	lw	a5,8(s0)
    991e:	0505                	addi	a0,a0,1
    9920:	17fd                	addi	a5,a5,-1
    9922:	c41c                	sw	a5,8(s0)
    9924:	401c                	lw	a5,0(s0)
    9926:	00178713          	addi	a4,a5,1
    992a:	c018                	sw	a4,0(s0)
    992c:	01378023          	sb	s3,0(a5)
    9930:	485c                	lw	a5,20(s0)
    9932:	00a78863          	beq	a5,a0,9942 <__swbuf_r+0x78>
    9936:	245e                	lhu	a5,12(s0)
    9938:	8b85                	andi	a5,a5,1
    993a:	cb81                	beqz	a5,994a <__swbuf_r+0x80>
    993c:	47a9                	li	a5,10
    993e:	00f91663          	bne	s2,a5,994a <__swbuf_r+0x80>
    9942:	85a2                	mv	a1,s0
    9944:	8526                	mv	a0,s1
    9946:	2441                	jal	9bc6 <_fflush_r>
    9948:	ed0d                	bnez	a0,9982 <__swbuf_r+0xb8>
    994a:	40f2                	lw	ra,28(sp)
    994c:	4462                	lw	s0,24(sp)
    994e:	854a                	mv	a0,s2
    9950:	44d2                	lw	s1,20(sp)
    9952:	4942                	lw	s2,16(sp)
    9954:	49b2                	lw	s3,12(sp)
    9956:	6105                	addi	sp,sp,32
    9958:	8082                	ret
    995a:	00003797          	auipc	a5,0x3
    995e:	dda78793          	addi	a5,a5,-550 # c734 <__sf_fake_stdout>
    9962:	00f41463          	bne	s0,a5,996a <__swbuf_r+0xa0>
    9966:	4480                	lw	s0,8(s1)
    9968:	b769                	j	98f2 <__swbuf_r+0x28>
    996a:	00003797          	auipc	a5,0x3
    996e:	d8a78793          	addi	a5,a5,-630 # c6f4 <__sf_fake_stderr>
    9972:	f8f410e3          	bne	s0,a5,98f2 <__swbuf_r+0x28>
    9976:	44c0                	lw	s0,12(s1)
    9978:	bfad                	j	98f2 <__swbuf_r+0x28>
    997a:	85a2                	mv	a1,s0
    997c:	8526                	mv	a0,s1
    997e:	2021                	jal	9986 <__swsetup_r>
    9980:	d141                	beqz	a0,9900 <__swbuf_r+0x36>
    9982:	597d                	li	s2,-1
    9984:	b7d9                	j	994a <__swbuf_r+0x80>

00009986 <__swsetup_r>:
    9986:	1141                	addi	sp,sp,-16
    9988:	81018793          	addi	a5,gp,-2032 # 200000d0 <_impure_ptr>
    998c:	c226                	sw	s1,4(sp)
    998e:	4384                	lw	s1,0(a5)
    9990:	c422                	sw	s0,8(sp)
    9992:	c04a                	sw	s2,0(sp)
    9994:	c606                	sw	ra,12(sp)
    9996:	892a                	mv	s2,a0
    9998:	842e                	mv	s0,a1
    999a:	c489                	beqz	s1,99a4 <__swsetup_r+0x1e>
    999c:	4c9c                	lw	a5,24(s1)
    999e:	e399                	bnez	a5,99a4 <__swsetup_r+0x1e>
    99a0:	8526                	mv	a0,s1
    99a2:	2689                	jal	9ce4 <__sinit>
    99a4:	00003797          	auipc	a5,0x3
    99a8:	d7078793          	addi	a5,a5,-656 # c714 <__sf_fake_stdin>
    99ac:	02f41b63          	bne	s0,a5,99e2 <__swsetup_r+0x5c>
    99b0:	40c0                	lw	s0,4(s1)
    99b2:	00c41703          	lh	a4,12(s0)
    99b6:	01071793          	slli	a5,a4,0x10
    99ba:	83c1                	srli	a5,a5,0x10
    99bc:	0087f693          	andi	a3,a5,8
    99c0:	eab5                	bnez	a3,9a34 <__swsetup_r+0xae>
    99c2:	0107f693          	andi	a3,a5,16
    99c6:	ee95                	bnez	a3,9a02 <__swsetup_r+0x7c>
    99c8:	47a5                	li	a5,9
    99ca:	00f92023          	sw	a5,0(s2)
    99ce:	04076713          	ori	a4,a4,64
    99d2:	a45a                	sh	a4,12(s0)
    99d4:	557d                	li	a0,-1
    99d6:	40b2                	lw	ra,12(sp)
    99d8:	4422                	lw	s0,8(sp)
    99da:	4492                	lw	s1,4(sp)
    99dc:	4902                	lw	s2,0(sp)
    99de:	0141                	addi	sp,sp,16
    99e0:	8082                	ret
    99e2:	00003797          	auipc	a5,0x3
    99e6:	d5278793          	addi	a5,a5,-686 # c734 <__sf_fake_stdout>
    99ea:	00f41463          	bne	s0,a5,99f2 <__swsetup_r+0x6c>
    99ee:	4480                	lw	s0,8(s1)
    99f0:	b7c9                	j	99b2 <__swsetup_r+0x2c>
    99f2:	00003797          	auipc	a5,0x3
    99f6:	d0278793          	addi	a5,a5,-766 # c6f4 <__sf_fake_stderr>
    99fa:	faf41ce3          	bne	s0,a5,99b2 <__swsetup_r+0x2c>
    99fe:	44c0                	lw	s0,12(s1)
    9a00:	bf4d                	j	99b2 <__swsetup_r+0x2c>
    9a02:	8b91                	andi	a5,a5,4
    9a04:	c785                	beqz	a5,9a2c <__swsetup_r+0xa6>
    9a06:	584c                	lw	a1,52(s0)
    9a08:	c991                	beqz	a1,9a1c <__swsetup_r+0x96>
    9a0a:	04440793          	addi	a5,s0,68
    9a0e:	00f58563          	beq	a1,a5,9a18 <__swsetup_r+0x92>
    9a12:	854a                	mv	a0,s2
    9a14:	cb8ff0ef          	jal	ra,8ecc <_free_r>
    9a18:	02042a23          	sw	zero,52(s0)
    9a1c:	245e                	lhu	a5,12(s0)
    9a1e:	00042223          	sw	zero,4(s0)
    9a22:	fdb7f793          	andi	a5,a5,-37
    9a26:	a45e                	sh	a5,12(s0)
    9a28:	481c                	lw	a5,16(s0)
    9a2a:	c01c                	sw	a5,0(s0)
    9a2c:	245e                	lhu	a5,12(s0)
    9a2e:	0087e793          	ori	a5,a5,8
    9a32:	a45e                	sh	a5,12(s0)
    9a34:	481c                	lw	a5,16(s0)
    9a36:	eb99                	bnez	a5,9a4c <__swsetup_r+0xc6>
    9a38:	245e                	lhu	a5,12(s0)
    9a3a:	20000713          	li	a4,512
    9a3e:	2807f793          	andi	a5,a5,640
    9a42:	00e78563          	beq	a5,a4,9a4c <__swsetup_r+0xc6>
    9a46:	85a2                	mv	a1,s0
    9a48:	854a                	mv	a0,s2
    9a4a:	219d                	jal	9eb0 <__smakebuf_r>
    9a4c:	245e                	lhu	a5,12(s0)
    9a4e:	0017f713          	andi	a4,a5,1
    9a52:	c31d                	beqz	a4,9a78 <__swsetup_r+0xf2>
    9a54:	485c                	lw	a5,20(s0)
    9a56:	00042423          	sw	zero,8(s0)
    9a5a:	40f007b3          	neg	a5,a5
    9a5e:	cc1c                	sw	a5,24(s0)
    9a60:	481c                	lw	a5,16(s0)
    9a62:	4501                	li	a0,0
    9a64:	fbad                	bnez	a5,99d6 <__swsetup_r+0x50>
    9a66:	00c41783          	lh	a5,12(s0)
    9a6a:	0807f713          	andi	a4,a5,128
    9a6e:	d725                	beqz	a4,99d6 <__swsetup_r+0x50>
    9a70:	0407e793          	ori	a5,a5,64
    9a74:	a45e                	sh	a5,12(s0)
    9a76:	bfb9                	j	99d4 <__swsetup_r+0x4e>
    9a78:	8b89                	andi	a5,a5,2
    9a7a:	4701                	li	a4,0
    9a7c:	e391                	bnez	a5,9a80 <__swsetup_r+0xfa>
    9a7e:	4858                	lw	a4,20(s0)
    9a80:	c418                	sw	a4,8(s0)
    9a82:	bff9                	j	9a60 <__swsetup_r+0xda>

00009a84 <abort>:
    9a84:	1141                	addi	sp,sp,-16
    9a86:	4519                	li	a0,6
    9a88:	c606                	sw	ra,12(sp)
    9a8a:	125000ef          	jal	ra,a3ae <raise>
    9a8e:	4505                	li	a0,1
    9a90:	3bd000ef          	jal	ra,a64c <_exit>

00009a94 <__sflush_r>:
    9a94:	25de                	lhu	a5,12(a1)
    9a96:	1101                	addi	sp,sp,-32
    9a98:	cc22                	sw	s0,24(sp)
    9a9a:	ca26                	sw	s1,20(sp)
    9a9c:	ce06                	sw	ra,28(sp)
    9a9e:	c84a                	sw	s2,16(sp)
    9aa0:	c64e                	sw	s3,12(sp)
    9aa2:	0087f713          	andi	a4,a5,8
    9aa6:	84aa                	mv	s1,a0
    9aa8:	842e                	mv	s0,a1
    9aaa:	ef61                	bnez	a4,9b82 <__sflush_r+0xee>
    9aac:	41d8                	lw	a4,4(a1)
    9aae:	00e04d63          	bgtz	a4,9ac8 <__sflush_r+0x34>
    9ab2:	41b8                	lw	a4,64(a1)
    9ab4:	00e04a63          	bgtz	a4,9ac8 <__sflush_r+0x34>
    9ab8:	4501                	li	a0,0
    9aba:	40f2                	lw	ra,28(sp)
    9abc:	4462                	lw	s0,24(sp)
    9abe:	44d2                	lw	s1,20(sp)
    9ac0:	4942                	lw	s2,16(sp)
    9ac2:	49b2                	lw	s3,12(sp)
    9ac4:	6105                	addi	sp,sp,32
    9ac6:	8082                	ret
    9ac8:	5458                	lw	a4,44(s0)
    9aca:	d77d                	beqz	a4,9ab8 <__sflush_r+0x24>
    9acc:	0004a903          	lw	s2,0(s1)
    9ad0:	01379693          	slli	a3,a5,0x13
    9ad4:	0004a023          	sw	zero,0(s1)
    9ad8:	0606dc63          	bgez	a3,9b50 <__sflush_r+0xbc>
    9adc:	4870                	lw	a2,84(s0)
    9ade:	245e                	lhu	a5,12(s0)
    9ae0:	8b91                	andi	a5,a5,4
    9ae2:	c799                	beqz	a5,9af0 <__sflush_r+0x5c>
    9ae4:	405c                	lw	a5,4(s0)
    9ae6:	8e1d                	sub	a2,a2,a5
    9ae8:	585c                	lw	a5,52(s0)
    9aea:	c399                	beqz	a5,9af0 <__sflush_r+0x5c>
    9aec:	403c                	lw	a5,64(s0)
    9aee:	8e1d                	sub	a2,a2,a5
    9af0:	545c                	lw	a5,44(s0)
    9af2:	500c                	lw	a1,32(s0)
    9af4:	4681                	li	a3,0
    9af6:	8526                	mv	a0,s1
    9af8:	9782                	jalr	a5
    9afa:	57fd                	li	a5,-1
    9afc:	245a                	lhu	a4,12(s0)
    9afe:	00f51d63          	bne	a0,a5,9b18 <__sflush_r+0x84>
    9b02:	4094                	lw	a3,0(s1)
    9b04:	47f5                	li	a5,29
    9b06:	06d7e963          	bltu	a5,a3,9b78 <__sflush_r+0xe4>
    9b0a:	204007b7          	lui	a5,0x20400
    9b0e:	0785                	addi	a5,a5,1
    9b10:	00d7d7b3          	srl	a5,a5,a3
    9b14:	8b85                	andi	a5,a5,1
    9b16:	c3ad                	beqz	a5,9b78 <__sflush_r+0xe4>
    9b18:	481c                	lw	a5,16(s0)
    9b1a:	00042223          	sw	zero,4(s0)
    9b1e:	c01c                	sw	a5,0(s0)
    9b20:	01371793          	slli	a5,a4,0x13
    9b24:	0007d863          	bgez	a5,9b34 <__sflush_r+0xa0>
    9b28:	57fd                	li	a5,-1
    9b2a:	00f51463          	bne	a0,a5,9b32 <__sflush_r+0x9e>
    9b2e:	409c                	lw	a5,0(s1)
    9b30:	e391                	bnez	a5,9b34 <__sflush_r+0xa0>
    9b32:	c868                	sw	a0,84(s0)
    9b34:	584c                	lw	a1,52(s0)
    9b36:	0124a023          	sw	s2,0(s1)
    9b3a:	ddbd                	beqz	a1,9ab8 <__sflush_r+0x24>
    9b3c:	04440793          	addi	a5,s0,68
    9b40:	00f58563          	beq	a1,a5,9b4a <__sflush_r+0xb6>
    9b44:	8526                	mv	a0,s1
    9b46:	b86ff0ef          	jal	ra,8ecc <_free_r>
    9b4a:	02042a23          	sw	zero,52(s0)
    9b4e:	b7ad                	j	9ab8 <__sflush_r+0x24>
    9b50:	500c                	lw	a1,32(s0)
    9b52:	4601                	li	a2,0
    9b54:	4685                	li	a3,1
    9b56:	8526                	mv	a0,s1
    9b58:	9702                	jalr	a4
    9b5a:	57fd                	li	a5,-1
    9b5c:	862a                	mv	a2,a0
    9b5e:	f8f510e3          	bne	a0,a5,9ade <__sflush_r+0x4a>
    9b62:	409c                	lw	a5,0(s1)
    9b64:	dfad                	beqz	a5,9ade <__sflush_r+0x4a>
    9b66:	4775                	li	a4,29
    9b68:	00e78563          	beq	a5,a4,9b72 <__sflush_r+0xde>
    9b6c:	4759                	li	a4,22
    9b6e:	04e79363          	bne	a5,a4,9bb4 <__sflush_r+0x120>
    9b72:	0124a023          	sw	s2,0(s1)
    9b76:	b789                	j	9ab8 <__sflush_r+0x24>
    9b78:	04076713          	ori	a4,a4,64
    9b7c:	a45a                	sh	a4,12(s0)
    9b7e:	557d                	li	a0,-1
    9b80:	bf2d                	j	9aba <__sflush_r+0x26>
    9b82:	0105a983          	lw	s3,16(a1)
    9b86:	f20989e3          	beqz	s3,9ab8 <__sflush_r+0x24>
    9b8a:	0005a903          	lw	s2,0(a1)
    9b8e:	8b8d                	andi	a5,a5,3
    9b90:	0135a023          	sw	s3,0(a1)
    9b94:	41390933          	sub	s2,s2,s3
    9b98:	4701                	li	a4,0
    9b9a:	e391                	bnez	a5,9b9e <__sflush_r+0x10a>
    9b9c:	49d8                	lw	a4,20(a1)
    9b9e:	c418                	sw	a4,8(s0)
    9ba0:	f1205ce3          	blez	s2,9ab8 <__sflush_r+0x24>
    9ba4:	541c                	lw	a5,40(s0)
    9ba6:	500c                	lw	a1,32(s0)
    9ba8:	86ca                	mv	a3,s2
    9baa:	864e                	mv	a2,s3
    9bac:	8526                	mv	a0,s1
    9bae:	9782                	jalr	a5
    9bb0:	00a04763          	bgtz	a0,9bbe <__sflush_r+0x12a>
    9bb4:	245e                	lhu	a5,12(s0)
    9bb6:	0407e793          	ori	a5,a5,64
    9bba:	a45e                	sh	a5,12(s0)
    9bbc:	b7c9                	j	9b7e <__sflush_r+0xea>
    9bbe:	99aa                	add	s3,s3,a0
    9bc0:	40a90933          	sub	s2,s2,a0
    9bc4:	bff1                	j	9ba0 <__sflush_r+0x10c>

00009bc6 <_fflush_r>:
    9bc6:	499c                	lw	a5,16(a1)
    9bc8:	c3a5                	beqz	a5,9c28 <_fflush_r+0x62>
    9bca:	1101                	addi	sp,sp,-32
    9bcc:	cc22                	sw	s0,24(sp)
    9bce:	ce06                	sw	ra,28(sp)
    9bd0:	842a                	mv	s0,a0
    9bd2:	c511                	beqz	a0,9bde <_fflush_r+0x18>
    9bd4:	4d1c                	lw	a5,24(a0)
    9bd6:	e781                	bnez	a5,9bde <_fflush_r+0x18>
    9bd8:	c62e                	sw	a1,12(sp)
    9bda:	2229                	jal	9ce4 <__sinit>
    9bdc:	45b2                	lw	a1,12(sp)
    9bde:	00003797          	auipc	a5,0x3
    9be2:	b3678793          	addi	a5,a5,-1226 # c714 <__sf_fake_stdin>
    9be6:	00f59c63          	bne	a1,a5,9bfe <_fflush_r+0x38>
    9bea:	404c                	lw	a1,4(s0)
    9bec:	00c59783          	lh	a5,12(a1)
    9bf0:	c79d                	beqz	a5,9c1e <_fflush_r+0x58>
    9bf2:	8522                	mv	a0,s0
    9bf4:	4462                	lw	s0,24(sp)
    9bf6:	40f2                	lw	ra,28(sp)
    9bf8:	6105                	addi	sp,sp,32
    9bfa:	e9bff06f          	j	9a94 <__sflush_r>
    9bfe:	00003797          	auipc	a5,0x3
    9c02:	b3678793          	addi	a5,a5,-1226 # c734 <__sf_fake_stdout>
    9c06:	00f59463          	bne	a1,a5,9c0e <_fflush_r+0x48>
    9c0a:	440c                	lw	a1,8(s0)
    9c0c:	b7c5                	j	9bec <_fflush_r+0x26>
    9c0e:	00003797          	auipc	a5,0x3
    9c12:	ae678793          	addi	a5,a5,-1306 # c6f4 <__sf_fake_stderr>
    9c16:	fcf59be3          	bne	a1,a5,9bec <_fflush_r+0x26>
    9c1a:	444c                	lw	a1,12(s0)
    9c1c:	bfc1                	j	9bec <_fflush_r+0x26>
    9c1e:	40f2                	lw	ra,28(sp)
    9c20:	4462                	lw	s0,24(sp)
    9c22:	4501                	li	a0,0
    9c24:	6105                	addi	sp,sp,32
    9c26:	8082                	ret
    9c28:	4501                	li	a0,0
    9c2a:	8082                	ret

00009c2c <std>:
    9c2c:	1141                	addi	sp,sp,-16
    9c2e:	c422                	sw	s0,8(sp)
    9c30:	c606                	sw	ra,12(sp)
    9c32:	842a                	mv	s0,a0
    9c34:	a54e                	sh	a1,12(a0)
    9c36:	a572                	sh	a2,14(a0)
    9c38:	00052023          	sw	zero,0(a0)
    9c3c:	00052223          	sw	zero,4(a0)
    9c40:	00052423          	sw	zero,8(a0)
    9c44:	06052223          	sw	zero,100(a0)
    9c48:	00052823          	sw	zero,16(a0)
    9c4c:	00052a23          	sw	zero,20(a0)
    9c50:	00052c23          	sw	zero,24(a0)
    9c54:	4621                	li	a2,8
    9c56:	4581                	li	a1,0
    9c58:	05c50513          	addi	a0,a0,92
    9c5c:	e06f60ef          	jal	ra,262 <memset>
    9c60:	00000797          	auipc	a5,0x0
    9c64:	78e78793          	addi	a5,a5,1934 # a3ee <__sread>
    9c68:	d05c                	sw	a5,36(s0)
    9c6a:	00000797          	auipc	a5,0x0
    9c6e:	7b078793          	addi	a5,a5,1968 # a41a <__swrite>
    9c72:	d41c                	sw	a5,40(s0)
    9c74:	00000797          	auipc	a5,0x0
    9c78:	7ee78793          	addi	a5,a5,2030 # a462 <__sseek>
    9c7c:	d45c                	sw	a5,44(s0)
    9c7e:	00001797          	auipc	a5,0x1
    9c82:	81478793          	addi	a5,a5,-2028 # a492 <__sclose>
    9c86:	d000                	sw	s0,32(s0)
    9c88:	d81c                	sw	a5,48(s0)
    9c8a:	40b2                	lw	ra,12(sp)
    9c8c:	4422                	lw	s0,8(sp)
    9c8e:	0141                	addi	sp,sp,16
    9c90:	8082                	ret

00009c92 <_cleanup_r>:
    9c92:	00000597          	auipc	a1,0x0
    9c96:	f3458593          	addi	a1,a1,-204 # 9bc6 <_fflush_r>
    9c9a:	aa99                	j	9df0 <_fwalk_reent>

00009c9c <__sfmoreglue>:
    9c9c:	1141                	addi	sp,sp,-16
    9c9e:	c226                	sw	s1,4(sp)
    9ca0:	06800613          	li	a2,104
    9ca4:	fff58493          	addi	s1,a1,-1
    9ca8:	02c484b3          	mul	s1,s1,a2
    9cac:	c04a                	sw	s2,0(sp)
    9cae:	892e                	mv	s2,a1
    9cb0:	c422                	sw	s0,8(sp)
    9cb2:	c606                	sw	ra,12(sp)
    9cb4:	07448593          	addi	a1,s1,116
    9cb8:	abcff0ef          	jal	ra,8f74 <_malloc_r>
    9cbc:	842a                	mv	s0,a0
    9cbe:	cd01                	beqz	a0,9cd6 <__sfmoreglue+0x3a>
    9cc0:	00052023          	sw	zero,0(a0)
    9cc4:	01252223          	sw	s2,4(a0)
    9cc8:	0531                	addi	a0,a0,12
    9cca:	c408                	sw	a0,8(s0)
    9ccc:	06848613          	addi	a2,s1,104
    9cd0:	4581                	li	a1,0
    9cd2:	d90f60ef          	jal	ra,262 <memset>
    9cd6:	8522                	mv	a0,s0
    9cd8:	40b2                	lw	ra,12(sp)
    9cda:	4422                	lw	s0,8(sp)
    9cdc:	4492                	lw	s1,4(sp)
    9cde:	4902                	lw	s2,0(sp)
    9ce0:	0141                	addi	sp,sp,16
    9ce2:	8082                	ret

00009ce4 <__sinit>:
    9ce4:	4d1c                	lw	a5,24(a0)
    9ce6:	e7a5                	bnez	a5,9d4e <__sinit+0x6a>
    9ce8:	1141                	addi	sp,sp,-16
    9cea:	c606                	sw	ra,12(sp)
    9cec:	c422                	sw	s0,8(sp)
    9cee:	00000797          	auipc	a5,0x0
    9cf2:	fa478793          	addi	a5,a5,-92 # 9c92 <_cleanup_r>
    9cf6:	d51c                	sw	a5,40(a0)
    9cf8:	81418793          	addi	a5,gp,-2028 # 200000d4 <_global_impure_ptr>
    9cfc:	439c                	lw	a5,0(a5)
    9cfe:	04052423          	sw	zero,72(a0)
    9d02:	04052623          	sw	zero,76(a0)
    9d06:	04052823          	sw	zero,80(a0)
    9d0a:	00f51463          	bne	a0,a5,9d12 <__sinit+0x2e>
    9d0e:	4785                	li	a5,1
    9d10:	cd1c                	sw	a5,24(a0)
    9d12:	842a                	mv	s0,a0
    9d14:	2835                	jal	9d50 <__sfp>
    9d16:	c048                	sw	a0,4(s0)
    9d18:	8522                	mv	a0,s0
    9d1a:	281d                	jal	9d50 <__sfp>
    9d1c:	c408                	sw	a0,8(s0)
    9d1e:	8522                	mv	a0,s0
    9d20:	2805                	jal	9d50 <__sfp>
    9d22:	c448                	sw	a0,12(s0)
    9d24:	4048                	lw	a0,4(s0)
    9d26:	4601                	li	a2,0
    9d28:	4591                	li	a1,4
    9d2a:	f03ff0ef          	jal	ra,9c2c <std>
    9d2e:	4408                	lw	a0,8(s0)
    9d30:	4605                	li	a2,1
    9d32:	45a5                	li	a1,9
    9d34:	ef9ff0ef          	jal	ra,9c2c <std>
    9d38:	4448                	lw	a0,12(s0)
    9d3a:	4609                	li	a2,2
    9d3c:	45c9                	li	a1,18
    9d3e:	eefff0ef          	jal	ra,9c2c <std>
    9d42:	4785                	li	a5,1
    9d44:	cc1c                	sw	a5,24(s0)
    9d46:	40b2                	lw	ra,12(sp)
    9d48:	4422                	lw	s0,8(sp)
    9d4a:	0141                	addi	sp,sp,16
    9d4c:	8082                	ret
    9d4e:	8082                	ret

00009d50 <__sfp>:
    9d50:	1141                	addi	sp,sp,-16
    9d52:	81418793          	addi	a5,gp,-2028 # 200000d4 <_global_impure_ptr>
    9d56:	c226                	sw	s1,4(sp)
    9d58:	4384                	lw	s1,0(a5)
    9d5a:	c04a                	sw	s2,0(sp)
    9d5c:	c606                	sw	ra,12(sp)
    9d5e:	4c9c                	lw	a5,24(s1)
    9d60:	c422                	sw	s0,8(sp)
    9d62:	892a                	mv	s2,a0
    9d64:	e781                	bnez	a5,9d6c <__sfp+0x1c>
    9d66:	8526                	mv	a0,s1
    9d68:	f7dff0ef          	jal	ra,9ce4 <__sinit>
    9d6c:	04848493          	addi	s1,s1,72
    9d70:	4480                	lw	s0,8(s1)
    9d72:	40dc                	lw	a5,4(s1)
    9d74:	17fd                	addi	a5,a5,-1
    9d76:	0007d663          	bgez	a5,9d82 <__sfp+0x32>
    9d7a:	409c                	lw	a5,0(s1)
    9d7c:	cfb9                	beqz	a5,9dda <__sfp+0x8a>
    9d7e:	4084                	lw	s1,0(s1)
    9d80:	bfc5                	j	9d70 <__sfp+0x20>
    9d82:	00c41703          	lh	a4,12(s0)
    9d86:	e739                	bnez	a4,9dd4 <__sfp+0x84>
    9d88:	77c1                	lui	a5,0xffff0
    9d8a:	0785                	addi	a5,a5,1
    9d8c:	06042223          	sw	zero,100(s0)
    9d90:	00042023          	sw	zero,0(s0)
    9d94:	00042223          	sw	zero,4(s0)
    9d98:	00042423          	sw	zero,8(s0)
    9d9c:	c45c                	sw	a5,12(s0)
    9d9e:	00042823          	sw	zero,16(s0)
    9da2:	00042a23          	sw	zero,20(s0)
    9da6:	00042c23          	sw	zero,24(s0)
    9daa:	4621                	li	a2,8
    9dac:	4581                	li	a1,0
    9dae:	05c40513          	addi	a0,s0,92
    9db2:	cb0f60ef          	jal	ra,262 <memset>
    9db6:	02042a23          	sw	zero,52(s0)
    9dba:	02042c23          	sw	zero,56(s0)
    9dbe:	04042423          	sw	zero,72(s0)
    9dc2:	04042623          	sw	zero,76(s0)
    9dc6:	8522                	mv	a0,s0
    9dc8:	40b2                	lw	ra,12(sp)
    9dca:	4422                	lw	s0,8(sp)
    9dcc:	4492                	lw	s1,4(sp)
    9dce:	4902                	lw	s2,0(sp)
    9dd0:	0141                	addi	sp,sp,16
    9dd2:	8082                	ret
    9dd4:	06840413          	addi	s0,s0,104
    9dd8:	bf71                	j	9d74 <__sfp+0x24>
    9dda:	4591                	li	a1,4
    9ddc:	854a                	mv	a0,s2
    9dde:	ebfff0ef          	jal	ra,9c9c <__sfmoreglue>
    9de2:	c088                	sw	a0,0(s1)
    9de4:	fd49                	bnez	a0,9d7e <__sfp+0x2e>
    9de6:	47b1                	li	a5,12
    9de8:	00f92023          	sw	a5,0(s2)
    9dec:	4401                	li	s0,0
    9dee:	bfe1                	j	9dc6 <__sfp+0x76>

00009df0 <_fwalk_reent>:
    9df0:	7179                	addi	sp,sp,-48
    9df2:	d422                	sw	s0,40(sp)
    9df4:	d04a                	sw	s2,32(sp)
    9df6:	cc52                	sw	s4,24(sp)
    9df8:	ca56                	sw	s5,20(sp)
    9dfa:	c85a                	sw	s6,16(sp)
    9dfc:	c65e                	sw	s7,12(sp)
    9dfe:	d606                	sw	ra,44(sp)
    9e00:	d226                	sw	s1,36(sp)
    9e02:	ce4e                	sw	s3,28(sp)
    9e04:	8a2a                	mv	s4,a0
    9e06:	8aae                	mv	s5,a1
    9e08:	04850413          	addi	s0,a0,72
    9e0c:	4901                	li	s2,0
    9e0e:	4b05                	li	s6,1
    9e10:	5bfd                	li	s7,-1
    9e12:	ec09                	bnez	s0,9e2c <_fwalk_reent+0x3c>
    9e14:	50b2                	lw	ra,44(sp)
    9e16:	5422                	lw	s0,40(sp)
    9e18:	854a                	mv	a0,s2
    9e1a:	5492                	lw	s1,36(sp)
    9e1c:	5902                	lw	s2,32(sp)
    9e1e:	49f2                	lw	s3,28(sp)
    9e20:	4a62                	lw	s4,24(sp)
    9e22:	4ad2                	lw	s5,20(sp)
    9e24:	4b42                	lw	s6,16(sp)
    9e26:	4bb2                	lw	s7,12(sp)
    9e28:	6145                	addi	sp,sp,48
    9e2a:	8082                	ret
    9e2c:	4404                	lw	s1,8(s0)
    9e2e:	00442983          	lw	s3,4(s0)
    9e32:	19fd                	addi	s3,s3,-1
    9e34:	0009d463          	bgez	s3,9e3c <_fwalk_reent+0x4c>
    9e38:	4000                	lw	s0,0(s0)
    9e3a:	bfe1                	j	9e12 <_fwalk_reent+0x22>
    9e3c:	24de                	lhu	a5,12(s1)
    9e3e:	00fb7b63          	bgeu	s6,a5,9e54 <_fwalk_reent+0x64>
    9e42:	00e49783          	lh	a5,14(s1)
    9e46:	01778763          	beq	a5,s7,9e54 <_fwalk_reent+0x64>
    9e4a:	85a6                	mv	a1,s1
    9e4c:	8552                	mv	a0,s4
    9e4e:	9a82                	jalr	s5
    9e50:	00a96933          	or	s2,s2,a0
    9e54:	06848493          	addi	s1,s1,104
    9e58:	bfe9                	j	9e32 <_fwalk_reent+0x42>

00009e5a <__swhatbuf_r>:
    9e5a:	7119                	addi	sp,sp,-128
    9e5c:	daa6                	sw	s1,116(sp)
    9e5e:	84ae                	mv	s1,a1
    9e60:	00e59583          	lh	a1,14(a1)
    9e64:	dca2                	sw	s0,120(sp)
    9e66:	de86                	sw	ra,124(sp)
    9e68:	8432                	mv	s0,a2
    9e6a:	0005db63          	bgez	a1,9e80 <__swhatbuf_r+0x26>
    9e6e:	24de                	lhu	a5,12(s1)
    9e70:	0006a023          	sw	zero,0(a3)
    9e74:	0807f793          	andi	a5,a5,128
    9e78:	e39d                	bnez	a5,9e9e <__swhatbuf_r+0x44>
    9e7a:	40000793          	li	a5,1024
    9e7e:	a015                	j	9ea2 <__swhatbuf_r+0x48>
    9e80:	0830                	addi	a2,sp,24
    9e82:	c636                	sw	a3,12(sp)
    9e84:	2dad                	jal	a4fe <_fstat_r>
    9e86:	46b2                	lw	a3,12(sp)
    9e88:	fe0543e3          	bltz	a0,9e6e <__swhatbuf_r+0x14>
    9e8c:	4772                	lw	a4,28(sp)
    9e8e:	67bd                	lui	a5,0xf
    9e90:	8ff9                	and	a5,a5,a4
    9e92:	7779                	lui	a4,0xffffe
    9e94:	97ba                	add	a5,a5,a4
    9e96:	0017b793          	seqz	a5,a5
    9e9a:	c29c                	sw	a5,0(a3)
    9e9c:	bff9                	j	9e7a <__swhatbuf_r+0x20>
    9e9e:	04000793          	li	a5,64
    9ea2:	c01c                	sw	a5,0(s0)
    9ea4:	50f6                	lw	ra,124(sp)
    9ea6:	5466                	lw	s0,120(sp)
    9ea8:	54d6                	lw	s1,116(sp)
    9eaa:	4501                	li	a0,0
    9eac:	6109                	addi	sp,sp,128
    9eae:	8082                	ret

00009eb0 <__smakebuf_r>:
    9eb0:	25de                	lhu	a5,12(a1)
    9eb2:	1101                	addi	sp,sp,-32
    9eb4:	cc22                	sw	s0,24(sp)
    9eb6:	ce06                	sw	ra,28(sp)
    9eb8:	ca26                	sw	s1,20(sp)
    9eba:	c84a                	sw	s2,16(sp)
    9ebc:	8b89                	andi	a5,a5,2
    9ebe:	842e                	mv	s0,a1
    9ec0:	cf89                	beqz	a5,9eda <__smakebuf_r+0x2a>
    9ec2:	04740793          	addi	a5,s0,71
    9ec6:	c01c                	sw	a5,0(s0)
    9ec8:	c81c                	sw	a5,16(s0)
    9eca:	4785                	li	a5,1
    9ecc:	c85c                	sw	a5,20(s0)
    9ece:	40f2                	lw	ra,28(sp)
    9ed0:	4462                	lw	s0,24(sp)
    9ed2:	44d2                	lw	s1,20(sp)
    9ed4:	4942                	lw	s2,16(sp)
    9ed6:	6105                	addi	sp,sp,32
    9ed8:	8082                	ret
    9eda:	0074                	addi	a3,sp,12
    9edc:	0030                	addi	a2,sp,8
    9ede:	84aa                	mv	s1,a0
    9ee0:	f7bff0ef          	jal	ra,9e5a <__swhatbuf_r>
    9ee4:	45a2                	lw	a1,8(sp)
    9ee6:	892a                	mv	s2,a0
    9ee8:	8526                	mv	a0,s1
    9eea:	88aff0ef          	jal	ra,8f74 <_malloc_r>
    9eee:	e919                	bnez	a0,9f04 <__smakebuf_r+0x54>
    9ef0:	00c41783          	lh	a5,12(s0)
    9ef4:	2007f713          	andi	a4,a5,512
    9ef8:	fb79                	bnez	a4,9ece <__smakebuf_r+0x1e>
    9efa:	9bf1                	andi	a5,a5,-4
    9efc:	0027e793          	ori	a5,a5,2
    9f00:	a45e                	sh	a5,12(s0)
    9f02:	b7c1                	j	9ec2 <__smakebuf_r+0x12>
    9f04:	00000797          	auipc	a5,0x0
    9f08:	d8e78793          	addi	a5,a5,-626 # 9c92 <_cleanup_r>
    9f0c:	d49c                	sw	a5,40(s1)
    9f0e:	245e                	lhu	a5,12(s0)
    9f10:	c008                	sw	a0,0(s0)
    9f12:	c808                	sw	a0,16(s0)
    9f14:	0807e793          	ori	a5,a5,128
    9f18:	a45e                	sh	a5,12(s0)
    9f1a:	47a2                	lw	a5,8(sp)
    9f1c:	c85c                	sw	a5,20(s0)
    9f1e:	47b2                	lw	a5,12(sp)
    9f20:	cb99                	beqz	a5,9f36 <__smakebuf_r+0x86>
    9f22:	00e41583          	lh	a1,14(s0)
    9f26:	8526                	mv	a0,s1
    9f28:	2521                	jal	a530 <_isatty_r>
    9f2a:	c511                	beqz	a0,9f36 <__smakebuf_r+0x86>
    9f2c:	245e                	lhu	a5,12(s0)
    9f2e:	9bf1                	andi	a5,a5,-4
    9f30:	0017e793          	ori	a5,a5,1
    9f34:	a45e                	sh	a5,12(s0)
    9f36:	245e                	lhu	a5,12(s0)
    9f38:	00f96933          	or	s2,s2,a5
    9f3c:	01241623          	sh	s2,12(s0)
    9f40:	b779                	j	9ece <__smakebuf_r+0x1e>

00009f42 <memchr>:
    9f42:	0ff5f593          	andi	a1,a1,255
    9f46:	962a                	add	a2,a2,a0
    9f48:	00c51463          	bne	a0,a2,9f50 <memchr+0xe>
    9f4c:	4501                	li	a0,0
    9f4e:	8082                	ret
    9f50:	211c                	lbu	a5,0(a0)
    9f52:	feb78ee3          	beq	a5,a1,9f4e <memchr+0xc>
    9f56:	0505                	addi	a0,a0,1
    9f58:	bfc5                	j	9f48 <memchr+0x6>

00009f5a <memmove>:
    9f5a:	04a5f163          	bgeu	a1,a0,9f9c <memmove+0x42>
    9f5e:	00c586b3          	add	a3,a1,a2
    9f62:	02d57d63          	bgeu	a0,a3,9f9c <memmove+0x42>
    9f66:	fff64593          	not	a1,a2
    9f6a:	4781                	li	a5,0
    9f6c:	17fd                	addi	a5,a5,-1
    9f6e:	00f59363          	bne	a1,a5,9f74 <memmove+0x1a>
    9f72:	8082                	ret
    9f74:	00f68733          	add	a4,a3,a5
    9f78:	00074803          	lbu	a6,0(a4) # ffffe000 <_eusrstack+0xdfff6000>
    9f7c:	00c78733          	add	a4,a5,a2
    9f80:	972a                	add	a4,a4,a0
    9f82:	01070023          	sb	a6,0(a4)
    9f86:	b7dd                	j	9f6c <memmove+0x12>
    9f88:	00f58733          	add	a4,a1,a5
    9f8c:	2314                	lbu	a3,0(a4)
    9f8e:	00f50733          	add	a4,a0,a5
    9f92:	0785                	addi	a5,a5,1
    9f94:	a314                	sb	a3,0(a4)
    9f96:	fef619e3          	bne	a2,a5,9f88 <memmove+0x2e>
    9f9a:	8082                	ret
    9f9c:	4781                	li	a5,0
    9f9e:	bfe5                	j	9f96 <memmove+0x3c>

00009fa0 <__malloc_lock>:
    9fa0:	8082                	ret

00009fa2 <__malloc_unlock>:
    9fa2:	8082                	ret

00009fa4 <_realloc_r>:
    9fa4:	e581                	bnez	a1,9fac <_realloc_r+0x8>
    9fa6:	85b2                	mv	a1,a2
    9fa8:	fcdfe06f          	j	8f74 <_malloc_r>
    9fac:	1101                	addi	sp,sp,-32
    9fae:	cc22                	sw	s0,24(sp)
    9fb0:	ce06                	sw	ra,28(sp)
    9fb2:	ca26                	sw	s1,20(sp)
    9fb4:	c84a                	sw	s2,16(sp)
    9fb6:	c64e                	sw	s3,12(sp)
    9fb8:	8432                	mv	s0,a2
    9fba:	ee01                	bnez	a2,9fd2 <_realloc_r+0x2e>
    9fbc:	f11fe0ef          	jal	ra,8ecc <_free_r>
    9fc0:	4901                	li	s2,0
    9fc2:	40f2                	lw	ra,28(sp)
    9fc4:	4462                	lw	s0,24(sp)
    9fc6:	854a                	mv	a0,s2
    9fc8:	44d2                	lw	s1,20(sp)
    9fca:	4942                	lw	s2,16(sp)
    9fcc:	49b2                	lw	s3,12(sp)
    9fce:	6105                	addi	sp,sp,32
    9fd0:	8082                	ret
    9fd2:	84ae                	mv	s1,a1
    9fd4:	89aa                	mv	s3,a0
    9fd6:	2b7d                	jal	a594 <_malloc_usable_size_r>
    9fd8:	8926                	mv	s2,s1
    9fda:	fe8574e3          	bgeu	a0,s0,9fc2 <_realloc_r+0x1e>
    9fde:	85a2                	mv	a1,s0
    9fe0:	854e                	mv	a0,s3
    9fe2:	f93fe0ef          	jal	ra,8f74 <_malloc_r>
    9fe6:	892a                	mv	s2,a0
    9fe8:	dd69                	beqz	a0,9fc2 <_realloc_r+0x1e>
    9fea:	85a6                	mv	a1,s1
    9fec:	8622                	mv	a2,s0
    9fee:	e2dfe0ef          	jal	ra,8e1a <memcpy>
    9ff2:	85a6                	mv	a1,s1
    9ff4:	854e                	mv	a0,s3
    9ff6:	ed7fe0ef          	jal	ra,8ecc <_free_r>
    9ffa:	b7e1                	j	9fc2 <_realloc_r+0x1e>

00009ffc <__ssputs_r>:
    9ffc:	1101                	addi	sp,sp,-32
    9ffe:	c84a                	sw	s2,16(sp)
    a000:	0085a903          	lw	s2,8(a1)
    a004:	cc22                	sw	s0,24(sp)
    a006:	c452                	sw	s4,8(sp)
    a008:	c05a                	sw	s6,0(sp)
    a00a:	ce06                	sw	ra,28(sp)
    a00c:	ca26                	sw	s1,20(sp)
    a00e:	c64e                	sw	s3,12(sp)
    a010:	c256                	sw	s5,4(sp)
    a012:	842e                	mv	s0,a1
    a014:	8b32                	mv	s6,a2
    a016:	8a36                	mv	s4,a3
    a018:	0926e963          	bltu	a3,s2,a0aa <__ssputs_r+0xae>
    a01c:	25de                	lhu	a5,12(a1)
    a01e:	4807f713          	andi	a4,a5,1152
    a022:	c351                	beqz	a4,a0a6 <__ssputs_r+0xaa>
    a024:	4004                	lw	s1,0(s0)
    a026:	498c                	lw	a1,16(a1)
    a028:	4858                	lw	a4,20(s0)
    a02a:	8aaa                	mv	s5,a0
    a02c:	40b489b3          	sub	s3,s1,a1
    a030:	448d                	li	s1,3
    a032:	02e484b3          	mul	s1,s1,a4
    a036:	4709                	li	a4,2
    a038:	02e4c4b3          	div	s1,s1,a4
    a03c:	00168713          	addi	a4,a3,1
    a040:	974e                	add	a4,a4,s3
    a042:	00e4f363          	bgeu	s1,a4,a048 <__ssputs_r+0x4c>
    a046:	84ba                	mv	s1,a4
    a048:	4007f793          	andi	a5,a5,1024
    a04c:	cfbd                	beqz	a5,a0ca <__ssputs_r+0xce>
    a04e:	85a6                	mv	a1,s1
    a050:	8556                	mv	a0,s5
    a052:	f23fe0ef          	jal	ra,8f74 <_malloc_r>
    a056:	892a                	mv	s2,a0
    a058:	e11d                	bnez	a0,a07e <__ssputs_r+0x82>
    a05a:	47b1                	li	a5,12
    a05c:	00faa023          	sw	a5,0(s5)
    a060:	245e                	lhu	a5,12(s0)
    a062:	557d                	li	a0,-1
    a064:	0407e793          	ori	a5,a5,64
    a068:	a45e                	sh	a5,12(s0)
    a06a:	40f2                	lw	ra,28(sp)
    a06c:	4462                	lw	s0,24(sp)
    a06e:	44d2                	lw	s1,20(sp)
    a070:	4942                	lw	s2,16(sp)
    a072:	49b2                	lw	s3,12(sp)
    a074:	4a22                	lw	s4,8(sp)
    a076:	4a92                	lw	s5,4(sp)
    a078:	4b02                	lw	s6,0(sp)
    a07a:	6105                	addi	sp,sp,32
    a07c:	8082                	ret
    a07e:	480c                	lw	a1,16(s0)
    a080:	864e                	mv	a2,s3
    a082:	d99fe0ef          	jal	ra,8e1a <memcpy>
    a086:	245e                	lhu	a5,12(s0)
    a088:	b7f7f793          	andi	a5,a5,-1153
    a08c:	0807e793          	ori	a5,a5,128
    a090:	a45e                	sh	a5,12(s0)
    a092:	01242823          	sw	s2,16(s0)
    a096:	c844                	sw	s1,20(s0)
    a098:	994e                	add	s2,s2,s3
    a09a:	413484b3          	sub	s1,s1,s3
    a09e:	01242023          	sw	s2,0(s0)
    a0a2:	c404                	sw	s1,8(s0)
    a0a4:	8952                	mv	s2,s4
    a0a6:	012a7363          	bgeu	s4,s2,a0ac <__ssputs_r+0xb0>
    a0aa:	8952                	mv	s2,s4
    a0ac:	4008                	lw	a0,0(s0)
    a0ae:	864a                	mv	a2,s2
    a0b0:	85da                	mv	a1,s6
    a0b2:	ea9ff0ef          	jal	ra,9f5a <memmove>
    a0b6:	441c                	lw	a5,8(s0)
    a0b8:	4501                	li	a0,0
    a0ba:	412787b3          	sub	a5,a5,s2
    a0be:	c41c                	sw	a5,8(s0)
    a0c0:	401c                	lw	a5,0(s0)
    a0c2:	993e                	add	s2,s2,a5
    a0c4:	01242023          	sw	s2,0(s0)
    a0c8:	b74d                	j	a06a <__ssputs_r+0x6e>
    a0ca:	8626                	mv	a2,s1
    a0cc:	8556                	mv	a0,s5
    a0ce:	ed7ff0ef          	jal	ra,9fa4 <_realloc_r>
    a0d2:	892a                	mv	s2,a0
    a0d4:	fd5d                	bnez	a0,a092 <__ssputs_r+0x96>
    a0d6:	480c                	lw	a1,16(s0)
    a0d8:	8556                	mv	a0,s5
    a0da:	df3fe0ef          	jal	ra,8ecc <_free_r>
    a0de:	bfb5                	j	a05a <__ssputs_r+0x5e>

0000a0e0 <_svfiprintf_r>:
    a0e0:	25de                	lhu	a5,12(a1)
    a0e2:	7171                	addi	sp,sp,-176
    a0e4:	d326                	sw	s1,164(sp)
    a0e6:	d14a                	sw	s2,160(sp)
    a0e8:	cf4e                	sw	s3,156(sp)
    a0ea:	d706                	sw	ra,172(sp)
    a0ec:	d522                	sw	s0,168(sp)
    a0ee:	cd52                	sw	s4,152(sp)
    a0f0:	cb56                	sw	s5,148(sp)
    a0f2:	c95a                	sw	s6,144(sp)
    a0f4:	c75e                	sw	s7,140(sp)
    a0f6:	c562                	sw	s8,136(sp)
    a0f8:	c366                	sw	s9,132(sp)
    a0fa:	0807f793          	andi	a5,a5,128
    a0fe:	89aa                	mv	s3,a0
    a100:	892e                	mv	s2,a1
    a102:	84b2                	mv	s1,a2
    a104:	c3b9                	beqz	a5,a14a <_svfiprintf_r+0x6a>
    a106:	499c                	lw	a5,16(a1)
    a108:	e3a9                	bnez	a5,a14a <_svfiprintf_r+0x6a>
    a10a:	04000593          	li	a1,64
    a10e:	c636                	sw	a3,12(sp)
    a110:	e65fe0ef          	jal	ra,8f74 <_malloc_r>
    a114:	00a92023          	sw	a0,0(s2)
    a118:	00a92823          	sw	a0,16(s2)
    a11c:	46b2                	lw	a3,12(sp)
    a11e:	e115                	bnez	a0,a142 <_svfiprintf_r+0x62>
    a120:	47b1                	li	a5,12
    a122:	00f9a023          	sw	a5,0(s3)
    a126:	557d                	li	a0,-1
    a128:	50ba                	lw	ra,172(sp)
    a12a:	542a                	lw	s0,168(sp)
    a12c:	549a                	lw	s1,164(sp)
    a12e:	590a                	lw	s2,160(sp)
    a130:	49fa                	lw	s3,156(sp)
    a132:	4a6a                	lw	s4,152(sp)
    a134:	4ada                	lw	s5,148(sp)
    a136:	4b4a                	lw	s6,144(sp)
    a138:	4bba                	lw	s7,140(sp)
    a13a:	4c2a                	lw	s8,136(sp)
    a13c:	4c9a                	lw	s9,132(sp)
    a13e:	614d                	addi	sp,sp,176
    a140:	8082                	ret
    a142:	04000793          	li	a5,64
    a146:	00f92a23          	sw	a5,20(s2)
    a14a:	02000793          	li	a5,32
    a14e:	02f10ca3          	sb	a5,57(sp)
    a152:	03000793          	li	a5,48
    a156:	da02                	sw	zero,52(sp)
    a158:	02f10d23          	sb	a5,58(sp)
    a15c:	ce36                	sw	a3,28(sp)
    a15e:	02500b93          	li	s7,37
    a162:	00002a97          	auipc	s5,0x2
    a166:	556a8a93          	addi	s5,s5,1366 # c6b8 <__clz_tab+0x140>
    a16a:	4c05                	li	s8,1
    a16c:	4b29                	li	s6,10
    a16e:	8426                	mv	s0,s1
    a170:	201c                	lbu	a5,0(s0)
    a172:	c399                	beqz	a5,a178 <_svfiprintf_r+0x98>
    a174:	09779963          	bne	a5,s7,a206 <_svfiprintf_r+0x126>
    a178:	40940cb3          	sub	s9,s0,s1
    a17c:	000c8e63          	beqz	s9,a198 <_svfiprintf_r+0xb8>
    a180:	86e6                	mv	a3,s9
    a182:	8626                	mv	a2,s1
    a184:	85ca                	mv	a1,s2
    a186:	854e                	mv	a0,s3
    a188:	e75ff0ef          	jal	ra,9ffc <__ssputs_r>
    a18c:	57fd                	li	a5,-1
    a18e:	18f50b63          	beq	a0,a5,a324 <_svfiprintf_r+0x244>
    a192:	56d2                	lw	a3,52(sp)
    a194:	96e6                	add	a3,a3,s9
    a196:	da36                	sw	a3,52(sp)
    a198:	201c                	lbu	a5,0(s0)
    a19a:	18078563          	beqz	a5,a324 <_svfiprintf_r+0x244>
    a19e:	57fd                	li	a5,-1
    a1a0:	00140493          	addi	s1,s0,1
    a1a4:	d002                	sw	zero,32(sp)
    a1a6:	d602                	sw	zero,44(sp)
    a1a8:	d23e                	sw	a5,36(sp)
    a1aa:	d402                	sw	zero,40(sp)
    a1ac:	060101a3          	sb	zero,99(sp)
    a1b0:	dc82                	sw	zero,120(sp)
    a1b2:	208c                	lbu	a1,0(s1)
    a1b4:	4615                	li	a2,5
    a1b6:	8556                	mv	a0,s5
    a1b8:	d8bff0ef          	jal	ra,9f42 <memchr>
    a1bc:	00148413          	addi	s0,s1,1
    a1c0:	5782                	lw	a5,32(sp)
    a1c2:	e521                	bnez	a0,a20a <_svfiprintf_r+0x12a>
    a1c4:	0107f713          	andi	a4,a5,16
    a1c8:	c709                	beqz	a4,a1d2 <_svfiprintf_r+0xf2>
    a1ca:	02000713          	li	a4,32
    a1ce:	06e101a3          	sb	a4,99(sp)
    a1d2:	0087f713          	andi	a4,a5,8
    a1d6:	c709                	beqz	a4,a1e0 <_svfiprintf_r+0x100>
    a1d8:	02b00713          	li	a4,43
    a1dc:	06e101a3          	sb	a4,99(sp)
    a1e0:	2094                	lbu	a3,0(s1)
    a1e2:	02a00713          	li	a4,42
    a1e6:	02e68a63          	beq	a3,a4,a21a <_svfiprintf_r+0x13a>
    a1ea:	57b2                	lw	a5,44(sp)
    a1ec:	8426                	mv	s0,s1
    a1ee:	4681                	li	a3,0
    a1f0:	4625                	li	a2,9
    a1f2:	2018                	lbu	a4,0(s0)
    a1f4:	00140593          	addi	a1,s0,1
    a1f8:	fd070713          	addi	a4,a4,-48
    a1fc:	06e67263          	bgeu	a2,a4,a260 <_svfiprintf_r+0x180>
    a200:	c68d                	beqz	a3,a22a <_svfiprintf_r+0x14a>
    a202:	d63e                	sw	a5,44(sp)
    a204:	a01d                	j	a22a <_svfiprintf_r+0x14a>
    a206:	0405                	addi	s0,s0,1
    a208:	b7a5                	j	a170 <_svfiprintf_r+0x90>
    a20a:	41550533          	sub	a0,a0,s5
    a20e:	00ac1533          	sll	a0,s8,a0
    a212:	8fc9                	or	a5,a5,a0
    a214:	d03e                	sw	a5,32(sp)
    a216:	84a2                	mv	s1,s0
    a218:	bf69                	j	a1b2 <_svfiprintf_r+0xd2>
    a21a:	4772                	lw	a4,28(sp)
    a21c:	00470693          	addi	a3,a4,4
    a220:	4318                	lw	a4,0(a4)
    a222:	ce36                	sw	a3,28(sp)
    a224:	02074763          	bltz	a4,a252 <_svfiprintf_r+0x172>
    a228:	d63a                	sw	a4,44(sp)
    a22a:	2018                	lbu	a4,0(s0)
    a22c:	02e00793          	li	a5,46
    a230:	04f71d63          	bne	a4,a5,a28a <_svfiprintf_r+0x1aa>
    a234:	3018                	lbu	a4,1(s0)
    a236:	02a00793          	li	a5,42
    a23a:	02f71b63          	bne	a4,a5,a270 <_svfiprintf_r+0x190>
    a23e:	47f2                	lw	a5,28(sp)
    a240:	0409                	addi	s0,s0,2
    a242:	00478713          	addi	a4,a5,4
    a246:	439c                	lw	a5,0(a5)
    a248:	ce3a                	sw	a4,28(sp)
    a24a:	0207c163          	bltz	a5,a26c <_svfiprintf_r+0x18c>
    a24e:	d23e                	sw	a5,36(sp)
    a250:	a82d                	j	a28a <_svfiprintf_r+0x1aa>
    a252:	40e00733          	neg	a4,a4
    a256:	0027e793          	ori	a5,a5,2
    a25a:	d63a                	sw	a4,44(sp)
    a25c:	d03e                	sw	a5,32(sp)
    a25e:	b7f1                	j	a22a <_svfiprintf_r+0x14a>
    a260:	036787b3          	mul	a5,a5,s6
    a264:	4685                	li	a3,1
    a266:	842e                	mv	s0,a1
    a268:	97ba                	add	a5,a5,a4
    a26a:	b761                	j	a1f2 <_svfiprintf_r+0x112>
    a26c:	57fd                	li	a5,-1
    a26e:	b7c5                	j	a24e <_svfiprintf_r+0x16e>
    a270:	0405                	addi	s0,s0,1
    a272:	d202                	sw	zero,36(sp)
    a274:	4681                	li	a3,0
    a276:	4781                	li	a5,0
    a278:	4625                	li	a2,9
    a27a:	2018                	lbu	a4,0(s0)
    a27c:	00140593          	addi	a1,s0,1
    a280:	fd070713          	addi	a4,a4,-48
    a284:	06e67663          	bgeu	a2,a4,a2f0 <_svfiprintf_r+0x210>
    a288:	f2f9                	bnez	a3,a24e <_svfiprintf_r+0x16e>
    a28a:	200c                	lbu	a1,0(s0)
    a28c:	460d                	li	a2,3
    a28e:	00002517          	auipc	a0,0x2
    a292:	43250513          	addi	a0,a0,1074 # c6c0 <__clz_tab+0x148>
    a296:	cadff0ef          	jal	ra,9f42 <memchr>
    a29a:	cd11                	beqz	a0,a2b6 <_svfiprintf_r+0x1d6>
    a29c:	00002797          	auipc	a5,0x2
    a2a0:	42478793          	addi	a5,a5,1060 # c6c0 <__clz_tab+0x148>
    a2a4:	8d1d                	sub	a0,a0,a5
    a2a6:	04000793          	li	a5,64
    a2aa:	00a797b3          	sll	a5,a5,a0
    a2ae:	5502                	lw	a0,32(sp)
    a2b0:	0405                	addi	s0,s0,1
    a2b2:	8d5d                	or	a0,a0,a5
    a2b4:	d02a                	sw	a0,32(sp)
    a2b6:	200c                	lbu	a1,0(s0)
    a2b8:	4619                	li	a2,6
    a2ba:	00002517          	auipc	a0,0x2
    a2be:	40a50513          	addi	a0,a0,1034 # c6c4 <__clz_tab+0x14c>
    a2c2:	00140493          	addi	s1,s0,1
    a2c6:	02b10c23          	sb	a1,56(sp)
    a2ca:	c79ff0ef          	jal	ra,9f42 <memchr>
    a2ce:	c525                	beqz	a0,a336 <_svfiprintf_r+0x256>
    a2d0:	ffff6797          	auipc	a5,0xffff6
    a2d4:	d3078793          	addi	a5,a5,-720 # 0 <_sinit>
    a2d8:	e795                	bnez	a5,a304 <_svfiprintf_r+0x224>
    a2da:	5702                	lw	a4,32(sp)
    a2dc:	47f2                	lw	a5,28(sp)
    a2de:	10077713          	andi	a4,a4,256
    a2e2:	cf09                	beqz	a4,a2fc <_svfiprintf_r+0x21c>
    a2e4:	0791                	addi	a5,a5,4
    a2e6:	ce3e                	sw	a5,28(sp)
    a2e8:	57d2                	lw	a5,52(sp)
    a2ea:	97d2                	add	a5,a5,s4
    a2ec:	da3e                	sw	a5,52(sp)
    a2ee:	b541                	j	a16e <_svfiprintf_r+0x8e>
    a2f0:	036787b3          	mul	a5,a5,s6
    a2f4:	4685                	li	a3,1
    a2f6:	842e                	mv	s0,a1
    a2f8:	97ba                	add	a5,a5,a4
    a2fa:	b741                	j	a27a <_svfiprintf_r+0x19a>
    a2fc:	079d                	addi	a5,a5,7
    a2fe:	9be1                	andi	a5,a5,-8
    a300:	07a1                	addi	a5,a5,8
    a302:	b7d5                	j	a2e6 <_svfiprintf_r+0x206>
    a304:	0878                	addi	a4,sp,28
    a306:	00000697          	auipc	a3,0x0
    a30a:	cf668693          	addi	a3,a3,-778 # 9ffc <__ssputs_r>
    a30e:	864a                	mv	a2,s2
    a310:	100c                	addi	a1,sp,32
    a312:	854e                	mv	a0,s3
    a314:	00000097          	auipc	ra,0x0
    a318:	000000e7          	jalr	zero # 0 <_sinit>
    a31c:	57fd                	li	a5,-1
    a31e:	8a2a                	mv	s4,a0
    a320:	fcf514e3          	bne	a0,a5,a2e8 <_svfiprintf_r+0x208>
    a324:	00c95783          	lhu	a5,12(s2)
    a328:	557d                	li	a0,-1
    a32a:	0407f793          	andi	a5,a5,64
    a32e:	de079de3          	bnez	a5,a128 <_svfiprintf_r+0x48>
    a332:	5552                	lw	a0,52(sp)
    a334:	bbd5                	j	a128 <_svfiprintf_r+0x48>
    a336:	0878                	addi	a4,sp,28
    a338:	00000697          	auipc	a3,0x0
    a33c:	cc468693          	addi	a3,a3,-828 # 9ffc <__ssputs_r>
    a340:	864a                	mv	a2,s2
    a342:	100c                	addi	a1,sp,32
    a344:	854e                	mv	a0,s3
    a346:	90cff0ef          	jal	ra,9452 <_printf_i>
    a34a:	bfc9                	j	a31c <_svfiprintf_r+0x23c>

0000a34c <_raise_r>:
    a34c:	47fd                	li	a5,31
    a34e:	00b7f663          	bgeu	a5,a1,a35a <_raise_r+0xe>
    a352:	47d9                	li	a5,22
    a354:	c11c                	sw	a5,0(a0)
    a356:	557d                	li	a0,-1
    a358:	8082                	ret
    a35a:	417c                	lw	a5,68(a0)
    a35c:	1101                	addi	sp,sp,-32
    a35e:	cc22                	sw	s0,24(sp)
    a360:	ce06                	sw	ra,28(sp)
    a362:	862e                	mv	a2,a1
    a364:	842a                	mv	s0,a0
    a366:	c791                	beqz	a5,a372 <_raise_r+0x26>
    a368:	00259713          	slli	a4,a1,0x2
    a36c:	97ba                	add	a5,a5,a4
    a36e:	4398                	lw	a4,0(a5)
    a370:	eb19                	bnez	a4,a386 <_raise_r+0x3a>
    a372:	8522                	mv	a0,s0
    a374:	c632                	sw	a2,12(sp)
    a376:	289d                	jal	a3ec <_getpid_r>
    a378:	85aa                	mv	a1,a0
    a37a:	8522                	mv	a0,s0
    a37c:	4462                	lw	s0,24(sp)
    a37e:	4632                	lw	a2,12(sp)
    a380:	40f2                	lw	ra,28(sp)
    a382:	6105                	addi	sp,sp,32
    a384:	a81d                	j	a3ba <_kill_r>
    a386:	4685                	li	a3,1
    a388:	4501                	li	a0,0
    a38a:	00d70863          	beq	a4,a3,a39a <_raise_r+0x4e>
    a38e:	56fd                	li	a3,-1
    a390:	00d71963          	bne	a4,a3,a3a2 <_raise_r+0x56>
    a394:	47d9                	li	a5,22
    a396:	c01c                	sw	a5,0(s0)
    a398:	4505                	li	a0,1
    a39a:	40f2                	lw	ra,28(sp)
    a39c:	4462                	lw	s0,24(sp)
    a39e:	6105                	addi	sp,sp,32
    a3a0:	8082                	ret
    a3a2:	852e                	mv	a0,a1
    a3a4:	0007a023          	sw	zero,0(a5)
    a3a8:	9702                	jalr	a4
    a3aa:	4501                	li	a0,0
    a3ac:	b7fd                	j	a39a <_raise_r+0x4e>

0000a3ae <raise>:
    a3ae:	81018793          	addi	a5,gp,-2032 # 200000d0 <_impure_ptr>
    a3b2:	85aa                	mv	a1,a0
    a3b4:	4388                	lw	a0,0(a5)
    a3b6:	f97ff06f          	j	a34c <_raise_r>

0000a3ba <_kill_r>:
    a3ba:	1141                	addi	sp,sp,-16
    a3bc:	c422                	sw	s0,8(sp)
    a3be:	842a                	mv	s0,a0
    a3c0:	852e                	mv	a0,a1
    a3c2:	85b2                	mv	a1,a2
    a3c4:	1fff8797          	auipc	a5,0x1fff8
    a3c8:	e407ac23          	sw	zero,-424(a5) # 2000221c <errno>
    a3cc:	c606                	sw	ra,12(sp)
    a3ce:	24b9                	jal	a61c <_kill>
    a3d0:	57fd                	li	a5,-1
    a3d2:	00f51963          	bne	a0,a5,a3e4 <_kill_r+0x2a>
    a3d6:	1fff8797          	auipc	a5,0x1fff8
    a3da:	e4678793          	addi	a5,a5,-442 # 2000221c <errno>
    a3de:	439c                	lw	a5,0(a5)
    a3e0:	c391                	beqz	a5,a3e4 <_kill_r+0x2a>
    a3e2:	c01c                	sw	a5,0(s0)
    a3e4:	40b2                	lw	ra,12(sp)
    a3e6:	4422                	lw	s0,8(sp)
    a3e8:	0141                	addi	sp,sp,16
    a3ea:	8082                	ret

0000a3ec <_getpid_r>:
    a3ec:	ac01                	j	a5fc <_getpid>

0000a3ee <__sread>:
    a3ee:	1141                	addi	sp,sp,-16
    a3f0:	c422                	sw	s0,8(sp)
    a3f2:	842e                	mv	s0,a1
    a3f4:	00e59583          	lh	a1,14(a1)
    a3f8:	c606                	sw	ra,12(sp)
    a3fa:	227d                	jal	a5a8 <_read_r>
    a3fc:	00054963          	bltz	a0,a40e <__sread+0x20>
    a400:	487c                	lw	a5,84(s0)
    a402:	97aa                	add	a5,a5,a0
    a404:	c87c                	sw	a5,84(s0)
    a406:	40b2                	lw	ra,12(sp)
    a408:	4422                	lw	s0,8(sp)
    a40a:	0141                	addi	sp,sp,16
    a40c:	8082                	ret
    a40e:	245e                	lhu	a5,12(s0)
    a410:	777d                	lui	a4,0xfffff
    a412:	177d                	addi	a4,a4,-1
    a414:	8ff9                	and	a5,a5,a4
    a416:	a45e                	sh	a5,12(s0)
    a418:	b7fd                	j	a406 <__sread+0x18>

0000a41a <__swrite>:
    a41a:	25de                	lhu	a5,12(a1)
    a41c:	1101                	addi	sp,sp,-32
    a41e:	cc22                	sw	s0,24(sp)
    a420:	ca26                	sw	s1,20(sp)
    a422:	c84a                	sw	s2,16(sp)
    a424:	c64e                	sw	s3,12(sp)
    a426:	ce06                	sw	ra,28(sp)
    a428:	1007f793          	andi	a5,a5,256
    a42c:	84aa                	mv	s1,a0
    a42e:	842e                	mv	s0,a1
    a430:	8932                	mv	s2,a2
    a432:	89b6                	mv	s3,a3
    a434:	c791                	beqz	a5,a440 <__swrite+0x26>
    a436:	00e59583          	lh	a1,14(a1)
    a43a:	4689                	li	a3,2
    a43c:	4601                	li	a2,0
    a43e:	220d                	jal	a560 <_lseek_r>
    a440:	245e                	lhu	a5,12(s0)
    a442:	777d                	lui	a4,0xfffff
    a444:	177d                	addi	a4,a4,-1
    a446:	8ff9                	and	a5,a5,a4
    a448:	a45e                	sh	a5,12(s0)
    a44a:	00e41583          	lh	a1,14(s0)
    a44e:	4462                	lw	s0,24(sp)
    a450:	40f2                	lw	ra,28(sp)
    a452:	86ce                	mv	a3,s3
    a454:	864a                	mv	a2,s2
    a456:	49b2                	lw	s3,12(sp)
    a458:	4942                	lw	s2,16(sp)
    a45a:	8526                	mv	a0,s1
    a45c:	44d2                	lw	s1,20(sp)
    a45e:	6105                	addi	sp,sp,32
    a460:	a825                	j	a498 <_write_r>

0000a462 <__sseek>:
    a462:	1141                	addi	sp,sp,-16
    a464:	c422                	sw	s0,8(sp)
    a466:	842e                	mv	s0,a1
    a468:	00e59583          	lh	a1,14(a1)
    a46c:	c606                	sw	ra,12(sp)
    a46e:	28cd                	jal	a560 <_lseek_r>
    a470:	57fd                	li	a5,-1
    a472:	245a                	lhu	a4,12(s0)
    a474:	00f51a63          	bne	a0,a5,a488 <__sseek+0x26>
    a478:	77fd                	lui	a5,0xfffff
    a47a:	17fd                	addi	a5,a5,-1
    a47c:	8ff9                	and	a5,a5,a4
    a47e:	a45e                	sh	a5,12(s0)
    a480:	40b2                	lw	ra,12(sp)
    a482:	4422                	lw	s0,8(sp)
    a484:	0141                	addi	sp,sp,16
    a486:	8082                	ret
    a488:	6785                	lui	a5,0x1
    a48a:	8fd9                	or	a5,a5,a4
    a48c:	a45e                	sh	a5,12(s0)
    a48e:	c868                	sw	a0,84(s0)
    a490:	bfc5                	j	a480 <__sseek+0x1e>

0000a492 <__sclose>:
    a492:	00e59583          	lh	a1,14(a1)
    a496:	a825                	j	a4ce <_close_r>

0000a498 <_write_r>:
    a498:	1141                	addi	sp,sp,-16
    a49a:	c422                	sw	s0,8(sp)
    a49c:	842a                	mv	s0,a0
    a49e:	852e                	mv	a0,a1
    a4a0:	85b2                	mv	a1,a2
    a4a2:	8636                	mv	a2,a3
    a4a4:	1fff8797          	auipc	a5,0x1fff8
    a4a8:	d607ac23          	sw	zero,-648(a5) # 2000221c <errno>
    a4ac:	c606                	sw	ra,12(sp)
    a4ae:	93bfb0ef          	jal	ra,5de8 <_write>
    a4b2:	57fd                	li	a5,-1
    a4b4:	00f51963          	bne	a0,a5,a4c6 <_write_r+0x2e>
    a4b8:	1fff8797          	auipc	a5,0x1fff8
    a4bc:	d6478793          	addi	a5,a5,-668 # 2000221c <errno>
    a4c0:	439c                	lw	a5,0(a5)
    a4c2:	c391                	beqz	a5,a4c6 <_write_r+0x2e>
    a4c4:	c01c                	sw	a5,0(s0)
    a4c6:	40b2                	lw	ra,12(sp)
    a4c8:	4422                	lw	s0,8(sp)
    a4ca:	0141                	addi	sp,sp,16
    a4cc:	8082                	ret

0000a4ce <_close_r>:
    a4ce:	1141                	addi	sp,sp,-16
    a4d0:	c422                	sw	s0,8(sp)
    a4d2:	842a                	mv	s0,a0
    a4d4:	852e                	mv	a0,a1
    a4d6:	1fff8797          	auipc	a5,0x1fff8
    a4da:	d407a323          	sw	zero,-698(a5) # 2000221c <errno>
    a4de:	c606                	sw	ra,12(sp)
    a4e0:	28f5                	jal	a5dc <_close>
    a4e2:	57fd                	li	a5,-1
    a4e4:	00f51963          	bne	a0,a5,a4f6 <_close_r+0x28>
    a4e8:	1fff8797          	auipc	a5,0x1fff8
    a4ec:	d3478793          	addi	a5,a5,-716 # 2000221c <errno>
    a4f0:	439c                	lw	a5,0(a5)
    a4f2:	c391                	beqz	a5,a4f6 <_close_r+0x28>
    a4f4:	c01c                	sw	a5,0(s0)
    a4f6:	40b2                	lw	ra,12(sp)
    a4f8:	4422                	lw	s0,8(sp)
    a4fa:	0141                	addi	sp,sp,16
    a4fc:	8082                	ret

0000a4fe <_fstat_r>:
    a4fe:	1141                	addi	sp,sp,-16
    a500:	c422                	sw	s0,8(sp)
    a502:	842a                	mv	s0,a0
    a504:	852e                	mv	a0,a1
    a506:	85b2                	mv	a1,a2
    a508:	1fff8797          	auipc	a5,0x1fff8
    a50c:	d007aa23          	sw	zero,-748(a5) # 2000221c <errno>
    a510:	c606                	sw	ra,12(sp)
    a512:	28e9                	jal	a5ec <_fstat>
    a514:	57fd                	li	a5,-1
    a516:	00f51963          	bne	a0,a5,a528 <_fstat_r+0x2a>
    a51a:	1fff8797          	auipc	a5,0x1fff8
    a51e:	d0278793          	addi	a5,a5,-766 # 2000221c <errno>
    a522:	439c                	lw	a5,0(a5)
    a524:	c391                	beqz	a5,a528 <_fstat_r+0x2a>
    a526:	c01c                	sw	a5,0(s0)
    a528:	40b2                	lw	ra,12(sp)
    a52a:	4422                	lw	s0,8(sp)
    a52c:	0141                	addi	sp,sp,16
    a52e:	8082                	ret

0000a530 <_isatty_r>:
    a530:	1141                	addi	sp,sp,-16
    a532:	c422                	sw	s0,8(sp)
    a534:	842a                	mv	s0,a0
    a536:	852e                	mv	a0,a1
    a538:	1fff8797          	auipc	a5,0x1fff8
    a53c:	ce07a223          	sw	zero,-796(a5) # 2000221c <errno>
    a540:	c606                	sw	ra,12(sp)
    a542:	20e9                	jal	a60c <_isatty>
    a544:	57fd                	li	a5,-1
    a546:	00f51963          	bne	a0,a5,a558 <_isatty_r+0x28>
    a54a:	1fff8797          	auipc	a5,0x1fff8
    a54e:	cd278793          	addi	a5,a5,-814 # 2000221c <errno>
    a552:	439c                	lw	a5,0(a5)
    a554:	c391                	beqz	a5,a558 <_isatty_r+0x28>
    a556:	c01c                	sw	a5,0(s0)
    a558:	40b2                	lw	ra,12(sp)
    a55a:	4422                	lw	s0,8(sp)
    a55c:	0141                	addi	sp,sp,16
    a55e:	8082                	ret

0000a560 <_lseek_r>:
    a560:	1141                	addi	sp,sp,-16
    a562:	c422                	sw	s0,8(sp)
    a564:	842a                	mv	s0,a0
    a566:	852e                	mv	a0,a1
    a568:	85b2                	mv	a1,a2
    a56a:	8636                	mv	a2,a3
    a56c:	1fff8797          	auipc	a5,0x1fff8
    a570:	ca07a823          	sw	zero,-848(a5) # 2000221c <errno>
    a574:	c606                	sw	ra,12(sp)
    a576:	285d                	jal	a62c <_lseek>
    a578:	57fd                	li	a5,-1
    a57a:	00f51963          	bne	a0,a5,a58c <_lseek_r+0x2c>
    a57e:	1fff8797          	auipc	a5,0x1fff8
    a582:	c9e78793          	addi	a5,a5,-866 # 2000221c <errno>
    a586:	439c                	lw	a5,0(a5)
    a588:	c391                	beqz	a5,a58c <_lseek_r+0x2c>
    a58a:	c01c                	sw	a5,0(s0)
    a58c:	40b2                	lw	ra,12(sp)
    a58e:	4422                	lw	s0,8(sp)
    a590:	0141                	addi	sp,sp,16
    a592:	8082                	ret

0000a594 <_malloc_usable_size_r>:
    a594:	ffc5a783          	lw	a5,-4(a1)
    a598:	ffc78513          	addi	a0,a5,-4
    a59c:	0007d563          	bgez	a5,a5a6 <_malloc_usable_size_r+0x12>
    a5a0:	95aa                	add	a1,a1,a0
    a5a2:	419c                	lw	a5,0(a1)
    a5a4:	953e                	add	a0,a0,a5
    a5a6:	8082                	ret

0000a5a8 <_read_r>:
    a5a8:	1141                	addi	sp,sp,-16
    a5aa:	c422                	sw	s0,8(sp)
    a5ac:	842a                	mv	s0,a0
    a5ae:	852e                	mv	a0,a1
    a5b0:	85b2                	mv	a1,a2
    a5b2:	8636                	mv	a2,a3
    a5b4:	1fff8797          	auipc	a5,0x1fff8
    a5b8:	c607a423          	sw	zero,-920(a5) # 2000221c <errno>
    a5bc:	c606                	sw	ra,12(sp)
    a5be:	28bd                	jal	a63c <_read>
    a5c0:	57fd                	li	a5,-1
    a5c2:	00f51963          	bne	a0,a5,a5d4 <_read_r+0x2c>
    a5c6:	1fff8797          	auipc	a5,0x1fff8
    a5ca:	c5678793          	addi	a5,a5,-938 # 2000221c <errno>
    a5ce:	439c                	lw	a5,0(a5)
    a5d0:	c391                	beqz	a5,a5d4 <_read_r+0x2c>
    a5d2:	c01c                	sw	a5,0(s0)
    a5d4:	40b2                	lw	ra,12(sp)
    a5d6:	4422                	lw	s0,8(sp)
    a5d8:	0141                	addi	sp,sp,16
    a5da:	8082                	ret

0000a5dc <_close>:
    a5dc:	05800793          	li	a5,88
    a5e0:	1fff8717          	auipc	a4,0x1fff8
    a5e4:	c2f72e23          	sw	a5,-964(a4) # 2000221c <errno>
    a5e8:	557d                	li	a0,-1
    a5ea:	8082                	ret

0000a5ec <_fstat>:
    a5ec:	05800793          	li	a5,88
    a5f0:	1fff8717          	auipc	a4,0x1fff8
    a5f4:	c2f72623          	sw	a5,-980(a4) # 2000221c <errno>
    a5f8:	557d                	li	a0,-1
    a5fa:	8082                	ret

0000a5fc <_getpid>:
    a5fc:	05800793          	li	a5,88
    a600:	1fff8717          	auipc	a4,0x1fff8
    a604:	c0f72e23          	sw	a5,-996(a4) # 2000221c <errno>
    a608:	557d                	li	a0,-1
    a60a:	8082                	ret

0000a60c <_isatty>:
    a60c:	05800793          	li	a5,88
    a610:	1fff8717          	auipc	a4,0x1fff8
    a614:	c0f72623          	sw	a5,-1012(a4) # 2000221c <errno>
    a618:	4501                	li	a0,0
    a61a:	8082                	ret

0000a61c <_kill>:
    a61c:	05800793          	li	a5,88
    a620:	1fff8717          	auipc	a4,0x1fff8
    a624:	bef72e23          	sw	a5,-1028(a4) # 2000221c <errno>
    a628:	557d                	li	a0,-1
    a62a:	8082                	ret

0000a62c <_lseek>:
    a62c:	05800793          	li	a5,88
    a630:	1fff8717          	auipc	a4,0x1fff8
    a634:	bef72623          	sw	a5,-1044(a4) # 2000221c <errno>
    a638:	557d                	li	a0,-1
    a63a:	8082                	ret

0000a63c <_read>:
    a63c:	05800793          	li	a5,88
    a640:	1fff8717          	auipc	a4,0x1fff8
    a644:	bcf72e23          	sw	a5,-1060(a4) # 2000221c <errno>
    a648:	557d                	li	a0,-1
    a64a:	8082                	ret

0000a64c <_exit>:
    a64c:	a001                	j	a64c <_exit>
    a64e:	0000                	unimp
    a650:	ffff                	0xffff
    a652:	ffff                	0xffff
    a654:	ffff                	0xffff
    a656:	ffff                	0xffff
    a658:	0001                	nop
    a65a:	0000                	unimp
    a65c:	0001                	nop
    a65e:	0000                	unimp
    a660:	3e3e                	lhu	a5,58(a2)
    a662:	203e                	lhu	a5,2(s0)
    a664:	caa8b65b          	0xcaa8b65b
    a668:	c6b1                	beqz	a3,a6b4 <_exit+0x68>
    a66a:	b2ecd2f7          	0xb2ecd2f7
    a66e:	cabd                	beqz	a3,a6e4 <_exit+0x98>
    a670:	bcc2                	sh	s0,60(s1)
    a672:	5dfe                	lw	s11,252(sp)
    a674:	3320                	lbu	s0,3(a4)
    a676:	b1caebc3          	fmadd.s	fs7,fs5,ft8,fs6,unknown
    a67a:	e4bc                	fsw	fa5,72(s1)
    a67c:	bdb5                	j	a4f8 <_close_r+0x2a>
    a67e:	d1d2a1a3          	sw	t4,-765(t0)
    a682:	afb6d4d7          	0xafb6d4d7
    a686:	d8b9                	beqz	s1,a5dc <_close>
    a688:	d5b1                	beqz	a1,a5d4 <_read_r+0x2c>
    a68a:	d9c1                	beqz	a1,a61a <_isatty+0xe>
    a68c:	b1ca                	sh	a0,36(a1)
    a68e:	afbe                	sh	a5,26(a5)
    a690:	a8b1                	j	a6ec <_exit+0xa0>
    a692:	c6b5                	beqz	a3,a6fe <_exit+0xb2>
    a694:	a3a1                	j	abdc <cfg+0x1a8>
    a696:	3c20                	lbu	s0,27(s0)
    a698:	3c3c                	lbu	a5,27(s0)
    a69a:	000d                	c.nop	3
    a69c:	0a0d                	addi	s4,s4,3
    a69e:	3d3d                	jal	a4dc <_close_r+0xe>
    a6a0:	3d3d                	jal	a4de <_close_r+0x10>
    a6a2:	3d3d                	jal	a4e0 <_close_r+0x12>
    a6a4:	3d3d                	jal	a4e2 <_close_r+0x14>
    a6a6:	3d3d                	jal	a4e4 <_close_r+0x16>
    a6a8:	3d3d                	jal	a4e6 <_close_r+0x18>
    a6aa:	3d3d                	jal	a4e8 <_close_r+0x1a>
    a6ac:	3d3d                	jal	a4ea <_close_r+0x1c>
    a6ae:	3d3d                	jal	a4ec <_close_r+0x1e>
    a6b0:	3d3d                	jal	a4ee <_close_r+0x20>
    a6b2:	3d3d                	jal	a4f0 <_close_r+0x22>
    a6b4:	3d3d                	jal	a4f2 <_close_r+0x24>
    a6b6:	3d3d                	jal	a4f4 <_close_r+0x26>
    a6b8:	3d3d                	jal	a4f6 <_close_r+0x28>
    a6ba:	3d3d                	jal	a4f8 <_close_r+0x2a>
    a6bc:	3d3d                	jal	a4fa <_close_r+0x2c>
    a6be:	000d                	c.nop	3
    a6c0:	2020                	lbu	s0,2(s0)
    a6c2:	2020                	lbu	s0,2(s0)
    a6c4:	5320                	lw	s0,96(a4)
    a6c6:	616d                	addi	sp,sp,240
    a6c8:	7472                	flw	fs0,60(sp)
    a6ca:	6f48                	flw	fa0,28(a4)
    a6cc:	656d                	lui	a0,0x1b
    a6ce:	c620534f          	fnmadd.q	ft6,ft0,ft2,fs8,unknown
    a6d2:	b6f4                	sb	a3,15(a3)
    a6d4:	2ed0d6af          	0x2ed0d6af
    a6d8:	2e2e                	lhu	a1,26(a2)
    a6da:	2020                	lbu	s0,2(s0)
    a6dc:	2020                	lbu	s0,2(s0)
    a6de:	2020                	lbu	s0,2(s0)
    a6e0:	000d                	c.nop	3
    a6e2:	0000                	unimp
    a6e4:	bdcc                	sb	a1,29(a1)
    a6e6:	e2b2                	fsw	fa2,68(sp)
    a6e8:	bdb5                	j	a564 <_lseek_r+0x4>
    a6ea:	5320                	lw	s0,96(a4)
    a6ec:	4950                	lw	a2,20(a0)
    a6ee:	4620                	lw	s0,72(a2)
    a6f0:	616c                	flw	fa1,68(a0)
    a6f2:	49206873          	csrrsi	a6,0x492,0
    a6f6:	3a44                	lbu	s1,21(a2)
    a6f8:	3020                	lbu	s0,3(s0)
    a6fa:	2578                	lbu	a4,14(a0)
    a6fc:	3430                	lbu	a2,11(s0)
    a6fe:	0d58                	addi	a4,sp,660
    a700:	000a                	c.slli	zero,0x2
    a702:	0000                	unimp
    a704:	febcb2d3          	0xfebcb2d3
    a708:	afb6fdc7          	fmsub.q	fs11,fa3,fs11,fs5
    a70c:	e8c9ebd3          	0xe8c9ebd3
    a710:	b8b1                	j	9f6c <memmove+0x12>
    a712:	dabd                	beqz	a3,a688 <_exit+0x3c>
    a714:	e3b5                	bnez	a5,a778 <_exit+0x12c>
    a716:	d2b9                	beqz	a3,a65c <_exit+0x10>
    a718:	d8d4                	sw	a3,52(s1)
    a71a:	eacd                	bnez	a3,a7cc <_exit+0x180>
    a71c:	a3a1c9b3          	0xa3a1c9b3
    a720:	000d                	c.nop	3
    a722:	0000                	unimp
    a724:	b3cdb5cf          	fnmadd.d	fa1,fs11,ft8,fs6,rup
    a728:	cec8                	sw	a0,28(a3)
    a72a:	f1ce                	fsw	fs3,224(sp)
    a72c:	b4b4                	sb	a3,11(s1)
    a72e:	a8bd                	j	a7ac <_exit+0x160>
    a730:	eacd                	bnez	a3,a7e2 <_exit+0x196>
    a732:	cfb1                	beqz	a5,a78e <_exit+0x142>
    a734:	d3bdaca3          	sw	s11,-711(s11)
    a738:	dcb9                	beqz	s1,a696 <_exit+0x4a>
    a73a:	4320                	lw	s0,64(a4)
    a73c:	5550                	lw	a2,44(a0)
    a73e:	bf20                	sb	s0,27(a4)
    a740:	d6d8                	sw	a4,44(a3)
    a742:	c8c6                	sw	a7,80(sp)
    a744:	2ea8                	lbu	a0,26(a3)
    a746:	2e2e                	lhu	a1,26(a2)
    a748:	000d                	c.nop	3
    a74a:	0000                	unimp
    a74c:	0000                	unimp
    a74e:	42c8                	lw	a0,4(a3)
    a750:	736e6573          	csrrsi	a0,0x736,28
    a754:	745f726f          	jal	tp,102698 <_data_lma+0xf5f44>
    a758:	6d65                	lui	s10,0x19
    a75a:	0070                	addi	a2,sp,12
    a75c:	7361545b          	0x7361545b
    a760:	5d31206b          	0x5d31206b
    a764:	ce20                	sw	s0,88(a2)
    a766:	ceedc0ef          	jal	ra,fffe6c54 <_eusrstack+0xdffdec54>
    a76a:	b6c2                	sh	s0,44(a3)
    a76c:	b8c8                	sb	a0,21(s1)
    a76e:	d0fc                	sw	a5,100(s1)
    a770:	d6c2                	sw	a6,108(sp)
    a772:	d3c1                	beqz	a5,a6f2 <_exit+0xa6>
    a774:	d7b0                	sw	a2,104(a5)
    a776:	25203ad3          	0x25203ad3
    a77a:	2e64                	lbu	s1,30(a2)
    a77c:	3025                	jal	9fa4 <_realloc_r>
    a77e:	6432                	flw	fs0,12(sp)
    a780:	a120                	sb	s0,2(a0)
    a782:	0de6                	slli	s11,s11,0x19
    a784:	000a                	c.slli	zero,0x2
    a786:	0000                	unimp
    a788:	736e6573          	csrrsi	a0,0x736,28
    a78c:	6c5f726f          	jal	tp,102650 <_data_lma+0xf5efc>
    a790:	6769                	lui	a4,0x1a
    a792:	7468                	flw	fa0,108(s0)
    a794:	0000                	unimp
    a796:	0000                	unimp
    a798:	0000                	unimp
    a79a:	41e0                	lw	s0,68(a1)
    a79c:	6c61                	lui	s8,0x18
    a79e:	7261                	lui	tp,0xffff8
    a7a0:	5f6d                	li	t5,-5
    a7a2:	656c                	flw	fa1,76(a0)
    a7a4:	0064                	addi	s1,sp,12
    a7a6:	0000                	unimp
    a7a8:	656c                	flw	fa1,76(a0)
    a7aa:	5f64                	lw	s1,124(a4)
    a7ac:	7561                	lui	a0,0xffff8
    a7ae:	6f74                	flw	fa3,92(a4)
    a7b0:	6f5f 6666 0000      	0x66666f5f
    a7b6:	0000                	unimp
    a7b8:	3e3e                	lhu	a5,58(a2)
    a7ba:	203e                	lhu	a5,2(s0)
    a7bc:	7361545b          	0x7361545b
    a7c0:	2033206b          	0x2033206b
    a7c4:	f6be                	fsw	fa5,108(sp)
    a7c6:	dfb2                	sw	a2,252(sp)
    a7c8:	205d                	jal	a86e <_exit+0x222>
    a7ca:	ecbc                	fsw	fa5,88(s1)
    a7cc:	e2b2                	fsw	fa2,68(sp)
    a7ce:	bdb5                	j	a64a <_read+0xe>
    a7d0:	c2ceacb3          	0xc2ceacb3
    a7d4:	a2c1a1a3          	sw	a2,-1501(gp) # 200002e3 <stack_memory_pool+0xf3>
    a7d8:	aabfccbf afbef4c6 	0xafbef4c6aabfccbf
    a7e0:	a8b1                	j	a83c <_exit+0x1f0>
    a7e2:	c333aca3          	sw	s3,-967(t2)
    a7e6:	d7f3baeb          	0xd7f3baeb
    a7ea:	b6d4                	sb	a3,13(a3)
    a7ec:	d2b2beaf          	0xd2b2beaf
    a7f0:	2ef4                	lbu	a3,30(a3)
    a7f2:	2e2e                	lhu	a1,26(a2)
    a7f4:	3c20                	lbu	s0,27(s0)
    a7f6:	3c3c                	lbu	a5,27(s0)
    a7f8:	000d                	c.nop	3
    a7fa:	0000                	unimp
    a7fc:	3e3e                	lhu	a5,58(a2)
    a7fe:	203e                	lhu	a5,2(s0)
    a800:	7361545b          	0x7361545b
    a804:	2033206b          	0x2033206b
    a808:	f6be                	fsw	fa5,108(sp)
    a80a:	dfb2                	sw	a2,252(sp)
    a80c:	205d                	jal	a8b2 <_exit+0x266>
    a80e:	c2ce                	sw	s3,68(sp)
    a810:	c8b6                	sw	a3,80(sp)
    a812:	d1d2                	sw	s4,224(sp)
    a814:	d7b5b9b3          	0xd7b5b9b3
    a818:	b4b8d6bb          	0xb4b8d6bb
    a81c:	fdd5                	bnez	a1,a7d8 <_exit+0x18c>
    a81e:	aca3a3b3          	0xaca3a3b3
    a822:	afbe                	sh	a5,26(a5)
    a824:	a8b1                	j	a880 <_exit+0x234>
    a826:	b3cdb5cf          	fnmadd.d	fa1,fs11,ft8,fs6,rup
    a82a:	d8d6                	sw	s5,112(sp)
    a82c:	c3d6                	sw	s5,196(sp)
    a82e:	fdb4                	fsw	fa3,120(a1)
    a830:	a3a1fcc3          	fmadd.d	fs9,ft3,fs10,fs4
    a834:	3c20                	lbu	s0,27(s0)
    a836:	3c3c                	lbu	a5,27(s0)
    a838:	000d                	c.nop	3
    a83a:	0000                	unimp
    a83c:	0000                	unimp
    a83e:	4120                	lw	s0,64(a0)
    a840:	21204e4f          	fnmadd.s	ft8,ft0,fs2,ft4,rmm
    a844:	2121                	jal	ac4c <cfg+0x218>
    a846:	0000                	unimp
    a848:	0046464f          	fnmadd.s	fa2,fa2,ft4,ft0,rmm
    a84c:	6964                	flw	fs1,84(a0)
    a84e:	616c7073          	csrci	0x616,24
    a852:	5f79                	li	t5,-2
    a854:	64656c6f          	jal	s8,60e9a <_data_lma+0x54746>
    a858:	0000                	unimp
    a85a:	0000                	unimp
    a85c:	2d2d                	jal	ae96 <F6x8+0x216>
    a85e:	202d                	jal	a888 <_exit+0x23c>
    a860:	72616d53          	0x72616d53
    a864:	4874                	lw	a3,84(s0)
    a866:	20656d6f          	jal	s10,60a6c <_data_lma+0x54318>
    a86a:	2d2d                	jal	aea4 <F6x8+0x224>
    a86c:	0a2d                	addi	s4,s4,11
    a86e:	6554                	flw	fa3,12(a0)
    a870:	706d                	c.lui	zero,0xffffb
    a872:	3a20                	lbu	s0,19(a2)
    a874:	2520                	lbu	s0,10(a0)
    a876:	2e64                	lbu	s1,30(a2)
    a878:	6425                	lui	s0,0x9
    a87a:	4320                	lw	s0,64(a4)
    a87c:	4c0a                	lw	s8,128(sp)
    a87e:	6769                	lui	a4,0x1a
    a880:	7468                	flw	fa0,108(s0)
    a882:	203a                	lhu	a4,2(s0)
    a884:	6425                	lui	s0,0x9
    a886:	6d20                	flw	fs0,88(a0)
    a888:	0a56                	slli	s4,s4,0x15
    a88a:	6c41                	lui	s8,0x10
    a88c:	7261                	lui	tp,0xffff8
    a88e:	3a6d                	jal	a248 <_svfiprintf_r+0x168>
    a890:	2520                	lbu	s0,10(a0)
    a892:	00000a73          	0xa73
    a896:	0000                	unimp
    a898:	0a0d                	addi	s4,s4,3
    a89a:	2d2d                	jal	aed4 <F8X16+0x2c>
    a89c:	202d                	jal	a8c6 <_exit+0x27a>
    a89e:	c4ce                	sw	s3,72(sp)
    a8a0:	febc                	fsw	fa5,120(a3)
    a8a2:	b3cdb5cf          	fnmadd.d	fa1,fs11,ft8,fs6,rup
    a8a6:	c3bed6b3          	0xc3bed6b3
    a8aa:	e2b2afbb          	0xe2b2afbb
    a8ae:	d4ca                	sw	s2,104(sp)
    a8b0:	bccaaabf 2d2d2d20 	0x2d2d2d20bccaaabf
    a8b8:	000d                	c.nop	3
    a8ba:	0000                	unimp
    a8bc:	6f62                	flw	ft10,24(sp)
    a8be:	635f746f          	jal	s0,1026f2 <_data_lma+0xf5f9e>
    a8c2:	746e756f          	jal	a0,f2008 <_data_lma+0xe58b4>
    a8c6:	742e                	flw	fs0,232(sp)
    a8c8:	7478                	flw	fa4,108(s0)
    a8ca:	0000                	unimp
    a8cc:	2053465b          	0x2053465b
    a8d0:	e2b2                	fsw	fa2,68(sp)
    a8d2:	d4ca                	sw	s2,104(sp)
    a8d4:	205d                	jal	a97a <_exit+0x32e>
    a8d6:	f2b4                	fsw	fa3,96(a3)
    a8d8:	c4ceaabf a7cafebc 	0xa7cafebcc4ceaabf
    a8e0:	dcb0                	sw	a2,120(s1)
    a8e2:	edb4aca3          	sw	s11,-295(s1)
    a8e6:	f3ce                	fsw	fs3,228(sp)
    a8e8:	ebc2                	fsw	fa6,212(sp)
    a8ea:	6425baa3          	0x6425baa3
    a8ee:	0a0d                	addi	s4,s4,3
    a8f0:	0000                	unimp
    a8f2:	0000                	unimp
    a8f4:	3d3d                	jal	a732 <_exit+0xe6>
    a8f6:	3d3d                	jal	a734 <_exit+0xe8>
    a8f8:	3d3d                	jal	a736 <_exit+0xea>
    a8fa:	3d3d                	jal	a738 <_exit+0xec>
    a8fc:	3d3d                	jal	a73a <_exit+0xee>
    a8fe:	3d3d                	jal	a73c <_exit+0xf0>
    a900:	3d3d                	jal	a73e <_exit+0xf2>
    a902:	3d3d                	jal	a740 <_exit+0xf4>
    a904:	3d3d                	jal	a742 <_exit+0xf6>
    a906:	3d3d                	jal	a744 <_exit+0xf8>
    a908:	3d3d                	jal	a746 <_exit+0xfa>
    a90a:	3d3d                	jal	a748 <_exit+0xfc>
    a90c:	3d3d                	jal	a74a <_exit+0xfe>
    a90e:	3d3d                	jal	a74c <_exit+0x100>
    a910:	3d3d                	jal	a74e <_exit+0x102>
    a912:	3d3d                	jal	a750 <_exit+0x104>
    a914:	000d                	c.nop	3
    a916:	0000                	unimp
    a918:	3f20                	lbu	s0,27(a4)
    a91a:	5320                	lw	s0,96(a4)
    a91c:	616d                	addi	sp,sp,240
    a91e:	7472                	flw	fs0,60(sp)
    a920:	6f48                	flw	fa0,28(a4)
    a922:	656d                	lui	a0,0x1b
    a924:	c020534f          	fnmadd.s	ft6,ft0,ft2,fs8,unknown
    a928:	cafa                	sw	t5,84(sp)
    a92a:	b6f4c6b7          	lui	a3,0xb6f4c
    a92e:	b4dcd7af          	0xb4dcd7af
    a932:	cace                	sw	s3,84(sp)
    a934:	3afd                	jal	a332 <_svfiprintf_r+0x252>
    a936:	2520                	lbu	s0,10(a0)
    a938:	2064                	lbu	s1,6(s0)
    a93a:	0a0d                	addi	s4,s4,3
    a93c:	0000                	unimp
    a93e:	0000                	unimp
    a940:	3d3d                	jal	a77e <_exit+0x132>
    a942:	3d3d                	jal	a780 <_exit+0x134>
    a944:	3d3d                	jal	a782 <_exit+0x136>
    a946:	3d3d                	jal	a784 <_exit+0x138>
    a948:	3d3d                	jal	a786 <_exit+0x13a>
    a94a:	3d3d                	jal	a788 <_exit+0x13c>
    a94c:	3d3d                	jal	a78a <_exit+0x13e>
    a94e:	3d3d                	jal	a78c <_exit+0x140>
    a950:	3d3d                	jal	a78e <_exit+0x142>
    a952:	3d3d                	jal	a790 <_exit+0x144>
    a954:	3d3d                	jal	a792 <_exit+0x146>
    a956:	3d3d                	jal	a794 <_exit+0x148>
    a958:	3d3d                	jal	a796 <_exit+0x14a>
    a95a:	3d3d                	jal	a798 <_exit+0x14c>
    a95c:	3d3d                	jal	a79a <_exit+0x14e>
    a95e:	3d3d                	jal	a79c <_exit+0x150>
    a960:	0a0d                	addi	s4,s4,3
    a962:	000d                	c.nop	3
    a964:	4c41485b          	0x4c41485b
    a968:	205d                	jal	aa0e <temp_ops+0x22>
    a96a:	4441                	li	s0,16
    a96c:	6f432043          	fmadd.q	ft0,ft6,fs4,fa3,rdn
    a970:	6572                	flw	fa0,28(sp)
    a972:	6120                	flw	fs0,64(a0)
    a974:	646e                	flw	fs0,216(sp)
    a976:	4d20                	lw	s0,88(a0)
    a978:	7475                	lui	s0,0xffffd
    a97a:	7865                	lui	a6,0xffff9
    a97c:	4920                	lw	s0,80(a0)
    a97e:	696e                	flw	fs2,216(sp)
    a980:	6974                	flw	fa3,84(a0)
    a982:	6c61                	lui	s8,0x18
    a984:	7a69                	lui	s4,0xffffa
    a986:	6465                	lui	s0,0x19
    a988:	0d2e                	slli	s10,s10,0xb
    a98a:	0000                	unimp
    a98c:	4220534f          	fnmadd.d	ft6,ft0,ft2,fs0,unknown
    a990:	69746f6f          	jal	t5,51826 <_data_lma+0x450d2>
    a994:	676e                	flw	fa4,216(sp)
    a996:	2e2e                	lhu	a1,26(a2)
    a998:	002e                	c.slli	zero,0xb
	...

0000a99c <oled_ops>:
	...
    a9a8:	13e0 0000                                   ....

0000a9ac <alarm_led_hw>:
    a9ac:	0010 0000 1000 4001 0008 0000 0010 0000     .......@........
    a9bc:	0000 0000                                   ....

0000a9c0 <led_ops>:
	...
    a9cc:	14dc 0000                                   ....

0000a9d0 <light_ops>:
	...
    a9d8:	14f6 0000 0000 0000                         ........

0000a9e0 <light_sensor_hw>:
    a9e0:	0010 0000 1000 4001 0002 000b               .......@....

0000a9ec <temp_ops>:
	...
    a9f4:	1520 0000 0000 0000 9333 c388 c000 4479      .......3.....yD
    aa04:	f000 457f 4000 461c 9333 4388 0000 8000     ...E.@.F3..C....
    aa14:	9765 3f30 0000 e000 79e1 3f6b 0000 0000     e.0?.....yk?....
    aa24:	0000 3ff0                                   ...?

0000aa28 <temp_sensor_hw>:
    aa28:	0010 0000 1000 4001 0004 000c               .......@....

0000aa34 <cfg>:
    aa34:	0000 0000 17ea 0000 17a8 0000 179a 0000     ................
    aa44:	1796 0000 0001 0000 0100 0000 1000 0000     ................
    aa54:	0100 0000 01f4 0000 0100 0000 0010 0000     ................
	...
    aa88:	465b 5d53 cc20 b2bd b5e2 20bd 5053 2049     [FS] ...... SPI 
    aa98:	6c46 7361 2068 4449 203a 7830 3025 5834     Flash ID: 0x%04X
    aaa8:	0a0d 0000 465b 5d53 d520 d4fd d6da d0b4     ....[FS] .......
    aab8:	20d0 6c46 7361 2068 e3c2 fabb efce edc0     . Flash ........
    aac8:	e3b2 d4d7 ecbc 2e2e 0d2e 0000 465b 5d53     ............[FS]
    aad8:	3f20 d620 c3c2 b4fc ceed a3f3 46ba 616c      ? ..........Fla
    aae8:	6873 ce20 c0ef d0ed cab4 b0a7 a3dc b6a1     sh .............
    aaf8:	b3c1 3af6 2520 3230 2058 3025 5832 2520     ...: %02X %02X %
    ab08:	3230 2058 3025 5832 0a0d 0000 3e3e 3e3e     02X %02X....>>>>
    ab18:	3e3e 3e3e be20 d4c8 d6ae c4b8 20cf 3c3c     >>>> ........ <<
    ab28:	3c3c 3c3c 3c3c 000d bed0 acc6 c1b6 b4d0     <<<<<<..........
    ab38:	bbb1 f8cb c0cb cbc1 a1a3 ebc7 f1ce d8b1     ................
    ab48:	ecbc e9b2 a3c4 e9bf c4b5 5720 2050 cdba     .......... WP ..
    ab58:	4820 4c4f 2044 fdd2 c5bd c7ca f1b7 d3bd      HOLD ..........
    ab68:	bdb5 cbc1 3320 332e a356 bebf b2f8 c4bb     .... 3.3V.......
    ab78:	d0dc bffc a3d5 0da1 0000 0000 465b 5d53     ............[FS]
    ab88:	3f20 ce20 c0ef b2ed d7e3 bcd4 cdec b9a8      ? .............
    ab98:	a3fd 46ac 616c 6873 b220 d0c1 b9b4 c4a6     ...Flash .......
    aba8:	cddc c8ea d5ab b3fd a3a3 0da1 0000 0000     ................
    abb8:	465b 5d53 d520 d4fd b9da d4d2 20d8 694c     [FS] ........ Li
    abc8:	7474 656c 5346 ce20 bcc4 cffe cdb5 2eb3     ttleFS .........
    abd8:	2e2e 000d 465b 5d53 d520 cae2 c8c7 d0ab     ....[FS] .......
    abe8:	d0c2 c6be a3ac d5ac d4fd d6da d0b4 c8d0     ................
    abf8:	c5ab b8cc caf1 bbbd 2eaf 2e2e 000d 0000     ................
    ac08:	465b 5d53 d620 c3c2 b4fc ceed a3f3 b8ba     [FS] ...........
    ac18:	caf1 bbbd caaf b0a7 a3dc 0da1 0000 0000     ................
    ac28:	465b 5d53 d620 c3c2 b4fc ceed a3f3 b8ba     [FS] ...........
    ac38:	caf1 bbbd baaf b9f3 d4d2 cad8 b0a7 a3dc     ................
    ac48:	0da1 0000 465b 5d53 4c20 7469 6c74 4665     ....[FS] LittleF
    ac58:	2053 d2b9 d8d4 c9b3 a6b9 a1a3 b5cf b3cd     S ..............
    ac68:	d1d2 dfbe b8b1 f4b5 e7b5 a3b1 e6b4 dcc4     ................
    ac78:	a6c1 a3a1 000d 0000                         ........

0000ac80 <F6x8>:
	...
    ac88:	2f00 0000 0000 0007 0007 1400 147f 147f     ./..............
    ac98:	2400 7f2a 122a 6200 0864 2313 3600 5549     .$*.*..bd..#.6IU
    aca8:	5022 0000 0305 0000 0000 221c 0041 0000     "P........."A...
    acb8:	2241 001c 1400 3e08 1408 0800 3e08 0808     A".....>.....>..
    acc8:	0000 a000 0060 0800 0808 0808 0000 6060     ....`.........``
    acd8:	0000 2000 0810 0204 3e00 4951 3e45 0000     ... .....>QIE>..
    ace8:	7f42 0040 4200 5161 4649 2100 4541 314b     B.@..BaQIF.!AEK1
    acf8:	1800 1214 107f 2700 4545 3945 3c00 494a     .......'EEE9.<JI
    ad08:	3049 0100 0971 0305 3600 4949 3649 0600     I0..q....6III6..
    ad18:	4949 1e29 0000 3636 0000 0000 3656 0000     II)...66....V6..
    ad28:	0800 2214 0041 1400 1414 1414 0000 2241     ..."A.........A"
    ad38:	0814 0200 5101 0609 3200 5949 3e51 7c00     .....Q...2IYQ>.|
    ad48:	1112 7c12 7f00 4949 3649 3e00 4141 2241     ...|..III6.>AAA"
    ad58:	7f00 4141 1c22 7f00 4949 4149 7f00 0909     ..AA"...IIIA....
    ad68:	0109 3e00 4941 7a49 7f00 0808 7f08 0000     ...>AIIz........
    ad78:	7f41 0041 2000 4140 013f 7f00 1408 4122     A.A.. @A?....."A
    ad88:	7f00 4040 4040 7f00 0c02 7f02 7f00 0804     ..@@@@..........
    ad98:	7f10 3e00 4141 3e41 7f00 0909 0609 3e00     ...>AAA>.......>
    ada8:	5141 5e21 7f00 1909 4629 4600 4949 3149     AQ!^....)F.FIII1
    adb8:	0100 7f01 0101 3f00 4040 3f40 1f00 4020     .......?@@@?.. @
    adc8:	1f20 3f00 3840 3f40 6300 0814 6314 0700      ..?@8@?.c...c..
    add8:	7008 0708 6100 4951 4345 0000 417f 0041     .p...aQIEC...AA.
    ade8:	5500 552a 552a 0000 4141 007f 0400 0102     .U*U*U..AA......
    adf8:	0402 4000 4040 4040 0000 0201 0004 2000     ...@@@@@....... 
    ae08:	5454 7854 7f00 4448 3844 3800 4444 2044     TTTx..HDD8.8DDD 
    ae18:	3800 4444 7f48 3800 5454 1854 0800 097e     .8DDH..8TTT...~.
    ae28:	0201 1800 a4a4 7ca4 7f00 0408 7804 0000     .......|.....x..
    ae38:	7d44 0040 4000 8480 007d 7f00 2810 0044     D}@..@..}....(D.
    ae48:	0000 7f41 0040 7c00 1804 7804 7c00 0408     ..A.@..|...x.|..
    ae58:	7804 3800 4444 3844 fc00 2424 1824 1800     .x.8DDD8..$$$...
    ae68:	2424 fc18 7c00 0408 0804 4800 5454 2054     $$...|.....HTTT 
    ae78:	0400 443f 2040 3c00 4040 7c20 1c00 4020     ..?D@ .<@@ |.. @
    ae88:	1c20 3c00 3040 3c40 4400 1028 4428 1c00      ..<@0@<.D(.(D..
    ae98:	a0a0 7ca0 4400 5464 444c 1414 1414 1414     ...|.DdTLD......

0000aea8 <F8X16>:
	...
    aeb8:	0000 f800 0000 0000 0000 3300 0030 0000     ...........30...
    aec8:	1000 060c 0c10 0006 0000 0000 0000 0000     ................
    aed8:	c040 4078 78c0 0040 3f04 0404 043f 0004     @.x@.x@..?..?...
    aee8:	7000 fc88 3008 0000 1800 ff20 1e21 0000     .p...0.... .!...
    aef8:	08f0 00f0 18e0 0000 2100 031c 211e 001e     .........!...!..
    af08:	f000 8808 0070 0000 211e 2423 2719 1021     ....p....!#$.'!.
    af18:	1610 000e 0000 0000 0000 0000 0000 0000     ................
    af28:	0000 e000 0418 0002 0000 0700 2018 0040     ............. @.
    af38:	0200 1804 00e0 0000 4000 1820 0007 0000     .........@ .....
    af48:	4040 f080 4080 0040 0202 0f01 0201 0002     @@...@@.........
    af58:	0000 f000 0000 0000 0101 1f01 0101 0001     ................
	...
    af70:	b080 0070 0000 0000 0000 0000 0000 0000     ..p.............
    af80:	0100 0101 0101 0101 0000 0000 0000 0000     ................
    af90:	3000 0030 0000 0000 0000 0000 6080 0418     .00..........`..
    afa0:	6000 0618 0001 0000 e000 0810 1008 00e0     .`..............
    afb0:	0f00 2010 1020 000f 1000 f810 0000 0000     ...  ...........
    afc0:	2000 3f20 2020 0000 7000 0808 8808 0070     .  ?  ...p....p.
    afd0:	3000 2428 2122 0030 3000 8808 4888 0030     .0($"!0..0...H0.
    afe0:	1800 2020 1120 000e 0000 20c0 f810 0000     ..   ...... ....
    aff0:	0700 2404 3f24 0024 f800 8808 0888 0008     ...$$?$.........
    b000:	1900 2021 1120 000e e000 8810 1888 0000     ..!  ...........
    b010:	0f00 2011 1120 000e 3800 0808 38c8 0008     ...  ....8...8..
    b020:	0000 3f00 0000 0000 7000 0888 8808 0070     ...?.....p....p.
    b030:	1c00 2122 2221 001c e000 0810 1008 00e0     .."!!"..........
    b040:	0000 2231 1122 000f 0000 c000 00c0 0000     ..1""...........
    b050:	0000 3000 0030 0000 0000 8000 0000 0000     ...00...........
    b060:	0000 6080 0000 0000 0000 4080 1020 0008     ...`.......@ ...
    b070:	0100 0402 1008 0020 4040 4040 4040 0040     ...... .@@@@@@@.
    b080:	0404 0404 0404 0004 0800 2010 8040 0000     ........... @...
    b090:	2000 0810 0204 0001 7000 0848 0808 00f0     . .......pH.....
    b0a0:	0000 3000 0136 0000 30c0 28c8 10e8 00e0     ...06....0.(....
    b0b0:	1807 2427 1423 000b 0000 38c0 00e0 0000     ..'$#......8....
    b0c0:	3c20 0223 2702 2038 f808 8888 7088 0000      <#..'8 .....p..
    b0d0:	3f20 2020 1120 000e 30c0 0808 0808 0038      ?   ....0....8.
    b0e0:	1807 2020 1020 0008 f808 0808 1008 00e0     ..   ...........
    b0f0:	3f20 2020 1020 000f f808 8888 08e8 0010      ?   ...........
    b100:	3f20 2020 2023 0018 f808 8888 08e8 0010      ?  # ..........
    b110:	3f20 0020 0003 0000 30c0 0808 3808 0000      ? ......0...8..
    b120:	1807 2020 1e22 0002 f808 0008 0800 08f8     ..  "...........
    b130:	3f20 0121 2101 203f 0800 f808 0808 0000      ?!..!? ........
    b140:	2000 3f20 2020 0000 0000 0808 08f8 0008     .  ?  ..........
    b150:	80c0 8080 007f 0000 f808 c088 1828 0008     ............(...
    b160:	3f20 0120 3826 0020 f808 0008 0000 0000      ? .&8 .........
    b170:	3f20 2020 2020 0030 f808 00f8 f8f8 0008      ?    0.........
    b180:	3f20 3f00 3f00 0020 f808 c030 0800 08f8      ?.?.? ...0.....
    b190:	3f20 0020 1807 003f 10e0 0808 1008 00e0      ? ...?.........
    b1a0:	100f 2020 1020 000f f808 0808 0808 00f0     ..   ...........
    b1b0:	3f20 0121 0101 0000 10e0 0808 1008 00e0      ?!.............
    b1c0:	180f 2424 5038 004f f808 8888 8888 0070     ..$$8PO.......p.
    b1d0:	3f20 0020 0c03 2030 7000 0888 0808 0038      ? ...0 .p....8.
    b1e0:	3800 2120 2221 001c 0818 f808 0808 0018     .8 !!"..........
    b1f0:	0000 3f20 0020 0000 f808 0008 0800 08f8     .. ? ...........
    b200:	1f00 2020 2020 001f 7808 0088 c800 0838     ..    ...x....8.
    b210:	0000 3807 010e 0000 08f8 f800 0800 00f8     ...8............
    b220:	3c03 0007 3c07 0003 1808 8068 6880 0818     .<...<....h..h..
    b230:	3020 032c 2c03 2030 3808 00c8 38c8 0008      0,..,0 .8...8..
    b240:	0000 3f20 0020 0000 0810 0808 38c8 0008     .. ? ........8..
    b250:	3820 2126 2020 0018 0000 fe00 0202 0002      8&!  ..........
    b260:	0000 7f00 4040 0040 0c00 c030 0000 0000     ....@@@...0.....
    b270:	0000 0100 3806 00c0 0200 0202 00fe 0000     .....8..........
    b280:	4000 4040 007f 0000 0000 0204 0202 0004     .@@@............
	...
    b2a0:	8080 8080 8080 8080 0200 0402 0000 0000     ................
	...
    b2b8:	0000 8080 8080 0000 1900 2224 2222 203f     ..........$"""? 
    b2c8:	f808 8000 0080 0000 3f00 2011 1120 000e     .........?.  ...
    b2d8:	0000 8000 8080 0000 0e00 2011 2020 0011     ...........   ..
    b2e8:	0000 8000 8880 00f8 0e00 2011 1020 203f     ...........  .? 
    b2f8:	0000 8080 8080 0000 1f00 2222 2222 0013     ..........""""..
    b308:	8000 f080 8888 1888 2000 3f20 2020 0000     .........  ?  ..
    b318:	0000 8080 8080 0080 6b00 9494 9394 0060     .........k....`.
    b328:	f808 8000 8080 0000 3f20 0021 2000 203f     ........ ?!.. ? 
    b338:	8000 9898 0000 0000 2000 3f20 2020 0000     .........  ?  ..
    b348:	0000 8000 9898 0000 c000 8080 7f80 0000     ................
    b358:	f808 0000 8080 0080 3f20 0224 302d 0020     ........ ?$.-0 .
    b368:	0800 f808 0000 0000 2000 3f20 2020 0000     .........  ?  ..
    b378:	8080 8080 8080 0080 3f20 0020 203f 3f00     ........ ? .? .?
    b388:	8080 8000 8080 0000 3f20 0021 2000 203f     ........ ?!.. ? 
    b398:	0000 8080 8080 0000 1f00 2020 2020 001f     ..........    ..
    b3a8:	8080 8000 0080 0000 ff80 20a1 1120 000e     ...........  ...
    b3b8:	0000 8000 8080 0080 0e00 2011 a020 80ff     ...........  ...
    b3c8:	8080 0080 8080 0080 2020 213f 0020 0001     ........  ?! ...
    b3d8:	0000 8080 8080 0080 3300 2424 2424 0019     .........3$$$$..
    b3e8:	8000 e080 8080 0000 0000 1f00 2020 0000     ............  ..
    b3f8:	8080 0000 8000 0080 1f00 2020 1020 203f     ..........   .? 
    b408:	8080 0080 8000 8080 0100 300e 0608 0001     ...........0....
    b418:	8080 8000 8000 8080 300f 030c 300c 000f     .........0...0..
    b428:	8000 0080 8080 0080 2000 2e31 310e 0020     ......... 1..1 .
    b438:	8080 0080 8000 8080 8180 708e 0618 0001     ...........p....
    b448:	8000 8080 8080 0080 2100 2c30 2122 0030     .........!0,"!0.
    b458:	0000 0000 7c80 0202 0000 0000 3f00 4040     .....|.......?@@
    b468:	0000 0000 00ff 0000 0000 0000 00ff 0000     ................
    b478:	0200 7c02 0080 0000 4000 3f40 0000 0000     ...|.....@@?....
    b488:	0600 0101 0202 0404 0000 0000 0000 0000     ................
    b498:	4d5b 6d65 6f70 6c6f 205d 7245 6f72 3a72     [Mempool] Error:
    b4a8:	4f20 7475 6f20 2066 656d 6f6d 7972 0d21      Out of memory!.
    b4b8:	0000 0000 4d5b 6d65 6f70 6c6f 205d 6e49     ....[Mempool] In
    b4c8:	7469 6169 696c 657a 2064 6425 7320 6174     itialized %d sta
    b4d8:	6b63 2073 666f 2520 2064 7962 6574 2e73     cks of %d bytes.
    b4e8:	0a0d 0000                                   ....

0000b4ec <__func__.3667>:
    b4ec:	666c 5f73 6462 725f 6165 0064               lfs_bd_read.

0000b4f8 <__func__.3713>:
    b4f8:	666c 5f73 6462 665f 756c 6873 0000 0000     lfs_bd_flush....

0000b508 <__func__.3724>:
    b508:	666c 5f73 6462 735f 6e79 0063               lfs_bd_sync.

0000b514 <__func__.3736>:
    b514:	666c 5f73 6462 705f 6f72 0067               lfs_bd_prog.

0000b520 <__func__.3746>:
    b520:	666c 5f73 6462 655f 6172 6573 0000 0000     lfs_bd_erase....

0000b530 <__func__.4023>:
    b530:	666c 5f73 6964 5f72 6567 7374 696c 6563     lfs_dir_getslice
    b540:	0000 0000                                   ....

0000b544 <__func__.4107>:
    b544:	666c 5f73 6964 5f72 7274 7661 7265 6573     lfs_dir_traverse
    b554:	0000 0000                                   ....

0000b558 <__func__.4156>:
    b558:	666c 5f73 6964 5f72 6566 6374 6d68 7461     lfs_dir_fetchmat
    b568:	6863 0000                                   ch..

0000b56c <__func__.4339>:
    b56c:	666c 5f73 6964 5f72 6f63 706d 6361 0074     lfs_dir_compact.

0000b57c <__func__.4379>:
    b57c:	666c 5f73 6964 5f72 6572 6f6c 6163 6974     lfs_dir_relocati
    b58c:	676e 6f63 6d6d 7469 0000 0000               ngcommit....

0000b598 <__func__.4436>:
    b598:	666c 5f73 6964 5f72 726f 6870 6e61 6e69     lfs_dir_orphanin
    b5a8:	6367 6d6f 696d 0074                         gcommit.

0000b5b0 <__func__.4684>:
    b5b0:	666c 5f73 6966 656c 725f 6165 5f64 0000     lfs_file_read_..

0000b5c0 <__func__.4712>:
    b5c0:	666c 5f73 6966 656c 775f 6972 6574 005f     lfs_file_write_.

0000b5d0 <__func__.4846>:
    b5d0:	666c 5f73 6e69 7469 0000 0000               lfs_init....

0000b5dc <__func__.4859>:
    b5dc:	666c 5f73 6f66 6d72 7461 005f               lfs_format_.

0000b5e8 <__func__.4984>:
    b5e8:	666c 5f73 7366 705f 6572 6f70 7072 6168     lfs_fs_preporpha
    b5f8:	736e 0000                                   ns..

0000b5fc <__func__.5001>:
    b5fc:	666c 5f73 7366 645f 6d65 766f 0065 0000     lfs_fs_demove...

0000b60c <__func__.5132>:
    b60c:	666c 5f73 6966 656c 6f5f 6570 006e 0000     lfs_file_open...

0000b61c <__func__.5147>:
    b61c:	666c 5f73 6966 656c 635f 6f6c 6573 0000     lfs_file_close..

0000b62c <__func__.5161>:
    b62c:	666c 5f73 6966 656c 725f 6165 0064 0000     lfs_file_read...

0000b63c <__func__.5170>:
    b63c:	666c 5f73 6966 656c 775f 6972 6574 0000     lfs_file_write..

0000b64c <defaults.4608>:
	...
    b658:	7325 253a 3a64 7265 6f72 3a72 4e20 206f     %s:%d:error: No 
    b668:	6f6d 6572 6620 6572 2065 7073 6361 2065     more free space 
    b678:	7830 6c25 2578 0a73 0000 0000 6370 6361     0x%lx%s.....pcac
    b688:	6568 3e2d 6c62 636f 206b 203c 666c 2d73     he->block < lfs-
    b698:	623e 6f6c 6b63 635f 756f 746e 0000 0000     >block_count....
    b6a8:	6c62 636f 206b 3d3d 2820 6c28 7366 625f     block == ((lfs_b
    b6b8:	6f6c 6b63 745f 2d29 2932 7c20 207c 6c62     lock_t)-2) || bl
    b6c8:	636f 206b 203c 666c 2d73 623e 6f6c 6b63     ock < lfs->block
    b6d8:	635f 756f 746e 0000 666f 2066 202b 6973     _count..off + si
    b6e8:	657a 3c20 203d 666c 2d73 633e 6766 3e2d     ze <= lfs->cfg->
    b6f8:	6c62 636f 5f6b 6973 657a 0000 6370 6361     block_size..pcac
    b708:	6568 3e2d 6c62 636f 206b 3d3d 2820 6c28     he->block == ((l
    b718:	7366 625f 6f6c 6b63 745f 2d29 2931 0000     fs_block_t)-1)..
    b728:	7265 2072 3d3c 3020 0000 0000 2e2e 4c2f     err <= 0....../L
    b738:	7469 6c74 4665 2f53 666c 2e73 0063 0000     ittleFS/lfs.c...
    b748:	6c21 7366 3e2d 6c62 636f 5f6b 6f63 6e75     !lfs->block_coun
    b758:	2074 7c7c 6220 6f6c 6b63 3c20 6c20 7366     t || block < lfs
    b768:	3e2d 6c62 636f 5f6b 6f63 6e75 0074 0000     ->block_count...
    b778:	6f63 6d6d 7469 6f2e 6666 2520 6c20 7366     commit.off % lfs
    b788:	3e2d 6663 2d67 703e 6f72 5f67 6973 657a     ->cfg->prog_size
    b798:	3d20 203d 0030 0000 7325 253a 3a64 6177      == 0...%s:%d:wa
    b7a8:	6e72 203a 7553 6570 6272 6f6c 6b63 3020     rn: Superblock 0
    b7b8:	2578 786c 6820 7361 6220 6365 6d6f 2065     x%lx has become 
    b7c8:	6e75 7277 7469 6261 656c 7325 000a 0000     unwritable%s....
    b7d8:	6263 2120 203d 2828 6f76 6469 2a20 3029     cb != ((void *)0
    b7e8:	0029 0000 7325 253a 3a64 7265 6f72 3a72     )...%s:%d:error:
    b7f8:	4320 726f 7572 7470 6465 6420 7269 7020      Corrupted dir p
    b808:	6961 2072 7461 7b20 7830 6c25 2c78 3020     air at {0x%lx, 0
    b818:	2578 786c 257d 0a73 0000 0000 2e2e 0000     x%lx}%s.........
    b828:	002f 0000 7325 253a 3a64 6564 7562 3a67     /...%s:%d:debug:
    b838:	5220 6c65 636f 7461 6e69 2067 307b 2578      Relocating {0x%
    b848:	786c 202c 7830 6c25 7d78 2d20 203e 307b     lx, 0x%lx} -> {0
    b858:	2578 786c 202c 7830 6c25 7d78 7325 000a     x%lx, 0x%lx}%s..
    b868:	7325 253a 3a64 6564 7562 3a67 4620 7869     %s:%d:debug: Fix
    b878:	6e69 2067 6f6d 6576 7720 6968 656c 7220     ing move while r
    b888:	6c65 636f 7461 6e69 2067 307b 2578 786c     elocating {0x%lx
    b898:	202c 7830 6c25 7d78 3020 2578 7868 250a     , 0x%lx} 0x%hx.%
    b8a8:	0a73 0000 2821 6168 7073 7261 6e65 2074     s...!(hasparent 
    b8b8:	2626 6520 7272 3d20 203d 464c 5f53 5245     && err == LFS_ER
    b8c8:	5f52 4f4e 4e45 2954 0000 0000 6964 2d72     R_NOENT)....dir-
    b8d8:	633e 756f 746e 3e20 3020 0000 6470 7269     >count > 0..pdir
    b8e8:	0000 0000 7325 253a 3a64 6177 6e72 203a     ....%s:%d:warn: 
    b8f8:	6e55 6261 656c 7420 206f 7073 696c 2074     Unable to split 
    b908:	307b 2578 786c 202c 7830 6c25 7d78 7325     {0x%lx, 0x%lx}%s
    b918:	000a 0000 7325 253a 3a64 6564 7562 3a67     ....%s:%d:debug:
    b928:	4520 7078 6e61 6964 676e 7320 7075 7265      Expanding super
    b938:	6c62 636f 206b 7461 7220 7665 2520 756c     block at rev %lu
    b948:	7325 000a 7325 253a 3a64 6177 6e72 203a     %s..%s:%d:warn: 
    b958:	6e55 6261 656c 7420 206f 7865 6170 646e     Unable to expand
    b968:	7320 7075 7265 6c62 636f 256b 0a73 0000      superblock%s...
    b978:	7073 3c20 3320 0000 666c 5f73 6c6d 7369     sp < 3..lfs_mlis
    b988:	5f74 7369 706f 6e65 6c28 7366 3e2d 6c6d     t_isopen(lfs->ml
    b998:	7369 2c74 2820 7473 7572 7463 6c20 7366     ist, (struct lfs
    b9a8:	6d5f 696c 7473 292a 6966 656c 0029 0000     _mlist*)file)...
    b9b8:	6c21 7366 6d5f 696c 7473 695f 6f73 6570     !lfs_mlist_isope
    b9c8:	286e 666c 2d73 6d3e 696c 7473 202c 7328     n(lfs->mlist, (s
    b9d8:	7274 6375 2074 666c 5f73 6c6d 7369 2a74     truct lfs_mlist*
    b9e8:	6629 6c69 2965 0000 6628 6c69 2d65 663e     )file)..(file->f
    b9f8:	616c 7367 2620 4c20 5346 4f5f 525f 4f44     lags & LFS_O_RDO
    ba08:	4c4e 2959 3d20 203d 464c 5f53 5f4f 4452     NLY) == LFS_O_RD
    ba18:	4e4f 594c 0000 0000 7325 253a 3a64 6564     ONLY....%s:%d:de
    ba28:	7562 3a67 4220 6461 6220 6f6c 6b63 6120     bug: Bad block a
    ba38:	2074 7830 6c25 2578 0a73 0000 6628 6c69     t 0x%lx%s...(fil
    ba48:	2d65 663e 616c 7367 2620 4c20 5346 4f5f     e->flags & LFS_O
    ba58:	575f 4f52 4c4e 2959 3d20 203d 464c 5f53     _WRONLY) == LFS_
    ba68:	5f4f 5257 4e4f 594c 0000 0000 6663 2d67     O_WRONLY....cfg-
    ba78:	623e 6f6c 6b63 635f 756f 746e 2120 203d     >block_count != 
    ba88:	0030 0000 696c 7474 656c 7366 0000 0000     0...littlefs....
    ba98:	7325 253a 3a64 6564 7562 3a67 4620 7869     %s:%d:debug: Fix
    baa8:	6e69 2067 6168 666c 6f2d 7072 6168 206e     ing half-orphan 
    bab8:	307b 2578 786c 202c 7830 6c25 7d78 2d20     {0x%lx, 0x%lx} -
    bac8:	203e 307b 2578 786c 202c 7830 6c25 7d78     > {0x%lx, 0x%lx}
    bad8:	7325 000a 7325 253a 3a64 6564 7562 3a67     %s..%s:%d:debug:
    bae8:	4620 7869 6e69 2067 6f6d 6576 7720 6968      Fixing move whi
    baf8:	656c 6620 7869 6e69 2067 726f 6870 6e61     le fixing orphan
    bb08:	2073 307b 2578 786c 202c 7830 6c25 7d78     s {0x%lx, 0x%lx}
    bb18:	3020 2578 7868 250a 0a73 0000 7325 253a      0x%hx.%s...%s:%
    bb28:	3a64 6564 7562 3a67 4620 7869 6e69 2067     d:debug: Fixing 
    bb38:	726f 6870 6e61 7b20 7830 6c25 2c78 3020     orphan {0x%lx, 0
    bb48:	2578 786c 257d 0a73 0000 0000 7325 253a     x%lx}%s.....%s:%
    bb58:	3a64 6564 7562 3a67 5220 7765 6972 6974     d:debug: Rewriti
    bb68:	676e 7320 7075 7265 6c62 636f 206b 307b     ng superblock {0
    bb78:	2578 786c 202c 7830 6c25 7d78 7325 000a     x%lx, 0x%lx}%s..
    bb88:	7325 253a 3a64 6564 7562 3a67 4620 7869     %s:%d:debug: Fix
    bb98:	6e69 2067 6f6d 6576 7b20 7830 6c25 2c78     ing move {0x%lx,
    bba8:	3020 2578 786c 207d 7830 6825 2578 0a73      0x%lx} 0x%hx%s.
    bbb8:	0000 0000 666c 5f73 6174 5f67 7974 6570     ....lfs_tag_type
    bbc8:	2833 666c 2d73 673e 6964 6b73 742e 6761     3(lfs->gdisk.tag
    bbd8:	2029 3d3d 4c20 5346 545f 5059 5f45 4544     ) == LFS_TYPE_DE
    bbe8:	454c 4554 0000 0000 666c 5f73 6174 5f67     LETE....lfs_tag_
    bbf8:	6973 657a 6c28 7366 3e2d 7367 6174 6574     size(lfs->gstate
    bc08:	742e 6761 2029 203e 7830 3030 2030 7c7c     .tag) > 0x000 ||
    bc18:	6f20 7072 6168 736e 3e20 203d 0030 0000      orphans >= 0...
    bc28:	666c 5f73 6174 5f67 6973 657a 6c28 7366     lfs_tag_size(lfs
    bc38:	3e2d 7367 6174 6574 742e 6761 2029 203c     ->gstate.tag) < 
    bc48:	7830 6631 2066 7c7c 6f20 7072 6168 736e     0x1ff || orphans
    bc58:	3c20 203d 0030 0000 666c 2d73 633e 6766      <= 0...lfs->cfg
    bc68:	3e2d 6572 6461 2120 203d 2828 6f76 6469     ->read != ((void
    bc78:	2a20 3029 0029 0000 666c 2d73 633e 6766      *)0)...lfs->cfg
    bc88:	3e2d 7270 676f 2120 203d 2828 6f76 6469     ->prog != ((void
    bc98:	2a20 3029 0029 0000 666c 2d73 633e 6766      *)0)...lfs->cfg
    bca8:	3e2d 7265 7361 2065 3d21 2820 7628 696f     ->erase != ((voi
    bcb8:	2064 292a 2930 0000 666c 2d73 633e 6766     d *)0)..lfs->cfg
    bcc8:	3e2d 7973 636e 2120 203d 2828 6f76 6469     ->sync != ((void
    bcd8:	2a20 3029 0029 0000 666c 2d73 633e 6766      *)0)...lfs->cfg
    bce8:	3e2d 6572 6461 735f 7a69 2065 3d21 3020     ->read_size != 0
    bcf8:	0000 0000 666c 2d73 633e 6766 3e2d 7270     ....lfs->cfg->pr
    bd08:	676f 735f 7a69 2065 3d21 3020 0000 0000     og_size != 0....
    bd18:	666c 2d73 633e 6766 3e2d 6163 6863 5f65     lfs->cfg->cache_
    bd28:	6973 657a 2120 203d 0030 0000 666c 2d73     size != 0...lfs-
    bd38:	633e 6766 3e2d 6163 6863 5f65 6973 657a     >cfg->cache_size
    bd48:	2520 6c20 7366 3e2d 6663 2d67 723e 6165      % lfs->cfg->rea
    bd58:	5f64 6973 657a 3d20 203d 0030 666c 2d73     d_size == 0.lfs-
    bd68:	633e 6766 3e2d 6163 6863 5f65 6973 657a     >cfg->cache_size
    bd78:	2520 6c20 7366 3e2d 6663 2d67 703e 6f72      % lfs->cfg->pro
    bd88:	5f67 6973 657a 3d20 203d 0030 666c 2d73     g_size == 0.lfs-
    bd98:	633e 6766 3e2d 6c62 636f 5f6b 6973 657a     >cfg->block_size
    bda8:	2520 6c20 7366 3e2d 6663 2d67 633e 6361      % lfs->cfg->cac
    bdb8:	6568 735f 7a69 2065 3d3d 3020 0000 0000     he_size == 0....
    bdc8:	666c 2d73 633e 6766 3e2d 6c62 636f 5f6b     lfs->cfg->block_
    bdd8:	6973 657a 3e20 203d 3231 0038 666c 2d73     size >= 128.lfs-
    bde8:	633e 6766 3e2d 6c62 636f 5f6b 7963 6c63     >cfg->block_cycl
    bdf8:	7365 2120 203d 0030 666c 2d73 633e 6766     es != 0.lfs->cfg
    be08:	3e2d 6f63 706d 6361 5f74 6874 6572 6873     ->compact_thresh
    be18:	3d20 203d 2030 7c7c 6c20 7366 3e2d 6663      == 0 || lfs->cf
    be28:	2d67 633e 6d6f 6170 7463 745f 7268 7365     g->compact_thres
    be38:	2068 3d3e 6c20 7366 3e2d 6663 2d67 623e     h >= lfs->cfg->b
    be48:	6f6c 6b63 735f 7a69 2f65 0032 666c 2d73     lock_size/2.lfs-
    be58:	633e 6766 3e2d 6f63 706d 6361 5f74 6874     >cfg->compact_th
    be68:	6572 6873 3d20 203d 6c28 7366 735f 7a69     resh == (lfs_siz
    be78:	5f65 2974 312d 7c20 207c 666c 2d73 633e     e_t)-1 || lfs->c
    be88:	6766 3e2d 6f63 706d 6361 5f74 6874 6572     fg->compact_thre
    be98:	6873 3c20 203d 666c 2d73 633e 6766 3e2d     sh <= lfs->cfg->
    bea8:	6c62 636f 5f6b 6973 657a 0000 6c21 7366     block_size..!lfs
    beb8:	3e2d 6663 2d67 6d3e 7465 6461 7461 5f61     ->cfg->metadata_
    bec8:	616d 2078 7c7c 6c20 7366 3e2d 6663 2d67     max || lfs->cfg-
    bed8:	6d3e 7465 6461 7461 5f61 616d 2078 2025     >metadata_max % 
    bee8:	666c 2d73 633e 6766 3e2d 6572 6461 735f     lfs->cfg->read_s
    bef8:	7a69 2065 3d3d 3020 0000 0000 6c21 7366     ize == 0....!lfs
    bf08:	3e2d 6663 2d67 6d3e 7465 6461 7461 5f61     ->cfg->metadata_
    bf18:	616d 2078 7c7c 6c20 7366 3e2d 6663 2d67     max || lfs->cfg-
    bf28:	6d3e 7465 6461 7461 5f61 616d 2078 2025     >metadata_max % 
    bf38:	666c 2d73 633e 6766 3e2d 7270 676f 735f     lfs->cfg->prog_s
    bf48:	7a69 2065 3d3d 3020 0000 0000 6c21 7366     ize == 0....!lfs
    bf58:	3e2d 6663 2d67 6d3e 7465 6461 7461 5f61     ->cfg->metadata_
    bf68:	616d 2078 7c7c 6c20 7366 3e2d 6663 2d67     max || lfs->cfg-
    bf78:	623e 6f6c 6b63 735f 7a69 2065 2025 666c     >block_size % lf
    bf88:	2d73 633e 6766 3e2d 656d 6174 6164 6174     s->cfg->metadata
    bf98:	6d5f 7861 3d20 203d 0030 0000 666c 2d73     _max == 0...lfs-
    bfa8:	633e 6766 3e2d 6f6c 6b6f 6861 6165 5f64     >cfg->lookahead_
    bfb8:	6973 657a 3e20 3020 0000 0000 666c 2d73     size > 0....lfs-
    bfc8:	633e 6766 3e2d 616e 656d 6d5f 7861 3c20     >cfg->name_max <
    bfd8:	203d 3532 0035 0000 666c 2d73 633e 6766     = 255...lfs->cfg
    bfe8:	3e2d 6966 656c 6d5f 7861 3c20 203d 3132     ->file_max <= 21
    bff8:	3734 3834 3633 3734 0000 0000 666c 2d73     47483647....lfs-
    c008:	633e 6766 3e2d 7461 7274 6d5f 7861 3c20     >cfg->attr_max <
    c018:	203d 3031 3232 0000 666c 2d73 633e 6766     = 1022..lfs->cfg
    c028:	3e2d 656d 6174 6164 6174 6d5f 7861 3c20     ->metadata_max <
    c038:	203d 666c 2d73 633e 6766 3e2d 6c62 636f     = lfs->cfg->bloc
    c048:	5f6b 6973 657a 0000 666c 2d73 633e 6766     k_size..lfs->cfg
    c058:	3e2d 6e69 696c 656e 6d5f 7861 3d20 203d     ->inline_max == 
    c068:	6c28 7366 735f 7a69 5f65 2974 312d 7c20     (lfs_size_t)-1 |
    c078:	207c 666c 2d73 633e 6766 3e2d 6e69 696c     | lfs->cfg->inli
    c088:	656e 6d5f 7861 3c20 203d 666c 2d73 633e     ne_max <= lfs->c
    c098:	6766 3e2d 6163 6863 5f65 6973 657a 0000     fg->cache_size..
    c0a8:	666c 2d73 633e 6766 3e2d 6e69 696c 656e     lfs->cfg->inline
    c0b8:	6d5f 7861 3d20 203d 6c28 7366 735f 7a69     _max == (lfs_siz
    c0c8:	5f65 2974 312d 7c20 207c 666c 2d73 633e     e_t)-1 || lfs->c
    c0d8:	6766 3e2d 6e69 696c 656e 6d5f 7861 3c20     fg->inline_max <
    c0e8:	203d 666c 2d73 613e 7474 5f72 616d 0078     = lfs->attr_max.
    c0f8:	666c 2d73 633e 6766 3e2d 6e69 696c 656e     lfs->cfg->inline
    c108:	6d5f 7861 3d20 203d 6c28 7366 735f 7a69     _max == (lfs_siz
    c118:	5f65 2974 312d 7c20 207c 666c 2d73 633e     e_t)-1 || lfs->c
    c128:	6766 3e2d 6e69 696c 656e 6d5f 7861 3c20     fg->inline_max <
    c138:	203d 2828 666c 2d73 633e 6766 3e2d 656d     = ((lfs->cfg->me
    c148:	6174 6164 6174 6d5f 7861 2029 203f 666c     tadata_max) ? lf
    c158:	2d73 633e 6766 3e2d 656d 6174 6164 6174     s->cfg->metadata
    c168:	6d5f 7861 3a20 6c20 7366 3e2d 6663 2d67     _max : lfs->cfg-
    c178:	623e 6f6c 6b63 735f 7a69 2965 382f 0000     >block_size)/8..
    c188:	7325 253a 3a64 7265 6f72 3a72 4920 766e     %s:%d:error: Inv
    c198:	6c61 6469 7620 7265 6973 6e6f 7620 6825     alid version v%h
    c1a8:	2e75 6825 2075 3d21 7620 6825 2e75 6825     u.%hu != v%hu.%h
    c1b8:	2575 0a73 0000 0000 7325 253a 3a64 6564     u%s.....%s:%d:de
    c1c8:	7562 3a67 4620 756f 646e 6f20 646c 7265     bug: Found older
    c1d8:	6d20 6e69 726f 7620 7265 6973 6e6f 7620      minor version v
    c1e8:	6825 2e75 6825 2075 203c 2576 7568 252e     %hu.%hu < v%hu.%
    c1f8:	7568 7325 000a 0000 7325 253a 3a64 7265     hu%s....%s:%d:er
    c208:	6f72 3a72 5520 736e 7075 6f70 7472 6465     ror: Unsupported
    c218:	6e20 6d61 5f65 616d 2078 2528 756c 3e20      name_max (%lu >
    c228:	2520 756c 2529 0a73 0000 0000 7325 253a      %lu)%s.....%s:%
    c238:	3a64 7265 6f72 3a72 5520 736e 7075 6f70     d:error: Unsuppo
    c248:	7472 6465 6620 6c69 5f65 616d 2078 2528     rted file_max (%
    c258:	756c 3e20 2520 756c 2529 0a73 0000 0000     lu > %lu)%s.....
    c268:	7325 253a 3a64 7265 6f72 3a72 5520 736e     %s:%d:error: Uns
    c278:	7075 6f70 7472 6465 6120 7474 5f72 616d     upported attr_ma
    c288:	2078 2528 756c 3e20 2520 756c 2529 0a73     x (%lu > %lu)%s.
    c298:	0000 0000 7325 253a 3a64 7265 6f72 3a72     ....%s:%d:error:
    c2a8:	4920 766e 6c61 6469 6220 6f6c 6b63 6320      Invalid block c
    c2b8:	756f 746e 2820 6c25 2075 3d21 2520 756c     ount (%lu != %lu
    c2c8:	2529 0a73 0000 0000 7325 253a 3a64 7265     )%s.....%s:%d:er
    c2d8:	6f72 3a72 4920 766e 6c61 6469 6220 6f6c     ror: Invalid blo
    c2e8:	6b63 7320 7a69 2065 2528 756c 2120 203d     ck size (%lu != 
    c2f8:	6c25 2975 7325 000a 7325 253a 3a64 6564     %lu)%s..%s:%d:de
    c308:	7562 3a67 4620 756f 646e 7020 6e65 6964     bug: Found pendi
    c318:	676e 6720 7473 7461 2065 7830 3025 6c38     ng gstate 0x%08l
    c328:	2578 3830 786c 3025 6c38 2578 0a73 0000     x%08lx%08lx%s...
    c338:	7325 253a 3a64 6177 6e72 203a 7943 6c63     %s:%d:warn: Cycl
    c348:	2065 6564 6574 7463 6465 6920 206e 6174     e detected in ta
    c358:	6c69 6c20 7369 2574 0a73 0000               il list%s...

0000c364 <rtable.3322>:
    c364:	0000 0000 1064 1db7 20c8 3b6e 30ac 26d9     ....d.... n;.0.&
    c374:	4190 76dc 51f4 6b6b 6158 4db2 713c 5005     .A.v.QkkXa.M<q.P
    c384:	8320 edb8 9344 f00f a3e8 d6d6 b38c cb61      ...D.........a.
    c394:	c2b0 9b64 d2d4 86d3 e278 a00a f21c bdbd     ..d.....x.......
	...
    c3ac:	0000 fff0 0000 e000 ffff c7ef 6f6c 0067     ............log.
	...
    c3c4:	0000 c350 0000 0000 0000 4350 0000 fee0     ..P.......PC....
    c3d4:	2e42 3fe6 3c76 3579 39ef 3dea 5555 5555     B..?v<y5.9.=UUUU
    c3e4:	5555 3fd5 0000 0000 0000 3fe0 0000 0000     UU.?.......?....
    c3f4:	0000 4000 5244 df3e f112 3fc2 03de 96cb     ...@DR>....?....
    c404:	4664 3fc7 9359 9422 4924 3fd2 5593 5555     dF.?Y.".$I.?.UUU
    c414:	5555 3fe5 c69f d078 9a09 3fc3 78af 1d8e     UU.?..x....?.x..
    c424:	71c5 3fcc fa04 9997 9999 3fd9 0000 0000     .q.?.......?....
    c434:	0000 7ff8 a9c4 ffff a848 ffff a958 ffff     ........H...X...
    c444:	a960 ffff a958 ffff a878 ffff a958 ffff     `...X...x...X...
    c454:	a960 ffff a848 ffff a848 ffff a878 ffff     `...H...H...x...
    c464:	a960 ffff a9ba ffff a9ba ffff a9ba ffff     `...............
    c474:	a878 ffff b01e ffff af10 ffff af10 ffff     x...............
    c484:	af0e ffff af16 ffff af16 ffff aedc ffff     ................
    c494:	af0e ffff af16 ffff aedc ffff af16 ffff     ................
    c4a4:	af0e ffff b00a ffff b00a ffff b00a ffff     ................
    c4b4:	aedc ffff bc2c ffff bb52 ffff bc26 ffff     ....,...R...&...
    c4c4:	bb5a ffff bc26 ffff bb20 ffff bc26 ffff     Z...&... ...&...
    c4d4:	bb5a ffff bb52 ffff bb52 ffff bb20 ffff     Z...R...R... ...
    c4e4:	bb5a ffff bb60 ffff bb60 ffff bb60 ffff     Z...`...`...`...
    c4f4:	bb20 ffff bb12 ffff bb12 ffff bbe6 ffff      ...............
    c504:	bcc2 ffff bbe6 ffff bae0 ffff bbe6 ffff     ................
    c514:	bcc2 ffff bb12 ffff bb12 ffff bae0 ffff     ................
    c524:	bcc2 ffff bb20 ffff bb20 ffff bb20 ffff     .... ... ... ...
    c534:	bae0 ffff bf96 ffff bee4 ffff bee4 ffff     ................
    c544:	bee2 ffff bee8 ffff bee8 ffff beb8 ffff     ................
    c554:	bee2 ffff bee8 ffff beb8 ffff bee8 ffff     ................
    c564:	bee2 ffff bf84 ffff bf84 ffff bf84 ffff     ................
    c574:	beb8 ffff                                   ....

0000c578 <__clz_tab>:
    c578:	0100 0202 0303 0303 0404 0404 0404 0404     ................
    c588:	0505 0505 0505 0505 0505 0505 0505 0505     ................
    c598:	0606 0606 0606 0606 0606 0606 0606 0606     ................
    c5a8:	0606 0606 0606 0606 0606 0606 0606 0606     ................
    c5b8:	0707 0707 0707 0707 0707 0707 0707 0707     ................
    c5c8:	0707 0707 0707 0707 0707 0707 0707 0707     ................
    c5d8:	0707 0707 0707 0707 0707 0707 0707 0707     ................
    c5e8:	0707 0707 0707 0707 0707 0707 0707 0707     ................
    c5f8:	0808 0808 0808 0808 0808 0808 0808 0808     ................
    c608:	0808 0808 0808 0808 0808 0808 0808 0808     ................
    c618:	0808 0808 0808 0808 0808 0808 0808 0808     ................
    c628:	0808 0808 0808 0808 0808 0808 0808 0808     ................
    c638:	0808 0808 0808 0808 0808 0808 0808 0808     ................
    c648:	0808 0808 0808 0808 0808 0808 0808 0808     ................
    c658:	0808 0808 0808 0808 0808 0808 0808 0808     ................
    c668:	0808 0808 0808 0808 0808 0808 0808 0808     ................
    c678:	202c 7566 636e 6974 6e6f 203a 0000 0000     , function: ....
    c688:	7361 6573 7472 6f69 206e 2522 2273 6620     assertion "%s" f
    c698:	6961 656c 3a64 6620 6c69 2065 2522 2273     ailed: file "%s"
    c6a8:	202c 696c 656e 2520 2564 2573 0a73 0000     , line %d%s%s...
    c6b8:	2d23 2b30 0020 0000 6c68 004c 6665 4567     #-0+ ...hlL.efgE
    c6c8:	4746 0000 3130 3332 3534 3736 3938 4241     FG..0123456789AB
    c6d8:	4443 4645 0000 0000 3130 3332 3534 3736     CDEF....01234567
    c6e8:	3938 6261 6463 6665 0000 0000               89abcdef....

0000c6f4 <__sf_fake_stderr>:
	...

0000c714 <__sf_fake_stdin>:
	...

0000c734 <__sf_fake_stdout>:
	...
